GAS LISTING /tmp/ccJkRw2J.s 			page 1


   1              		.file	"customstamps.cpp"
   2              		.text
   3              	.Ltext0:
   4              		.section	.text.unlikely,"ax",@progbits
   5              		.align 2
   6              	.LCOLDB0:
   7              		.text
   8              	.LHOTB0:
   9              		.align 2
  10              		.p2align 4,,15
  11              		.section	.text.unlikely
  12              	.Ltext_cold0:
  13              		.text
  14              		.type	_ZZ4mainENUlfE_4_FUNEf, @function
  15              	_ZZ4mainENUlfE_4_FUNEf:
  16              	.LFB1875:
  17              		.file 1 "examples/customstamps.cpp"
   0:examples/customstamps.cpp **** /* heatmap - High performance heatmap creation in C.
   1:examples/customstamps.cpp ****  *
   2:examples/customstamps.cpp ****  * The MIT License (MIT)
   3:examples/customstamps.cpp ****  *
   4:examples/customstamps.cpp ****  * Copyright (c) 2013 Lucas Beyer
   5:examples/customstamps.cpp ****  *
   6:examples/customstamps.cpp ****  * Permission is hereby granted, free of charge, to any person obtaining a copy of
   7:examples/customstamps.cpp ****  * this software and associated documentation files (the "Software"), to deal in
   8:examples/customstamps.cpp ****  * the Software without restriction, including without limitation the rights to
   9:examples/customstamps.cpp ****  * use, copy, modify, merge, publish, distribute, sublicense, and/or sell copies of
  10:examples/customstamps.cpp ****  * the Software, and to permit persons to whom the Software is furnished to do so,
  11:examples/customstamps.cpp ****  * subject to the following conditions:
  12:examples/customstamps.cpp ****  *
  13:examples/customstamps.cpp ****  * The above copyright notice and this permission notice shall be included in all
  14:examples/customstamps.cpp ****  * copies or substantial portions of the Software.
  15:examples/customstamps.cpp ****  *
  16:examples/customstamps.cpp ****  * THE SOFTWARE IS PROVIDED "AS IS", WITHOUT WARRANTY OF ANY KIND, EXPRESS OR
  17:examples/customstamps.cpp ****  * IMPLIED, INCLUDING BUT NOT LIMITED TO THE WARRANTIES OF MERCHANTABILITY, FITNESS
  18:examples/customstamps.cpp ****  * FOR A PARTICULAR PURPOSE AND NONINFRINGEMENT. IN NO EVENT SHALL THE AUTHORS OR
  19:examples/customstamps.cpp ****  * COPYRIGHT HOLDERS BE LIABLE FOR ANY CLAIM, DAMAGES OR OTHER LIABILITY, WHETHER
  20:examples/customstamps.cpp ****  * IN AN ACTION OF CONTRACT, TORT OR OTHERWISE, ARISING FROM, OUT OF OR IN
  21:examples/customstamps.cpp ****  * CONNECTION WITH THE SOFTWARE OR THE USE OR OTHER DEALINGS IN THE SOFTWARE.
  22:examples/customstamps.cpp ****  */
  23:examples/customstamps.cpp **** 
  24:examples/customstamps.cpp **** #include <iostream>
  25:examples/customstamps.cpp **** #include <cmath>
  26:examples/customstamps.cpp **** 
  27:examples/customstamps.cpp **** #include "lodepng.h"
  28:examples/customstamps.cpp **** #include "heatmap.h"
  29:examples/customstamps.cpp **** #include "colorschemes/gray.h"
  30:examples/customstamps.cpp **** 
  31:examples/customstamps.cpp **** int main(int argc, char* argv[])
  32:examples/customstamps.cpp **** {
  33:examples/customstamps.cpp ****     if(argc != 2) {
  34:examples/customstamps.cpp ****         std::cerr << "Invalid number of arguments!" << std::endl;
  35:examples/customstamps.cpp ****         std::cout << "Usage:" << std::endl;
  36:examples/customstamps.cpp ****         std::cout << "  " << argv[0] << " RADIUS" << std::endl;
  37:examples/customstamps.cpp ****         std::cout << std::endl;
  38:examples/customstamps.cpp ****         std::cout << "  Will generate some stamps of given RADIUS and render" << std::endl;
  39:examples/customstamps.cpp ****         std::cout << "  them next to eachother into `stamps.png`." << std::endl;
GAS LISTING /tmp/ccJkRw2J.s 			page 2


  40:examples/customstamps.cpp **** 
  41:examples/customstamps.cpp ****         return 1;
  42:examples/customstamps.cpp ****     }
  43:examples/customstamps.cpp **** 
  44:examples/customstamps.cpp ****     const size_t r = atoi(argv[1]), d = 2*r+1, w = 5*d, h = d;
  45:examples/customstamps.cpp ****     heatmap_t* hm = heatmap_new(w, h);
  46:examples/customstamps.cpp **** 
  47:examples/customstamps.cpp ****     auto s_def = heatmap_stamp_gen(r);
  48:examples/customstamps.cpp ****     auto s_fat = heatmap_stamp_gen_nonlinear(r, [](float d){return d*d;});
  18              		.loc 1 49 0
  19              		.cfi_startproc
  20              	.LVL0:
  21              	.LBB557:
  22              	.LBB558:
  23              		.loc 1 49 0
  24 0000 F30F59C0 		mulss	%xmm0, %xmm0
  25              	.LVL1:
  26              	.LBE558:
  27              	.LBE557:
  28 0004 C3       		ret
  29              		.cfi_endproc
  30              	.LFE1875:
  31              		.size	_ZZ4mainENUlfE_4_FUNEf, .-_ZZ4mainENUlfE_4_FUNEf
  32              		.section	.text.unlikely
  33              	.LCOLDE0:
  34              		.text
  35              	.LHOTE0:
  36              		.section	.text.unlikely
  37              		.align 2
  38              	.LCOLDB1:
  39              		.text
  40              	.LHOTB1:
  41 0005 90       		.align 2
  42 0006 662E0F1F 		.p2align 4,,15
  42      84000000 
  42      0000
  43              		.type	_ZZ4mainENUlfE0_4_FUNEf, @function
  44              	_ZZ4mainENUlfE0_4_FUNEf:
  45              	.LFB1878:
  49:examples/customstamps.cpp ****     auto s_FAT = heatmap_stamp_gen_nonlinear(r, [](float d){return d*d*d*d;});
  46              		.loc 1 50 0
  47              		.cfi_startproc
  48              	.LVL2:
  49              	.LBB559:
  50              	.LBB560:
  51              		.loc 1 50 0
  52 0010 0F28C8   		movaps	%xmm0, %xmm1
  53 0013 F30F59C8 		mulss	%xmm0, %xmm1
  54 0017 F30F59C8 		mulss	%xmm0, %xmm1
  55 001b F30F59C1 		mulss	%xmm1, %xmm0
  56              	.LVL3:
  57              	.LBE560:
  58              	.LBE559:
  59 001f C3       		ret
  60              		.cfi_endproc
  61              	.LFE1878:
  62              		.size	_ZZ4mainENUlfE0_4_FUNEf, .-_ZZ4mainENUlfE0_4_FUNEf
GAS LISTING /tmp/ccJkRw2J.s 			page 3


  63              		.section	.text.unlikely
  64              	.LCOLDE1:
  65              		.text
  66              	.LHOTE1:
  67              		.section	.text.unlikely
  68              		.align 2
  69              	.LCOLDB2:
  70              		.text
  71              	.LHOTB2:
  72              		.align 2
  73              		.p2align 4,,15
  74              		.type	_ZZ4mainENUlfE2_4_FUNEf, @function
  75              	_ZZ4mainENUlfE2_4_FUNEf:
  76              	.LFB1884:
  50:examples/customstamps.cpp ****     auto s_pty = heatmap_stamp_gen_nonlinear(r, [](float d){return sqrtf(d);});
  51:examples/customstamps.cpp ****     auto s_PTY = heatmap_stamp_gen_nonlinear(r, [](float d){return sqrtf(sqrtf(sqrtf(d)));});
  77              		.loc 1 52 0
  78              		.cfi_startproc
  79              	.LVL4:
  80 0020 4883EC08 		subq	$8, %rsp
  81              		.cfi_def_cfa_offset 16
  82              	.LBB561:
  83              	.LBB562:
  84              		.loc 1 52 0
  85 0024 F30F51D0 		sqrtss	%xmm0, %xmm2
  86 0028 0F2ED2   		ucomiss	%xmm2, %xmm2
  87 002b 7A17     		jp	.L12
  88              	.LVL5:
  89              	.L4:
  90 002d F30F51CA 		sqrtss	%xmm2, %xmm1
  91 0031 0F2EC9   		ucomiss	%xmm1, %xmm1
  92 0034 7A22     		jp	.L13
  93              	.L6:
  94 0036 F30F51C1 		sqrtss	%xmm1, %xmm0
  95 003a 0F2EC0   		ucomiss	%xmm0, %xmm0
  96 003d 7A0F     		jp	.L14
  97              	.L8:
  98              	.LBE562:
  99              	.LBE561:
 100 003f 4883C408 		addq	$8, %rsp
 101              		.cfi_remember_state
 102              		.cfi_def_cfa_offset 8
 103 0043 C3       		ret
 104              	.LVL6:
 105              	.L12:
 106              		.cfi_restore_state
 107              	.LBB564:
 108              	.LBB563:
 109 0044 E8000000 		call	sqrtf@PLT
 109      00
 110              	.LVL7:
 111 0049 0F28D0   		movaps	%xmm0, %xmm2
 112 004c EBDF     		jmp	.L4
 113              	.L14:
 114 004e 0F28C1   		movaps	%xmm1, %xmm0
 115 0051 E8000000 		call	sqrtf@PLT
 115      00
GAS LISTING /tmp/ccJkRw2J.s 			page 4


 116              	.LVL8:
 117 0056 EBE7     		jmp	.L8
 118              	.L13:
 119 0058 0F28C2   		movaps	%xmm2, %xmm0
 120 005b E8000000 		call	sqrtf@PLT
 120      00
 121              	.LVL9:
 122 0060 0F28C8   		movaps	%xmm0, %xmm1
 123 0063 EBD1     		jmp	.L6
 124              	.LBE563:
 125              	.LBE564:
 126              		.cfi_endproc
 127              	.LFE1884:
 128              		.size	_ZZ4mainENUlfE2_4_FUNEf, .-_ZZ4mainENUlfE2_4_FUNEf
 129              		.section	.text.unlikely
 130              	.LCOLDE2:
 131              		.text
 132              	.LHOTE2:
 133              		.section	.text.unlikely
 134              		.align 2
 135              	.LCOLDB3:
 136              		.text
 137              	.LHOTB3:
 138 0065 90       		.align 2
 139 0066 662E0F1F 		.p2align 4,,15
 139      84000000 
 139      0000
 140              		.type	_ZZ4mainENUlfE1_4_FUNEf, @function
 141              	_ZZ4mainENUlfE1_4_FUNEf:
 142              	.LFB1881:
  51:examples/customstamps.cpp ****     auto s_PTY = heatmap_stamp_gen_nonlinear(r, [](float d){return sqrtf(sqrtf(sqrtf(d)));});
 143              		.loc 1 51 0
 144              		.cfi_startproc
 145              	.LVL10:
 146              	.LBB565:
 147              	.LBB566:
 148 0070 F30F51C8 		sqrtss	%xmm0, %xmm1
 149 0074 0F2EC9   		ucomiss	%xmm1, %xmm1
 150 0077 7A04     		jp	.L20
 151              	.LBE566:
 152              	.LBE565:
 153 0079 0F28C1   		movaps	%xmm1, %xmm0
 154              	.LVL11:
 155 007c C3       		ret
 156              	.LVL12:
 157              	.L20:
 158 007d 4883EC08 		subq	$8, %rsp
 159              		.cfi_def_cfa_offset 16
 160              	.LBB568:
 161              	.LBB567:
  51:examples/customstamps.cpp ****     auto s_PTY = heatmap_stamp_gen_nonlinear(r, [](float d){return sqrtf(sqrtf(sqrtf(d)));});
 162              		.loc 1 51 0
 163 0081 E8000000 		call	sqrtf@PLT
 163      00
 164              	.LVL13:
 165              	.LBE567:
 166              	.LBE568:
GAS LISTING /tmp/ccJkRw2J.s 			page 5


 167 0086 4883C408 		addq	$8, %rsp
 168              		.cfi_def_cfa_offset 8
 169 008a C3       		ret
 170              		.cfi_endproc
 171              	.LFE1881:
 172              		.size	_ZZ4mainENUlfE1_4_FUNEf, .-_ZZ4mainENUlfE1_4_FUNEf
 173              		.section	.text.unlikely
 174              	.LCOLDE3:
 175              		.text
 176              	.LHOTE3:
 177              		.section	.text.unlikely
 178              		.align 2
 179              	.LCOLDB4:
 180              		.text
 181              	.LHOTB4:
 182 008b 90       		.align 2
 183 008c 0F1F4000 		.p2align 4,,15
 184              		.type	_ZNSs4_Rep10_M_disposeERKSaIcE.part.9, @function
 185              	_ZNSs4_Rep10_M_disposeERKSaIcE.part.9:
 186              	.LFB2114:
 187              		.file 2 "/opt/gcc/4.9.2/include/c++/4.9.2/bits/basic_string.h"
   0:/opt/gcc/4.9.2/include/c++/4.9.2/bits/basic_string.h **** // Components for manipulating sequences of characters -*- C++ -*-
   1:/opt/gcc/4.9.2/include/c++/4.9.2/bits/basic_string.h **** 
   2:/opt/gcc/4.9.2/include/c++/4.9.2/bits/basic_string.h **** // Copyright (C) 1997-2014 Free Software Foundation, Inc.
   3:/opt/gcc/4.9.2/include/c++/4.9.2/bits/basic_string.h **** //
   4:/opt/gcc/4.9.2/include/c++/4.9.2/bits/basic_string.h **** // This file is part of the GNU ISO C++ Library.  This library is free
   5:/opt/gcc/4.9.2/include/c++/4.9.2/bits/basic_string.h **** // software; you can redistribute it and/or modify it under the
   6:/opt/gcc/4.9.2/include/c++/4.9.2/bits/basic_string.h **** // terms of the GNU General Public License as published by the
   7:/opt/gcc/4.9.2/include/c++/4.9.2/bits/basic_string.h **** // Free Software Foundation; either version 3, or (at your option)
   8:/opt/gcc/4.9.2/include/c++/4.9.2/bits/basic_string.h **** // any later version.
   9:/opt/gcc/4.9.2/include/c++/4.9.2/bits/basic_string.h **** 
  10:/opt/gcc/4.9.2/include/c++/4.9.2/bits/basic_string.h **** // This library is distributed in the hope that it will be useful,
  11:/opt/gcc/4.9.2/include/c++/4.9.2/bits/basic_string.h **** // but WITHOUT ANY WARRANTY; without even the implied warranty of
  12:/opt/gcc/4.9.2/include/c++/4.9.2/bits/basic_string.h **** // MERCHANTABILITY or FITNESS FOR A PARTICULAR PURPOSE.  See the
  13:/opt/gcc/4.9.2/include/c++/4.9.2/bits/basic_string.h **** // GNU General Public License for more details.
  14:/opt/gcc/4.9.2/include/c++/4.9.2/bits/basic_string.h **** 
  15:/opt/gcc/4.9.2/include/c++/4.9.2/bits/basic_string.h **** // Under Section 7 of GPL version 3, you are granted additional
  16:/opt/gcc/4.9.2/include/c++/4.9.2/bits/basic_string.h **** // permissions described in the GCC Runtime Library Exception, version
  17:/opt/gcc/4.9.2/include/c++/4.9.2/bits/basic_string.h **** // 3.1, as published by the Free Software Foundation.
  18:/opt/gcc/4.9.2/include/c++/4.9.2/bits/basic_string.h **** 
  19:/opt/gcc/4.9.2/include/c++/4.9.2/bits/basic_string.h **** // You should have received a copy of the GNU General Public License and
  20:/opt/gcc/4.9.2/include/c++/4.9.2/bits/basic_string.h **** // a copy of the GCC Runtime Library Exception along with this program;
  21:/opt/gcc/4.9.2/include/c++/4.9.2/bits/basic_string.h **** // see the files COPYING3 and COPYING.RUNTIME respectively.  If not, see
  22:/opt/gcc/4.9.2/include/c++/4.9.2/bits/basic_string.h **** // <http://www.gnu.org/licenses/>.
  23:/opt/gcc/4.9.2/include/c++/4.9.2/bits/basic_string.h **** 
  24:/opt/gcc/4.9.2/include/c++/4.9.2/bits/basic_string.h **** /** @file bits/basic_string.h
  25:/opt/gcc/4.9.2/include/c++/4.9.2/bits/basic_string.h ****  *  This is an internal header file, included by other library headers.
  26:/opt/gcc/4.9.2/include/c++/4.9.2/bits/basic_string.h ****  *  Do not attempt to use it directly. @headername{string}
  27:/opt/gcc/4.9.2/include/c++/4.9.2/bits/basic_string.h ****  */
  28:/opt/gcc/4.9.2/include/c++/4.9.2/bits/basic_string.h **** 
  29:/opt/gcc/4.9.2/include/c++/4.9.2/bits/basic_string.h **** //
  30:/opt/gcc/4.9.2/include/c++/4.9.2/bits/basic_string.h **** // ISO C++ 14882: 21 Strings library
  31:/opt/gcc/4.9.2/include/c++/4.9.2/bits/basic_string.h **** //
  32:/opt/gcc/4.9.2/include/c++/4.9.2/bits/basic_string.h **** 
  33:/opt/gcc/4.9.2/include/c++/4.9.2/bits/basic_string.h **** #ifndef _BASIC_STRING_H
  34:/opt/gcc/4.9.2/include/c++/4.9.2/bits/basic_string.h **** #define _BASIC_STRING_H 1
  35:/opt/gcc/4.9.2/include/c++/4.9.2/bits/basic_string.h **** 
GAS LISTING /tmp/ccJkRw2J.s 			page 6


  36:/opt/gcc/4.9.2/include/c++/4.9.2/bits/basic_string.h **** #pragma GCC system_header
  37:/opt/gcc/4.9.2/include/c++/4.9.2/bits/basic_string.h **** 
  38:/opt/gcc/4.9.2/include/c++/4.9.2/bits/basic_string.h **** #include <ext/atomicity.h>
  39:/opt/gcc/4.9.2/include/c++/4.9.2/bits/basic_string.h **** #include <debug/debug.h>
  40:/opt/gcc/4.9.2/include/c++/4.9.2/bits/basic_string.h **** #if __cplusplus >= 201103L
  41:/opt/gcc/4.9.2/include/c++/4.9.2/bits/basic_string.h **** #include <initializer_list>
  42:/opt/gcc/4.9.2/include/c++/4.9.2/bits/basic_string.h **** #endif
  43:/opt/gcc/4.9.2/include/c++/4.9.2/bits/basic_string.h **** 
  44:/opt/gcc/4.9.2/include/c++/4.9.2/bits/basic_string.h **** namespace std _GLIBCXX_VISIBILITY(default)
  45:/opt/gcc/4.9.2/include/c++/4.9.2/bits/basic_string.h **** {
  46:/opt/gcc/4.9.2/include/c++/4.9.2/bits/basic_string.h **** _GLIBCXX_BEGIN_NAMESPACE_VERSION
  47:/opt/gcc/4.9.2/include/c++/4.9.2/bits/basic_string.h **** 
  48:/opt/gcc/4.9.2/include/c++/4.9.2/bits/basic_string.h ****   /**
  49:/opt/gcc/4.9.2/include/c++/4.9.2/bits/basic_string.h ****    *  @class basic_string basic_string.h <string>
  50:/opt/gcc/4.9.2/include/c++/4.9.2/bits/basic_string.h ****    *  @brief  Managing sequences of characters and character-like objects.
  51:/opt/gcc/4.9.2/include/c++/4.9.2/bits/basic_string.h ****    *
  52:/opt/gcc/4.9.2/include/c++/4.9.2/bits/basic_string.h ****    *  @ingroup strings
  53:/opt/gcc/4.9.2/include/c++/4.9.2/bits/basic_string.h ****    *  @ingroup sequences
  54:/opt/gcc/4.9.2/include/c++/4.9.2/bits/basic_string.h ****    *
  55:/opt/gcc/4.9.2/include/c++/4.9.2/bits/basic_string.h ****    *  @tparam _CharT  Type of character
  56:/opt/gcc/4.9.2/include/c++/4.9.2/bits/basic_string.h ****    *  @tparam _Traits  Traits for character type, defaults to
  57:/opt/gcc/4.9.2/include/c++/4.9.2/bits/basic_string.h ****    *                   char_traits<_CharT>.
  58:/opt/gcc/4.9.2/include/c++/4.9.2/bits/basic_string.h ****    *  @tparam _Alloc  Allocator type, defaults to allocator<_CharT>.
  59:/opt/gcc/4.9.2/include/c++/4.9.2/bits/basic_string.h ****    *
  60:/opt/gcc/4.9.2/include/c++/4.9.2/bits/basic_string.h ****    *  Meets the requirements of a <a href="tables.html#65">container</a>, a
  61:/opt/gcc/4.9.2/include/c++/4.9.2/bits/basic_string.h ****    *  <a href="tables.html#66">reversible container</a>, and a
  62:/opt/gcc/4.9.2/include/c++/4.9.2/bits/basic_string.h ****    *  <a href="tables.html#67">sequence</a>.  Of the
  63:/opt/gcc/4.9.2/include/c++/4.9.2/bits/basic_string.h ****    *  <a href="tables.html#68">optional sequence requirements</a>, only
  64:/opt/gcc/4.9.2/include/c++/4.9.2/bits/basic_string.h ****    *  @c push_back, @c at, and @c %array access are supported.
  65:/opt/gcc/4.9.2/include/c++/4.9.2/bits/basic_string.h ****    *
  66:/opt/gcc/4.9.2/include/c++/4.9.2/bits/basic_string.h ****    *  @doctodo
  67:/opt/gcc/4.9.2/include/c++/4.9.2/bits/basic_string.h ****    *
  68:/opt/gcc/4.9.2/include/c++/4.9.2/bits/basic_string.h ****    *
  69:/opt/gcc/4.9.2/include/c++/4.9.2/bits/basic_string.h ****    *  Documentation?  What's that?
  70:/opt/gcc/4.9.2/include/c++/4.9.2/bits/basic_string.h ****    *  Nathan Myers <ncm@cantrip.org>.
  71:/opt/gcc/4.9.2/include/c++/4.9.2/bits/basic_string.h ****    *
  72:/opt/gcc/4.9.2/include/c++/4.9.2/bits/basic_string.h ****    *  A string looks like this:
  73:/opt/gcc/4.9.2/include/c++/4.9.2/bits/basic_string.h ****    *
  74:/opt/gcc/4.9.2/include/c++/4.9.2/bits/basic_string.h ****    *  @code
  75:/opt/gcc/4.9.2/include/c++/4.9.2/bits/basic_string.h ****    *                                        [_Rep]
  76:/opt/gcc/4.9.2/include/c++/4.9.2/bits/basic_string.h ****    *                                        _M_length
  77:/opt/gcc/4.9.2/include/c++/4.9.2/bits/basic_string.h ****    *   [basic_string<char_type>]            _M_capacity
  78:/opt/gcc/4.9.2/include/c++/4.9.2/bits/basic_string.h ****    *   _M_dataplus                          _M_refcount
  79:/opt/gcc/4.9.2/include/c++/4.9.2/bits/basic_string.h ****    *   _M_p ---------------->               unnamed array of char_type
  80:/opt/gcc/4.9.2/include/c++/4.9.2/bits/basic_string.h ****    *  @endcode
  81:/opt/gcc/4.9.2/include/c++/4.9.2/bits/basic_string.h ****    *
  82:/opt/gcc/4.9.2/include/c++/4.9.2/bits/basic_string.h ****    *  Where the _M_p points to the first character in the string, and
  83:/opt/gcc/4.9.2/include/c++/4.9.2/bits/basic_string.h ****    *  you cast it to a pointer-to-_Rep and subtract 1 to get a
  84:/opt/gcc/4.9.2/include/c++/4.9.2/bits/basic_string.h ****    *  pointer to the header.
  85:/opt/gcc/4.9.2/include/c++/4.9.2/bits/basic_string.h ****    *
  86:/opt/gcc/4.9.2/include/c++/4.9.2/bits/basic_string.h ****    *  This approach has the enormous advantage that a string object
  87:/opt/gcc/4.9.2/include/c++/4.9.2/bits/basic_string.h ****    *  requires only one allocation.  All the ugliness is confined
  88:/opt/gcc/4.9.2/include/c++/4.9.2/bits/basic_string.h ****    *  within a single %pair of inline functions, which each compile to
  89:/opt/gcc/4.9.2/include/c++/4.9.2/bits/basic_string.h ****    *  a single @a add instruction: _Rep::_M_data(), and
  90:/opt/gcc/4.9.2/include/c++/4.9.2/bits/basic_string.h ****    *  string::_M_rep(); and the allocation function which gets a
  91:/opt/gcc/4.9.2/include/c++/4.9.2/bits/basic_string.h ****    *  block of raw bytes and with room enough and constructs a _Rep
  92:/opt/gcc/4.9.2/include/c++/4.9.2/bits/basic_string.h ****    *  object at the front.
GAS LISTING /tmp/ccJkRw2J.s 			page 7


  93:/opt/gcc/4.9.2/include/c++/4.9.2/bits/basic_string.h ****    *
  94:/opt/gcc/4.9.2/include/c++/4.9.2/bits/basic_string.h ****    *  The reason you want _M_data pointing to the character %array and
  95:/opt/gcc/4.9.2/include/c++/4.9.2/bits/basic_string.h ****    *  not the _Rep is so that the debugger can see the string
  96:/opt/gcc/4.9.2/include/c++/4.9.2/bits/basic_string.h ****    *  contents. (Probably we should add a non-inline member to get
  97:/opt/gcc/4.9.2/include/c++/4.9.2/bits/basic_string.h ****    *  the _Rep for the debugger to use, so users can check the actual
  98:/opt/gcc/4.9.2/include/c++/4.9.2/bits/basic_string.h ****    *  string length.)
  99:/opt/gcc/4.9.2/include/c++/4.9.2/bits/basic_string.h ****    *
 100:/opt/gcc/4.9.2/include/c++/4.9.2/bits/basic_string.h ****    *  Note that the _Rep object is a POD so that you can have a
 101:/opt/gcc/4.9.2/include/c++/4.9.2/bits/basic_string.h ****    *  static <em>empty string</em> _Rep object already @a constructed before
 102:/opt/gcc/4.9.2/include/c++/4.9.2/bits/basic_string.h ****    *  static constructors have run.  The reference-count encoding is
 103:/opt/gcc/4.9.2/include/c++/4.9.2/bits/basic_string.h ****    *  chosen so that a 0 indicates one reference, so you never try to
 104:/opt/gcc/4.9.2/include/c++/4.9.2/bits/basic_string.h ****    *  destroy the empty-string _Rep object.
 105:/opt/gcc/4.9.2/include/c++/4.9.2/bits/basic_string.h ****    *
 106:/opt/gcc/4.9.2/include/c++/4.9.2/bits/basic_string.h ****    *  All but the last paragraph is considered pretty conventional
 107:/opt/gcc/4.9.2/include/c++/4.9.2/bits/basic_string.h ****    *  for a C++ string implementation.
 108:/opt/gcc/4.9.2/include/c++/4.9.2/bits/basic_string.h ****   */
 109:/opt/gcc/4.9.2/include/c++/4.9.2/bits/basic_string.h ****   // 21.3  Template class basic_string
 110:/opt/gcc/4.9.2/include/c++/4.9.2/bits/basic_string.h ****   template<typename _CharT, typename _Traits, typename _Alloc>
 111:/opt/gcc/4.9.2/include/c++/4.9.2/bits/basic_string.h ****     class basic_string
 112:/opt/gcc/4.9.2/include/c++/4.9.2/bits/basic_string.h ****     {
 113:/opt/gcc/4.9.2/include/c++/4.9.2/bits/basic_string.h ****       typedef typename _Alloc::template rebind<_CharT>::other _CharT_alloc_type;
 114:/opt/gcc/4.9.2/include/c++/4.9.2/bits/basic_string.h **** 
 115:/opt/gcc/4.9.2/include/c++/4.9.2/bits/basic_string.h ****       // Types:
 116:/opt/gcc/4.9.2/include/c++/4.9.2/bits/basic_string.h ****     public:
 117:/opt/gcc/4.9.2/include/c++/4.9.2/bits/basic_string.h ****       typedef _Traits					    traits_type;
 118:/opt/gcc/4.9.2/include/c++/4.9.2/bits/basic_string.h ****       typedef typename _Traits::char_type		    value_type;
 119:/opt/gcc/4.9.2/include/c++/4.9.2/bits/basic_string.h ****       typedef _Alloc					    allocator_type;
 120:/opt/gcc/4.9.2/include/c++/4.9.2/bits/basic_string.h ****       typedef typename _CharT_alloc_type::size_type	    size_type;
 121:/opt/gcc/4.9.2/include/c++/4.9.2/bits/basic_string.h ****       typedef typename _CharT_alloc_type::difference_type   difference_type;
 122:/opt/gcc/4.9.2/include/c++/4.9.2/bits/basic_string.h ****       typedef typename _CharT_alloc_type::reference	    reference;
 123:/opt/gcc/4.9.2/include/c++/4.9.2/bits/basic_string.h ****       typedef typename _CharT_alloc_type::const_reference   const_reference;
 124:/opt/gcc/4.9.2/include/c++/4.9.2/bits/basic_string.h ****       typedef typename _CharT_alloc_type::pointer	    pointer;
 125:/opt/gcc/4.9.2/include/c++/4.9.2/bits/basic_string.h ****       typedef typename _CharT_alloc_type::const_pointer	    const_pointer;
 126:/opt/gcc/4.9.2/include/c++/4.9.2/bits/basic_string.h ****       typedef __gnu_cxx::__normal_iterator<pointer, basic_string>  iterator;
 127:/opt/gcc/4.9.2/include/c++/4.9.2/bits/basic_string.h ****       typedef __gnu_cxx::__normal_iterator<const_pointer, basic_string>
 128:/opt/gcc/4.9.2/include/c++/4.9.2/bits/basic_string.h ****                                                             const_iterator;
 129:/opt/gcc/4.9.2/include/c++/4.9.2/bits/basic_string.h ****       typedef std::reverse_iterator<const_iterator>	const_reverse_iterator;
 130:/opt/gcc/4.9.2/include/c++/4.9.2/bits/basic_string.h ****       typedef std::reverse_iterator<iterator>		    reverse_iterator;
 131:/opt/gcc/4.9.2/include/c++/4.9.2/bits/basic_string.h **** 
 132:/opt/gcc/4.9.2/include/c++/4.9.2/bits/basic_string.h ****     private:
 133:/opt/gcc/4.9.2/include/c++/4.9.2/bits/basic_string.h ****       // _Rep: string representation
 134:/opt/gcc/4.9.2/include/c++/4.9.2/bits/basic_string.h ****       //   Invariants:
 135:/opt/gcc/4.9.2/include/c++/4.9.2/bits/basic_string.h ****       //   1. String really contains _M_length + 1 characters: due to 21.3.4
 136:/opt/gcc/4.9.2/include/c++/4.9.2/bits/basic_string.h ****       //      must be kept null-terminated.
 137:/opt/gcc/4.9.2/include/c++/4.9.2/bits/basic_string.h ****       //   2. _M_capacity >= _M_length
 138:/opt/gcc/4.9.2/include/c++/4.9.2/bits/basic_string.h ****       //      Allocated memory is always (_M_capacity + 1) * sizeof(_CharT).
 139:/opt/gcc/4.9.2/include/c++/4.9.2/bits/basic_string.h ****       //   3. _M_refcount has three states:
 140:/opt/gcc/4.9.2/include/c++/4.9.2/bits/basic_string.h ****       //      -1: leaked, one reference, no ref-copies allowed, non-const.
 141:/opt/gcc/4.9.2/include/c++/4.9.2/bits/basic_string.h ****       //       0: one reference, non-const.
 142:/opt/gcc/4.9.2/include/c++/4.9.2/bits/basic_string.h ****       //     n>0: n + 1 references, operations require a lock, const.
 143:/opt/gcc/4.9.2/include/c++/4.9.2/bits/basic_string.h ****       //   4. All fields==0 is an empty string, given the extra storage
 144:/opt/gcc/4.9.2/include/c++/4.9.2/bits/basic_string.h ****       //      beyond-the-end for a null terminator; thus, the shared
 145:/opt/gcc/4.9.2/include/c++/4.9.2/bits/basic_string.h ****       //      empty string representation needs no constructor.
 146:/opt/gcc/4.9.2/include/c++/4.9.2/bits/basic_string.h **** 
 147:/opt/gcc/4.9.2/include/c++/4.9.2/bits/basic_string.h ****       struct _Rep_base
 148:/opt/gcc/4.9.2/include/c++/4.9.2/bits/basic_string.h ****       {
 149:/opt/gcc/4.9.2/include/c++/4.9.2/bits/basic_string.h **** 	size_type		_M_length;
GAS LISTING /tmp/ccJkRw2J.s 			page 8


 150:/opt/gcc/4.9.2/include/c++/4.9.2/bits/basic_string.h **** 	size_type		_M_capacity;
 151:/opt/gcc/4.9.2/include/c++/4.9.2/bits/basic_string.h **** 	_Atomic_word		_M_refcount;
 152:/opt/gcc/4.9.2/include/c++/4.9.2/bits/basic_string.h ****       };
 153:/opt/gcc/4.9.2/include/c++/4.9.2/bits/basic_string.h **** 
 154:/opt/gcc/4.9.2/include/c++/4.9.2/bits/basic_string.h ****       struct _Rep : _Rep_base
 155:/opt/gcc/4.9.2/include/c++/4.9.2/bits/basic_string.h ****       {
 156:/opt/gcc/4.9.2/include/c++/4.9.2/bits/basic_string.h **** 	// Types:
 157:/opt/gcc/4.9.2/include/c++/4.9.2/bits/basic_string.h **** 	typedef typename _Alloc::template rebind<char>::other _Raw_bytes_alloc;
 158:/opt/gcc/4.9.2/include/c++/4.9.2/bits/basic_string.h **** 
 159:/opt/gcc/4.9.2/include/c++/4.9.2/bits/basic_string.h **** 	// (Public) Data members:
 160:/opt/gcc/4.9.2/include/c++/4.9.2/bits/basic_string.h **** 
 161:/opt/gcc/4.9.2/include/c++/4.9.2/bits/basic_string.h **** 	// The maximum number of individual char_type elements of an
 162:/opt/gcc/4.9.2/include/c++/4.9.2/bits/basic_string.h **** 	// individual string is determined by _S_max_size. This is the
 163:/opt/gcc/4.9.2/include/c++/4.9.2/bits/basic_string.h **** 	// value that will be returned by max_size().  (Whereas npos
 164:/opt/gcc/4.9.2/include/c++/4.9.2/bits/basic_string.h **** 	// is the maximum number of bytes the allocator can allocate.)
 165:/opt/gcc/4.9.2/include/c++/4.9.2/bits/basic_string.h **** 	// If one was to divvy up the theoretical largest size string,
 166:/opt/gcc/4.9.2/include/c++/4.9.2/bits/basic_string.h **** 	// with a terminating character and m _CharT elements, it'd
 167:/opt/gcc/4.9.2/include/c++/4.9.2/bits/basic_string.h **** 	// look like this:
 168:/opt/gcc/4.9.2/include/c++/4.9.2/bits/basic_string.h **** 	// npos = sizeof(_Rep) + (m * sizeof(_CharT)) + sizeof(_CharT)
 169:/opt/gcc/4.9.2/include/c++/4.9.2/bits/basic_string.h **** 	// Solving for m:
 170:/opt/gcc/4.9.2/include/c++/4.9.2/bits/basic_string.h **** 	// m = ((npos - sizeof(_Rep))/sizeof(CharT)) - 1
 171:/opt/gcc/4.9.2/include/c++/4.9.2/bits/basic_string.h **** 	// In addition, this implementation quarters this amount.
 172:/opt/gcc/4.9.2/include/c++/4.9.2/bits/basic_string.h **** 	static const size_type	_S_max_size;
 173:/opt/gcc/4.9.2/include/c++/4.9.2/bits/basic_string.h **** 	static const _CharT	_S_terminal;
 174:/opt/gcc/4.9.2/include/c++/4.9.2/bits/basic_string.h **** 
 175:/opt/gcc/4.9.2/include/c++/4.9.2/bits/basic_string.h **** 	// The following storage is init'd to 0 by the linker, resulting
 176:/opt/gcc/4.9.2/include/c++/4.9.2/bits/basic_string.h ****         // (carefully) in an empty string with one reference.
 177:/opt/gcc/4.9.2/include/c++/4.9.2/bits/basic_string.h ****         static size_type _S_empty_rep_storage[];
 178:/opt/gcc/4.9.2/include/c++/4.9.2/bits/basic_string.h **** 
 179:/opt/gcc/4.9.2/include/c++/4.9.2/bits/basic_string.h ****         static _Rep&
 180:/opt/gcc/4.9.2/include/c++/4.9.2/bits/basic_string.h ****         _S_empty_rep() _GLIBCXX_NOEXCEPT
 181:/opt/gcc/4.9.2/include/c++/4.9.2/bits/basic_string.h ****         { 
 182:/opt/gcc/4.9.2/include/c++/4.9.2/bits/basic_string.h **** 	  // NB: Mild hack to avoid strict-aliasing warnings.  Note that
 183:/opt/gcc/4.9.2/include/c++/4.9.2/bits/basic_string.h **** 	  // _S_empty_rep_storage is never modified and the punning should
 184:/opt/gcc/4.9.2/include/c++/4.9.2/bits/basic_string.h **** 	  // be reasonably safe in this case.
 185:/opt/gcc/4.9.2/include/c++/4.9.2/bits/basic_string.h **** 	  void* __p = reinterpret_cast<void*>(&_S_empty_rep_storage);
 186:/opt/gcc/4.9.2/include/c++/4.9.2/bits/basic_string.h **** 	  return *reinterpret_cast<_Rep*>(__p);
 187:/opt/gcc/4.9.2/include/c++/4.9.2/bits/basic_string.h **** 	}
 188:/opt/gcc/4.9.2/include/c++/4.9.2/bits/basic_string.h **** 
 189:/opt/gcc/4.9.2/include/c++/4.9.2/bits/basic_string.h ****         bool
 190:/opt/gcc/4.9.2/include/c++/4.9.2/bits/basic_string.h **** 	_M_is_leaked() const _GLIBCXX_NOEXCEPT
 191:/opt/gcc/4.9.2/include/c++/4.9.2/bits/basic_string.h ****         { return this->_M_refcount < 0; }
 192:/opt/gcc/4.9.2/include/c++/4.9.2/bits/basic_string.h **** 
 193:/opt/gcc/4.9.2/include/c++/4.9.2/bits/basic_string.h ****         bool
 194:/opt/gcc/4.9.2/include/c++/4.9.2/bits/basic_string.h **** 	_M_is_shared() const _GLIBCXX_NOEXCEPT
 195:/opt/gcc/4.9.2/include/c++/4.9.2/bits/basic_string.h ****         { return this->_M_refcount > 0; }
 196:/opt/gcc/4.9.2/include/c++/4.9.2/bits/basic_string.h **** 
 197:/opt/gcc/4.9.2/include/c++/4.9.2/bits/basic_string.h ****         void
 198:/opt/gcc/4.9.2/include/c++/4.9.2/bits/basic_string.h **** 	_M_set_leaked() _GLIBCXX_NOEXCEPT
 199:/opt/gcc/4.9.2/include/c++/4.9.2/bits/basic_string.h ****         { this->_M_refcount = -1; }
 200:/opt/gcc/4.9.2/include/c++/4.9.2/bits/basic_string.h **** 
 201:/opt/gcc/4.9.2/include/c++/4.9.2/bits/basic_string.h ****         void
 202:/opt/gcc/4.9.2/include/c++/4.9.2/bits/basic_string.h **** 	_M_set_sharable() _GLIBCXX_NOEXCEPT
 203:/opt/gcc/4.9.2/include/c++/4.9.2/bits/basic_string.h ****         { this->_M_refcount = 0; }
 204:/opt/gcc/4.9.2/include/c++/4.9.2/bits/basic_string.h **** 
 205:/opt/gcc/4.9.2/include/c++/4.9.2/bits/basic_string.h **** 	void
 206:/opt/gcc/4.9.2/include/c++/4.9.2/bits/basic_string.h **** 	_M_set_length_and_sharable(size_type __n) _GLIBCXX_NOEXCEPT
GAS LISTING /tmp/ccJkRw2J.s 			page 9


 207:/opt/gcc/4.9.2/include/c++/4.9.2/bits/basic_string.h **** 	{
 208:/opt/gcc/4.9.2/include/c++/4.9.2/bits/basic_string.h **** #if _GLIBCXX_FULLY_DYNAMIC_STRING == 0
 209:/opt/gcc/4.9.2/include/c++/4.9.2/bits/basic_string.h **** 	  if (__builtin_expect(this != &_S_empty_rep(), false))
 210:/opt/gcc/4.9.2/include/c++/4.9.2/bits/basic_string.h **** #endif
 211:/opt/gcc/4.9.2/include/c++/4.9.2/bits/basic_string.h **** 	    {
 212:/opt/gcc/4.9.2/include/c++/4.9.2/bits/basic_string.h **** 	      this->_M_set_sharable();  // One reference.
 213:/opt/gcc/4.9.2/include/c++/4.9.2/bits/basic_string.h **** 	      this->_M_length = __n;
 214:/opt/gcc/4.9.2/include/c++/4.9.2/bits/basic_string.h **** 	      traits_type::assign(this->_M_refdata()[__n], _S_terminal);
 215:/opt/gcc/4.9.2/include/c++/4.9.2/bits/basic_string.h **** 	      // grrr. (per 21.3.4)
 216:/opt/gcc/4.9.2/include/c++/4.9.2/bits/basic_string.h **** 	      // You cannot leave those LWG people alone for a second.
 217:/opt/gcc/4.9.2/include/c++/4.9.2/bits/basic_string.h **** 	    }
 218:/opt/gcc/4.9.2/include/c++/4.9.2/bits/basic_string.h **** 	}
 219:/opt/gcc/4.9.2/include/c++/4.9.2/bits/basic_string.h **** 
 220:/opt/gcc/4.9.2/include/c++/4.9.2/bits/basic_string.h **** 	_CharT*
 221:/opt/gcc/4.9.2/include/c++/4.9.2/bits/basic_string.h **** 	_M_refdata() throw()
 222:/opt/gcc/4.9.2/include/c++/4.9.2/bits/basic_string.h **** 	{ return reinterpret_cast<_CharT*>(this + 1); }
 223:/opt/gcc/4.9.2/include/c++/4.9.2/bits/basic_string.h **** 
 224:/opt/gcc/4.9.2/include/c++/4.9.2/bits/basic_string.h **** 	_CharT*
 225:/opt/gcc/4.9.2/include/c++/4.9.2/bits/basic_string.h **** 	_M_grab(const _Alloc& __alloc1, const _Alloc& __alloc2)
 226:/opt/gcc/4.9.2/include/c++/4.9.2/bits/basic_string.h **** 	{
 227:/opt/gcc/4.9.2/include/c++/4.9.2/bits/basic_string.h **** 	  return (!_M_is_leaked() && __alloc1 == __alloc2)
 228:/opt/gcc/4.9.2/include/c++/4.9.2/bits/basic_string.h **** 	          ? _M_refcopy() : _M_clone(__alloc1);
 229:/opt/gcc/4.9.2/include/c++/4.9.2/bits/basic_string.h **** 	}
 230:/opt/gcc/4.9.2/include/c++/4.9.2/bits/basic_string.h **** 
 231:/opt/gcc/4.9.2/include/c++/4.9.2/bits/basic_string.h **** 	// Create & Destroy
 232:/opt/gcc/4.9.2/include/c++/4.9.2/bits/basic_string.h **** 	static _Rep*
 233:/opt/gcc/4.9.2/include/c++/4.9.2/bits/basic_string.h **** 	_S_create(size_type, size_type, const _Alloc&);
 234:/opt/gcc/4.9.2/include/c++/4.9.2/bits/basic_string.h **** 
 235:/opt/gcc/4.9.2/include/c++/4.9.2/bits/basic_string.h **** 	void
 236:/opt/gcc/4.9.2/include/c++/4.9.2/bits/basic_string.h **** 	_M_dispose(const _Alloc& __a) _GLIBCXX_NOEXCEPT
 188              		.loc 2 237 0
 189              		.cfi_startproc
 190              	.LVL14:
 191              	.LBB569:
 192              	.LBB570:
 193              		.file 3 "/opt/gcc/4.9.2/include/c++/4.9.2/ext/atomicity.h"
   0:/opt/gcc/4.9.2/include/c++/4.9.2/ext/atomicity.h **** // Support for atomic operations -*- C++ -*-
   1:/opt/gcc/4.9.2/include/c++/4.9.2/ext/atomicity.h **** 
   2:/opt/gcc/4.9.2/include/c++/4.9.2/ext/atomicity.h **** // Copyright (C) 2004-2014 Free Software Foundation, Inc.
   3:/opt/gcc/4.9.2/include/c++/4.9.2/ext/atomicity.h **** //
   4:/opt/gcc/4.9.2/include/c++/4.9.2/ext/atomicity.h **** // This file is part of the GNU ISO C++ Library.  This library is free
   5:/opt/gcc/4.9.2/include/c++/4.9.2/ext/atomicity.h **** // software; you can redistribute it and/or modify it under the
   6:/opt/gcc/4.9.2/include/c++/4.9.2/ext/atomicity.h **** // terms of the GNU General Public License as published by the
   7:/opt/gcc/4.9.2/include/c++/4.9.2/ext/atomicity.h **** // Free Software Foundation; either version 3, or (at your option)
   8:/opt/gcc/4.9.2/include/c++/4.9.2/ext/atomicity.h **** // any later version.
   9:/opt/gcc/4.9.2/include/c++/4.9.2/ext/atomicity.h **** 
  10:/opt/gcc/4.9.2/include/c++/4.9.2/ext/atomicity.h **** // This library is distributed in the hope that it will be useful,
  11:/opt/gcc/4.9.2/include/c++/4.9.2/ext/atomicity.h **** // but WITHOUT ANY WARRANTY; without even the implied warranty of
  12:/opt/gcc/4.9.2/include/c++/4.9.2/ext/atomicity.h **** // MERCHANTABILITY or FITNESS FOR A PARTICULAR PURPOSE.  See the
  13:/opt/gcc/4.9.2/include/c++/4.9.2/ext/atomicity.h **** // GNU General Public License for more details.
  14:/opt/gcc/4.9.2/include/c++/4.9.2/ext/atomicity.h **** 
  15:/opt/gcc/4.9.2/include/c++/4.9.2/ext/atomicity.h **** // Under Section 7 of GPL version 3, you are granted additional
  16:/opt/gcc/4.9.2/include/c++/4.9.2/ext/atomicity.h **** // permissions described in the GCC Runtime Library Exception, version
  17:/opt/gcc/4.9.2/include/c++/4.9.2/ext/atomicity.h **** // 3.1, as published by the Free Software Foundation.
  18:/opt/gcc/4.9.2/include/c++/4.9.2/ext/atomicity.h **** 
  19:/opt/gcc/4.9.2/include/c++/4.9.2/ext/atomicity.h **** // You should have received a copy of the GNU General Public License and
  20:/opt/gcc/4.9.2/include/c++/4.9.2/ext/atomicity.h **** // a copy of the GCC Runtime Library Exception along with this program;
GAS LISTING /tmp/ccJkRw2J.s 			page 10


  21:/opt/gcc/4.9.2/include/c++/4.9.2/ext/atomicity.h **** // see the files COPYING3 and COPYING.RUNTIME respectively.  If not, see
  22:/opt/gcc/4.9.2/include/c++/4.9.2/ext/atomicity.h **** // <http://www.gnu.org/licenses/>.
  23:/opt/gcc/4.9.2/include/c++/4.9.2/ext/atomicity.h **** 
  24:/opt/gcc/4.9.2/include/c++/4.9.2/ext/atomicity.h **** /** @file ext/atomicity.h
  25:/opt/gcc/4.9.2/include/c++/4.9.2/ext/atomicity.h ****  *  This file is a GNU extension to the Standard C++ Library.
  26:/opt/gcc/4.9.2/include/c++/4.9.2/ext/atomicity.h ****  */
  27:/opt/gcc/4.9.2/include/c++/4.9.2/ext/atomicity.h **** 
  28:/opt/gcc/4.9.2/include/c++/4.9.2/ext/atomicity.h **** #ifndef _GLIBCXX_ATOMICITY_H
  29:/opt/gcc/4.9.2/include/c++/4.9.2/ext/atomicity.h **** #define _GLIBCXX_ATOMICITY_H	1
  30:/opt/gcc/4.9.2/include/c++/4.9.2/ext/atomicity.h **** 
  31:/opt/gcc/4.9.2/include/c++/4.9.2/ext/atomicity.h **** #pragma GCC system_header
  32:/opt/gcc/4.9.2/include/c++/4.9.2/ext/atomicity.h **** 
  33:/opt/gcc/4.9.2/include/c++/4.9.2/ext/atomicity.h **** #include <bits/c++config.h>
  34:/opt/gcc/4.9.2/include/c++/4.9.2/ext/atomicity.h **** #include <bits/gthr.h>
  35:/opt/gcc/4.9.2/include/c++/4.9.2/ext/atomicity.h **** #include <bits/atomic_word.h>
  36:/opt/gcc/4.9.2/include/c++/4.9.2/ext/atomicity.h **** 
  37:/opt/gcc/4.9.2/include/c++/4.9.2/ext/atomicity.h **** namespace __gnu_cxx _GLIBCXX_VISIBILITY(default)
  38:/opt/gcc/4.9.2/include/c++/4.9.2/ext/atomicity.h **** {
  39:/opt/gcc/4.9.2/include/c++/4.9.2/ext/atomicity.h **** _GLIBCXX_BEGIN_NAMESPACE_VERSION
  40:/opt/gcc/4.9.2/include/c++/4.9.2/ext/atomicity.h **** 
  41:/opt/gcc/4.9.2/include/c++/4.9.2/ext/atomicity.h ****   // Functions for portable atomic access.
  42:/opt/gcc/4.9.2/include/c++/4.9.2/ext/atomicity.h ****   // To abstract locking primitives across all thread policies, use:
  43:/opt/gcc/4.9.2/include/c++/4.9.2/ext/atomicity.h ****   // __exchange_and_add_dispatch
  44:/opt/gcc/4.9.2/include/c++/4.9.2/ext/atomicity.h ****   // __atomic_add_dispatch
  45:/opt/gcc/4.9.2/include/c++/4.9.2/ext/atomicity.h **** #ifdef _GLIBCXX_ATOMIC_BUILTINS
  46:/opt/gcc/4.9.2/include/c++/4.9.2/ext/atomicity.h ****   static inline _Atomic_word 
  47:/opt/gcc/4.9.2/include/c++/4.9.2/ext/atomicity.h ****   __exchange_and_add(volatile _Atomic_word* __mem, int __val)
  48:/opt/gcc/4.9.2/include/c++/4.9.2/ext/atomicity.h ****   { return __atomic_fetch_add(__mem, __val, __ATOMIC_ACQ_REL); }
  49:/opt/gcc/4.9.2/include/c++/4.9.2/ext/atomicity.h **** 
  50:/opt/gcc/4.9.2/include/c++/4.9.2/ext/atomicity.h ****   static inline void
  51:/opt/gcc/4.9.2/include/c++/4.9.2/ext/atomicity.h ****   __atomic_add(volatile _Atomic_word* __mem, int __val)
  52:/opt/gcc/4.9.2/include/c++/4.9.2/ext/atomicity.h ****   { __atomic_fetch_add(__mem, __val, __ATOMIC_ACQ_REL); }
  53:/opt/gcc/4.9.2/include/c++/4.9.2/ext/atomicity.h **** #else
  54:/opt/gcc/4.9.2/include/c++/4.9.2/ext/atomicity.h ****   _Atomic_word
  55:/opt/gcc/4.9.2/include/c++/4.9.2/ext/atomicity.h ****   __attribute__ ((__unused__))
  56:/opt/gcc/4.9.2/include/c++/4.9.2/ext/atomicity.h ****   __exchange_and_add(volatile _Atomic_word*, int) throw ();
  57:/opt/gcc/4.9.2/include/c++/4.9.2/ext/atomicity.h **** 
  58:/opt/gcc/4.9.2/include/c++/4.9.2/ext/atomicity.h ****   void
  59:/opt/gcc/4.9.2/include/c++/4.9.2/ext/atomicity.h ****   __attribute__ ((__unused__))
  60:/opt/gcc/4.9.2/include/c++/4.9.2/ext/atomicity.h ****   __atomic_add(volatile _Atomic_word*, int) throw ();
  61:/opt/gcc/4.9.2/include/c++/4.9.2/ext/atomicity.h **** #endif
  62:/opt/gcc/4.9.2/include/c++/4.9.2/ext/atomicity.h **** 
  63:/opt/gcc/4.9.2/include/c++/4.9.2/ext/atomicity.h ****   static inline _Atomic_word
  64:/opt/gcc/4.9.2/include/c++/4.9.2/ext/atomicity.h ****   __exchange_and_add_single(_Atomic_word* __mem, int __val)
  65:/opt/gcc/4.9.2/include/c++/4.9.2/ext/atomicity.h ****   {
  66:/opt/gcc/4.9.2/include/c++/4.9.2/ext/atomicity.h ****     _Atomic_word __result = *__mem;
  67:/opt/gcc/4.9.2/include/c++/4.9.2/ext/atomicity.h ****     *__mem += __val;
  68:/opt/gcc/4.9.2/include/c++/4.9.2/ext/atomicity.h ****     return __result;
  69:/opt/gcc/4.9.2/include/c++/4.9.2/ext/atomicity.h ****   }
  70:/opt/gcc/4.9.2/include/c++/4.9.2/ext/atomicity.h **** 
  71:/opt/gcc/4.9.2/include/c++/4.9.2/ext/atomicity.h ****   static inline void
  72:/opt/gcc/4.9.2/include/c++/4.9.2/ext/atomicity.h ****   __atomic_add_single(_Atomic_word* __mem, int __val)
  73:/opt/gcc/4.9.2/include/c++/4.9.2/ext/atomicity.h ****   { *__mem += __val; }
  74:/opt/gcc/4.9.2/include/c++/4.9.2/ext/atomicity.h **** 
  75:/opt/gcc/4.9.2/include/c++/4.9.2/ext/atomicity.h ****   static inline _Atomic_word
  76:/opt/gcc/4.9.2/include/c++/4.9.2/ext/atomicity.h ****   __attribute__ ((__unused__))
  77:/opt/gcc/4.9.2/include/c++/4.9.2/ext/atomicity.h ****   __exchange_and_add_dispatch(_Atomic_word* __mem, int __val)
GAS LISTING /tmp/ccJkRw2J.s 			page 11


  78:/opt/gcc/4.9.2/include/c++/4.9.2/ext/atomicity.h ****   {
  79:/opt/gcc/4.9.2/include/c++/4.9.2/ext/atomicity.h **** #ifdef __GTHREADS
  80:/opt/gcc/4.9.2/include/c++/4.9.2/ext/atomicity.h ****     if (__gthread_active_p())
 194              		.loc 3 81 0
 195 0090 48833D00 		cmpq	$0, _ZL28__gthrw___pthread_key_createPjPFvPvE@GOTPCREL(%rip)
 195      00000000 
 196 0098 7410     		je	.L22
 197              	.LVL15:
 198              	.LBB571:
 199              	.LBB572:
  49:/opt/gcc/4.9.2/include/c++/4.9.2/ext/atomicity.h ****   { return __atomic_fetch_add(__mem, __val, __ATOMIC_ACQ_REL); }
 200              		.loc 3 49 0
 201 009a B8FFFFFF 		movl	$-1, %eax
 201      FF
 202 009f F00FC147 		lock; xaddl	%eax, 16(%rdi)
 202      10
 203              	.LVL16:
 204              	.L23:
 205              	.LBE572:
 206              	.LBE571:
 207              	.LBE570:
 208              	.LBE569:
 237:/opt/gcc/4.9.2/include/c++/4.9.2/bits/basic_string.h **** 	{
 238:/opt/gcc/4.9.2/include/c++/4.9.2/bits/basic_string.h **** #if _GLIBCXX_FULLY_DYNAMIC_STRING == 0
 239:/opt/gcc/4.9.2/include/c++/4.9.2/bits/basic_string.h **** 	  if (__builtin_expect(this != &_S_empty_rep(), false))
 240:/opt/gcc/4.9.2/include/c++/4.9.2/bits/basic_string.h **** #endif
 241:/opt/gcc/4.9.2/include/c++/4.9.2/bits/basic_string.h **** 	    {
 242:/opt/gcc/4.9.2/include/c++/4.9.2/bits/basic_string.h **** 	      // Be race-detector-friendly.  For more info see bits/c++config.
 243:/opt/gcc/4.9.2/include/c++/4.9.2/bits/basic_string.h **** 	      _GLIBCXX_SYNCHRONIZATION_HAPPENS_BEFORE(&this->_M_refcount);
 244:/opt/gcc/4.9.2/include/c++/4.9.2/bits/basic_string.h **** 	      if (__gnu_cxx::__exchange_and_add_dispatch(&this->_M_refcount,
 209              		.loc 2 245 0
 210 00a4 85C0     		testl	%eax, %eax
 211 00a6 7E0D     		jle	.L25
 212 00a8 F3C3     		rep; ret
 213              	.L22:
 214              	.LVL17:
 215              	.LBB576:
 216              	.LBB575:
 217              	.LBB573:
 218              	.LBB574:
  67:/opt/gcc/4.9.2/include/c++/4.9.2/ext/atomicity.h ****     _Atomic_word __result = *__mem;
 219              		.loc 3 67 0
 220 00aa 8B4710   		movl	16(%rdi), %eax
 221              	.LVL18:
  68:/opt/gcc/4.9.2/include/c++/4.9.2/ext/atomicity.h ****     *__mem += __val;
 222              		.loc 3 68 0
 223 00ad 8D50FF   		leal	-1(%rax), %edx
 224 00b0 895710   		movl	%edx, 16(%rdi)
 225 00b3 EBEF     		jmp	.L23
 226              	.LVL19:
 227              	.L25:
 228              	.LBE574:
 229              	.LBE573:
 230              	.LBE575:
 231              	.LBE576:
 245:/opt/gcc/4.9.2/include/c++/4.9.2/bits/basic_string.h **** 							 -1) <= 0)
 246:/opt/gcc/4.9.2/include/c++/4.9.2/bits/basic_string.h **** 		{
GAS LISTING /tmp/ccJkRw2J.s 			page 12


 247:/opt/gcc/4.9.2/include/c++/4.9.2/bits/basic_string.h **** 		  _GLIBCXX_SYNCHRONIZATION_HAPPENS_AFTER(&this->_M_refcount);
 248:/opt/gcc/4.9.2/include/c++/4.9.2/bits/basic_string.h **** 		  _M_destroy(__a);
 232              		.loc 2 249 0
 233 00b5 E9000000 		jmp	_ZNSs4_Rep10_M_destroyERKSaIcE@PLT
 233      00
 234              	.LVL20:
 235              		.cfi_endproc
 236              	.LFE2114:
 237              		.size	_ZNSs4_Rep10_M_disposeERKSaIcE.part.9, .-_ZNSs4_Rep10_M_disposeERKSaIcE.part.9
 238              		.section	.text.unlikely
 239              	.LCOLDE4:
 240              		.text
 241              	.LHOTE4:
 242              		.section	.rodata.str1.1,"aMS",@progbits,1
 243              	.LC5:
 244 0000 496E7661 		.string	"Invalid number of arguments!"
 244      6C696420 
 244      6E756D62 
 244      6572206F 
 244      66206172 
 245              	.LC6:
 246 001d 55736167 		.string	"Usage:"
 246      653A00
 247              	.LC7:
 248 0024 202000   		.string	"  "
 249              	.LC8:
 250 0027 20524144 		.string	" RADIUS"
 250      49555300 
 251              		.section	.rodata.str1.8,"aMS",@progbits,1
 252              		.align 8
 253              	.LC9:
 254 0000 20205769 		.string	"  Will generate some stamps of given RADIUS and render"
 254      6C6C2067 
 254      656E6572 
 254      61746520 
 254      736F6D65 
 255 0037 00       		.align 8
 256              	.LC10:
 257 0038 20207468 		.string	"  them next to eachother into `stamps.png`."
 257      656D206E 
 257      65787420 
 257      746F2065 
 257      6163686F 
 258              		.section	.rodata.str1.1
 259              	.LC11:
 260 002f 7374616D 		.string	"stamps.png"
 260      70732E70 
 260      6E6700
 261              	.LC12:
 262 003a 656E636F 		.string	"encoder error "
 262      64657220 
 262      6572726F 
 262      722000
 263              	.LC13:
 264 0049 3A2000   		.string	": "
 265              		.section	.text.unlikely
 266              	.LCOLDB14:
GAS LISTING /tmp/ccJkRw2J.s 			page 13


 267              		.section	.text.startup,"ax",@progbits
 268              	.LHOTB14:
 269              		.p2align 4,,15
 270              		.globl	main
 271              		.type	main, @function
 272              	main:
 273              	.LFB1873:
  33:examples/customstamps.cpp **** {
 274              		.loc 1 33 0
 275              		.cfi_startproc
 276              		.cfi_personality 0x9b,DW.ref.__gxx_personality_v0
 277              		.cfi_lsda 0x1b,.LLSDA1873
 278              	.LVL21:
 279 0000 4157     		pushq	%r15
 280              		.cfi_def_cfa_offset 16
 281              		.cfi_offset 15, -16
 282 0002 4156     		pushq	%r14
 283              		.cfi_def_cfa_offset 24
 284              		.cfi_offset 14, -24
 285 0004 4155     		pushq	%r13
 286              		.cfi_def_cfa_offset 32
 287              		.cfi_offset 13, -32
 288 0006 4154     		pushq	%r12
 289              		.cfi_def_cfa_offset 40
 290              		.cfi_offset 12, -40
 291 0008 55       		pushq	%rbp
 292              		.cfi_def_cfa_offset 48
 293              		.cfi_offset 6, -48
 294 0009 53       		pushq	%rbx
 295              		.cfi_def_cfa_offset 56
 296              		.cfi_offset 3, -56
 297 000a 4889F5   		movq	%rsi, %rbp
 298 000d 4883EC68 		subq	$104, %rsp
 299              		.cfi_def_cfa_offset 160
 300              	.LBB577:
  34:examples/customstamps.cpp ****     if(argc != 2) {
 301              		.loc 1 34 0
 302 0011 83FF02   		cmpl	$2, %edi
 303 0014 0F84B800 		je	.L27
 303      0000
  35:examples/customstamps.cpp ****         std::cerr << "Invalid number of arguments!" << std::endl;
 304              		.loc 1 35 0
 305 001a 488B3D00 		movq	_ZSt4cerr@GOTPCREL(%rip), %rdi
 305      000000
 306              	.LVL22:
 307 0021 488D3500 		leaq	.LC5(%rip), %rsi
 307      000000
 308              	.LVL23:
 309              	.LEHB0:
 310 0028 E8000000 		call	_ZStlsISt11char_traitsIcEERSt13basic_ostreamIcT_ES5_PKc@PLT
 310      00
 311              	.LVL24:
 312              	.LBB578:
 313              	.LBB579:
 314              		.file 4 "/opt/gcc/4.9.2/include/c++/4.9.2/ostream"
   0:/opt/gcc/4.9.2/include/c++/4.9.2/ostream **** // Output streams -*- C++ -*-
   1:/opt/gcc/4.9.2/include/c++/4.9.2/ostream **** 
GAS LISTING /tmp/ccJkRw2J.s 			page 14


   2:/opt/gcc/4.9.2/include/c++/4.9.2/ostream **** // Copyright (C) 1997-2014 Free Software Foundation, Inc.
   3:/opt/gcc/4.9.2/include/c++/4.9.2/ostream **** //
   4:/opt/gcc/4.9.2/include/c++/4.9.2/ostream **** // This file is part of the GNU ISO C++ Library.  This library is free
   5:/opt/gcc/4.9.2/include/c++/4.9.2/ostream **** // software; you can redistribute it and/or modify it under the
   6:/opt/gcc/4.9.2/include/c++/4.9.2/ostream **** // terms of the GNU General Public License as published by the
   7:/opt/gcc/4.9.2/include/c++/4.9.2/ostream **** // Free Software Foundation; either version 3, or (at your option)
   8:/opt/gcc/4.9.2/include/c++/4.9.2/ostream **** // any later version.
   9:/opt/gcc/4.9.2/include/c++/4.9.2/ostream **** 
  10:/opt/gcc/4.9.2/include/c++/4.9.2/ostream **** // This library is distributed in the hope that it will be useful,
  11:/opt/gcc/4.9.2/include/c++/4.9.2/ostream **** // but WITHOUT ANY WARRANTY; without even the implied warranty of
  12:/opt/gcc/4.9.2/include/c++/4.9.2/ostream **** // MERCHANTABILITY or FITNESS FOR A PARTICULAR PURPOSE.  See the
  13:/opt/gcc/4.9.2/include/c++/4.9.2/ostream **** // GNU General Public License for more details.
  14:/opt/gcc/4.9.2/include/c++/4.9.2/ostream **** 
  15:/opt/gcc/4.9.2/include/c++/4.9.2/ostream **** // Under Section 7 of GPL version 3, you are granted additional
  16:/opt/gcc/4.9.2/include/c++/4.9.2/ostream **** // permissions described in the GCC Runtime Library Exception, version
  17:/opt/gcc/4.9.2/include/c++/4.9.2/ostream **** // 3.1, as published by the Free Software Foundation.
  18:/opt/gcc/4.9.2/include/c++/4.9.2/ostream **** 
  19:/opt/gcc/4.9.2/include/c++/4.9.2/ostream **** // You should have received a copy of the GNU General Public License and
  20:/opt/gcc/4.9.2/include/c++/4.9.2/ostream **** // a copy of the GCC Runtime Library Exception along with this program;
  21:/opt/gcc/4.9.2/include/c++/4.9.2/ostream **** // see the files COPYING3 and COPYING.RUNTIME respectively.  If not, see
  22:/opt/gcc/4.9.2/include/c++/4.9.2/ostream **** // <http://www.gnu.org/licenses/>.
  23:/opt/gcc/4.9.2/include/c++/4.9.2/ostream **** 
  24:/opt/gcc/4.9.2/include/c++/4.9.2/ostream **** /** @file include/ostream
  25:/opt/gcc/4.9.2/include/c++/4.9.2/ostream ****  *  This is a Standard C++ Library header.
  26:/opt/gcc/4.9.2/include/c++/4.9.2/ostream ****  */
  27:/opt/gcc/4.9.2/include/c++/4.9.2/ostream **** 
  28:/opt/gcc/4.9.2/include/c++/4.9.2/ostream **** //
  29:/opt/gcc/4.9.2/include/c++/4.9.2/ostream **** // ISO C++ 14882: 27.6.2  Output streams
  30:/opt/gcc/4.9.2/include/c++/4.9.2/ostream **** //
  31:/opt/gcc/4.9.2/include/c++/4.9.2/ostream **** 
  32:/opt/gcc/4.9.2/include/c++/4.9.2/ostream **** #ifndef _GLIBCXX_OSTREAM
  33:/opt/gcc/4.9.2/include/c++/4.9.2/ostream **** #define _GLIBCXX_OSTREAM 1
  34:/opt/gcc/4.9.2/include/c++/4.9.2/ostream **** 
  35:/opt/gcc/4.9.2/include/c++/4.9.2/ostream **** #pragma GCC system_header
  36:/opt/gcc/4.9.2/include/c++/4.9.2/ostream **** 
  37:/opt/gcc/4.9.2/include/c++/4.9.2/ostream **** #include <ios>
  38:/opt/gcc/4.9.2/include/c++/4.9.2/ostream **** #include <bits/ostream_insert.h>
  39:/opt/gcc/4.9.2/include/c++/4.9.2/ostream **** 
  40:/opt/gcc/4.9.2/include/c++/4.9.2/ostream **** namespace std _GLIBCXX_VISIBILITY(default)
  41:/opt/gcc/4.9.2/include/c++/4.9.2/ostream **** {
  42:/opt/gcc/4.9.2/include/c++/4.9.2/ostream **** _GLIBCXX_BEGIN_NAMESPACE_VERSION
  43:/opt/gcc/4.9.2/include/c++/4.9.2/ostream **** 
  44:/opt/gcc/4.9.2/include/c++/4.9.2/ostream ****   /**
  45:/opt/gcc/4.9.2/include/c++/4.9.2/ostream ****    *  @brief  Template class basic_ostream.
  46:/opt/gcc/4.9.2/include/c++/4.9.2/ostream ****    *  @ingroup io
  47:/opt/gcc/4.9.2/include/c++/4.9.2/ostream ****    *
  48:/opt/gcc/4.9.2/include/c++/4.9.2/ostream ****    *  @tparam _CharT  Type of character stream.
  49:/opt/gcc/4.9.2/include/c++/4.9.2/ostream ****    *  @tparam _Traits  Traits for character type, defaults to
  50:/opt/gcc/4.9.2/include/c++/4.9.2/ostream ****    *                   char_traits<_CharT>.
  51:/opt/gcc/4.9.2/include/c++/4.9.2/ostream ****    *
  52:/opt/gcc/4.9.2/include/c++/4.9.2/ostream ****    *  This is the base class for all output streams.  It provides text
  53:/opt/gcc/4.9.2/include/c++/4.9.2/ostream ****    *  formatting of all builtin types, and communicates with any class
  54:/opt/gcc/4.9.2/include/c++/4.9.2/ostream ****    *  derived from basic_streambuf to do the actual output.
  55:/opt/gcc/4.9.2/include/c++/4.9.2/ostream ****   */
  56:/opt/gcc/4.9.2/include/c++/4.9.2/ostream ****   template<typename _CharT, typename _Traits>
  57:/opt/gcc/4.9.2/include/c++/4.9.2/ostream ****     class basic_ostream : virtual public basic_ios<_CharT, _Traits>
  58:/opt/gcc/4.9.2/include/c++/4.9.2/ostream ****     {
GAS LISTING /tmp/ccJkRw2J.s 			page 15


  59:/opt/gcc/4.9.2/include/c++/4.9.2/ostream ****     public:
  60:/opt/gcc/4.9.2/include/c++/4.9.2/ostream ****       // Types (inherited from basic_ios):
  61:/opt/gcc/4.9.2/include/c++/4.9.2/ostream ****       typedef _CharT			 		char_type;
  62:/opt/gcc/4.9.2/include/c++/4.9.2/ostream ****       typedef typename _Traits::int_type 		int_type;
  63:/opt/gcc/4.9.2/include/c++/4.9.2/ostream ****       typedef typename _Traits::pos_type 		pos_type;
  64:/opt/gcc/4.9.2/include/c++/4.9.2/ostream ****       typedef typename _Traits::off_type 		off_type;
  65:/opt/gcc/4.9.2/include/c++/4.9.2/ostream ****       typedef _Traits			 		traits_type;
  66:/opt/gcc/4.9.2/include/c++/4.9.2/ostream **** 
  67:/opt/gcc/4.9.2/include/c++/4.9.2/ostream ****       // Non-standard Types:
  68:/opt/gcc/4.9.2/include/c++/4.9.2/ostream ****       typedef basic_streambuf<_CharT, _Traits> 		__streambuf_type;
  69:/opt/gcc/4.9.2/include/c++/4.9.2/ostream ****       typedef basic_ios<_CharT, _Traits>		__ios_type;
  70:/opt/gcc/4.9.2/include/c++/4.9.2/ostream ****       typedef basic_ostream<_CharT, _Traits>		__ostream_type;
  71:/opt/gcc/4.9.2/include/c++/4.9.2/ostream ****       typedef num_put<_CharT, ostreambuf_iterator<_CharT, _Traits> >
  72:/opt/gcc/4.9.2/include/c++/4.9.2/ostream ****       							__num_put_type;
  73:/opt/gcc/4.9.2/include/c++/4.9.2/ostream ****       typedef ctype<_CharT>	      			__ctype_type;
  74:/opt/gcc/4.9.2/include/c++/4.9.2/ostream **** 
  75:/opt/gcc/4.9.2/include/c++/4.9.2/ostream ****       /**
  76:/opt/gcc/4.9.2/include/c++/4.9.2/ostream ****        *  @brief  Base constructor.
  77:/opt/gcc/4.9.2/include/c++/4.9.2/ostream ****        *
  78:/opt/gcc/4.9.2/include/c++/4.9.2/ostream ****        *  This ctor is almost never called by the user directly, rather from
  79:/opt/gcc/4.9.2/include/c++/4.9.2/ostream ****        *  derived classes' initialization lists, which pass a pointer to
  80:/opt/gcc/4.9.2/include/c++/4.9.2/ostream ****        *  their own stream buffer.
  81:/opt/gcc/4.9.2/include/c++/4.9.2/ostream ****       */
  82:/opt/gcc/4.9.2/include/c++/4.9.2/ostream ****       explicit
  83:/opt/gcc/4.9.2/include/c++/4.9.2/ostream ****       basic_ostream(__streambuf_type* __sb)
  84:/opt/gcc/4.9.2/include/c++/4.9.2/ostream ****       { this->init(__sb); }
  85:/opt/gcc/4.9.2/include/c++/4.9.2/ostream **** 
  86:/opt/gcc/4.9.2/include/c++/4.9.2/ostream ****       /**
  87:/opt/gcc/4.9.2/include/c++/4.9.2/ostream ****        *  @brief  Base destructor.
  88:/opt/gcc/4.9.2/include/c++/4.9.2/ostream ****        *
  89:/opt/gcc/4.9.2/include/c++/4.9.2/ostream ****        *  This does very little apart from providing a virtual base dtor.
  90:/opt/gcc/4.9.2/include/c++/4.9.2/ostream ****       */
  91:/opt/gcc/4.9.2/include/c++/4.9.2/ostream ****       virtual
  92:/opt/gcc/4.9.2/include/c++/4.9.2/ostream ****       ~basic_ostream() { }
  93:/opt/gcc/4.9.2/include/c++/4.9.2/ostream **** 
  94:/opt/gcc/4.9.2/include/c++/4.9.2/ostream ****       /// Safe prefix/suffix operations.
  95:/opt/gcc/4.9.2/include/c++/4.9.2/ostream ****       class sentry;
  96:/opt/gcc/4.9.2/include/c++/4.9.2/ostream ****       friend class sentry;
  97:/opt/gcc/4.9.2/include/c++/4.9.2/ostream **** 
  98:/opt/gcc/4.9.2/include/c++/4.9.2/ostream ****       //@{
  99:/opt/gcc/4.9.2/include/c++/4.9.2/ostream ****       /**
 100:/opt/gcc/4.9.2/include/c++/4.9.2/ostream ****        *  @brief  Interface for manipulators.
 101:/opt/gcc/4.9.2/include/c++/4.9.2/ostream ****        *
 102:/opt/gcc/4.9.2/include/c++/4.9.2/ostream ****        *  Manipulators such as @c std::endl and @c std::hex use these
 103:/opt/gcc/4.9.2/include/c++/4.9.2/ostream ****        *  functions in constructs like "std::cout << std::endl".  For more
 104:/opt/gcc/4.9.2/include/c++/4.9.2/ostream ****        *  information, see the iomanip header.
 105:/opt/gcc/4.9.2/include/c++/4.9.2/ostream ****       */
 106:/opt/gcc/4.9.2/include/c++/4.9.2/ostream ****       __ostream_type&
 107:/opt/gcc/4.9.2/include/c++/4.9.2/ostream ****       operator<<(__ostream_type& (*__pf)(__ostream_type&))
 108:/opt/gcc/4.9.2/include/c++/4.9.2/ostream ****       {
 109:/opt/gcc/4.9.2/include/c++/4.9.2/ostream **** 	// _GLIBCXX_RESOLVE_LIB_DEFECTS
 110:/opt/gcc/4.9.2/include/c++/4.9.2/ostream **** 	// DR 60. What is a formatted input function?
 111:/opt/gcc/4.9.2/include/c++/4.9.2/ostream **** 	// The inserters for manipulators are *not* formatted output functions.
 112:/opt/gcc/4.9.2/include/c++/4.9.2/ostream **** 	return __pf(*this);
 315              		.loc 4 113 0
 316 002d 4889C7   		movq	%rax, %rdi
 317 0030 E8000000 		call	_ZSt4endlIcSt11char_traitsIcEERSt13basic_ostreamIT_T0_ES6_@PLT
GAS LISTING /tmp/ccJkRw2J.s 			page 16


 317      00
 318              	.LVL25:
 319              	.LBE579:
 320              	.LBE578:
  36:examples/customstamps.cpp ****         std::cout << "Usage:" << std::endl;
 321              		.loc 1 36 0
 322 0035 488B1D00 		movq	_ZSt4cout@GOTPCREL(%rip), %rbx
 322      000000
 323 003c 488D3500 		leaq	.LC6(%rip), %rsi
 323      000000
 324 0043 4889DF   		movq	%rbx, %rdi
 325 0046 E8000000 		call	_ZStlsISt11char_traitsIcEERSt13basic_ostreamIcT_ES5_PKc@PLT
 325      00
 326              	.LVL26:
 327              	.LBB580:
 328              	.LBB581:
 329              		.loc 4 113 0
 330 004b 4889C7   		movq	%rax, %rdi
 331 004e E8000000 		call	_ZSt4endlIcSt11char_traitsIcEERSt13basic_ostreamIT_T0_ES6_@PLT
 331      00
 332              	.LVL27:
 333              	.LBE581:
 334              	.LBE580:
  37:examples/customstamps.cpp ****         std::cout << "  " << argv[0] << " RADIUS" << std::endl;
 335              		.loc 1 37 0
 336 0053 488B6D00 		movq	0(%rbp), %rbp
 337              	.LVL28:
 338 0057 488D3500 		leaq	.LC7(%rip), %rsi
 338      000000
 339 005e 4889DF   		movq	%rbx, %rdi
 340 0061 E8000000 		call	_ZStlsISt11char_traitsIcEERSt13basic_ostreamIcT_ES5_PKc@PLT
 340      00
 341              	.LVL29:
 342 0066 4889EE   		movq	%rbp, %rsi
 343 0069 4889C7   		movq	%rax, %rdi
 344 006c E8000000 		call	_ZStlsISt11char_traitsIcEERSt13basic_ostreamIcT_ES5_PKc@PLT
 344      00
 345              	.LVL30:
 346 0071 488D3500 		leaq	.LC8(%rip), %rsi
 346      000000
 347 0078 4889C7   		movq	%rax, %rdi
 348 007b E8000000 		call	_ZStlsISt11char_traitsIcEERSt13basic_ostreamIcT_ES5_PKc@PLT
 348      00
 349              	.LVL31:
 350              	.LBB582:
 351              	.LBB583:
 352              		.loc 4 113 0
 353 0080 4889C7   		movq	%rax, %rdi
 354 0083 E8000000 		call	_ZSt4endlIcSt11char_traitsIcEERSt13basic_ostreamIT_T0_ES6_@PLT
 354      00
 355              	.LVL32:
 356              	.LBE583:
 357              	.LBE582:
 358              	.LBB584:
 359              	.LBB585:
 360 0088 4889DF   		movq	%rbx, %rdi
 361 008b E8000000 		call	_ZSt4endlIcSt11char_traitsIcEERSt13basic_ostreamIT_T0_ES6_@PLT
GAS LISTING /tmp/ccJkRw2J.s 			page 17


 361      00
 362              	.LVL33:
 363              	.LBE585:
 364              	.LBE584:
  39:examples/customstamps.cpp ****         std::cout << "  Will generate some stamps of given RADIUS and render" << std::endl;
 365              		.loc 1 39 0
 366 0090 488D3500 		leaq	.LC9(%rip), %rsi
 366      000000
 367 0097 4889DF   		movq	%rbx, %rdi
 368 009a E8000000 		call	_ZStlsISt11char_traitsIcEERSt13basic_ostreamIcT_ES5_PKc@PLT
 368      00
 369              	.LVL34:
 370              	.LBB586:
 371              	.LBB587:
 372              		.loc 4 113 0
 373 009f 4889C7   		movq	%rax, %rdi
 374 00a2 E8000000 		call	_ZSt4endlIcSt11char_traitsIcEERSt13basic_ostreamIT_T0_ES6_@PLT
 374      00
 375              	.LVL35:
 376              	.LBE587:
 377              	.LBE586:
  40:examples/customstamps.cpp ****         std::cout << "  them next to eachother into `stamps.png`." << std::endl;
 378              		.loc 1 40 0
 379 00a7 488D3500 		leaq	.LC10(%rip), %rsi
 379      000000
 380 00ae 4889DF   		movq	%rbx, %rdi
 381 00b1 E8000000 		call	_ZStlsISt11char_traitsIcEERSt13basic_ostreamIcT_ES5_PKc@PLT
 381      00
 382              	.LVL36:
 383              	.LBB588:
 384              	.LBB589:
 385              		.loc 4 113 0
 386 00b6 4889C7   		movq	%rax, %rdi
 387 00b9 E8000000 		call	_ZSt4endlIcSt11char_traitsIcEERSt13basic_ostreamIT_T0_ES6_@PLT
 387      00
 388              	.LVL37:
 389              	.LBE589:
 390              	.LBE588:
  42:examples/customstamps.cpp ****         return 1;
 391              		.loc 1 42 0
 392 00be B8010000 		movl	$1, %eax
 392      00
 393              	.LVL38:
 394              	.L43:
 395              	.LBE577:
  52:examples/customstamps.cpp **** 
  53:examples/customstamps.cpp ****     heatmap_add_point_with_stamp(hm,     r, r, s_def);
  54:examples/customstamps.cpp ****     heatmap_add_point_with_stamp(hm,   d+r, r, s_fat);
  55:examples/customstamps.cpp ****     heatmap_add_point_with_stamp(hm, 2*d+r, r, s_FAT);
  56:examples/customstamps.cpp ****     heatmap_add_point_with_stamp(hm, 3*d+r, r, s_pty);
  57:examples/customstamps.cpp ****     heatmap_add_point_with_stamp(hm, 4*d+r, r, s_PTY);
  58:examples/customstamps.cpp **** 
  59:examples/customstamps.cpp ****     heatmap_stamp_free(s_def);
  60:examples/customstamps.cpp ****     heatmap_stamp_free(s_fat);
  61:examples/customstamps.cpp ****     heatmap_stamp_free(s_FAT);
  62:examples/customstamps.cpp ****     heatmap_stamp_free(s_pty);
  63:examples/customstamps.cpp ****     heatmap_stamp_free(s_PTY);
GAS LISTING /tmp/ccJkRw2J.s 			page 18


  64:examples/customstamps.cpp **** 
  65:examples/customstamps.cpp ****     std::vector<unsigned char> image(w*h*4);
  66:examples/customstamps.cpp ****     heatmap_render_to(hm, heatmap_cs_b2w_opaque, &image[0]);
  67:examples/customstamps.cpp ****     heatmap_free(hm);
  68:examples/customstamps.cpp **** 
  69:examples/customstamps.cpp ****     if(unsigned error = lodepng::encode("stamps.png", image, w, h)) {
  70:examples/customstamps.cpp ****         std::cerr << "encoder error " << error << ": "<< lodepng_error_text(error) << std::endl;
  71:examples/customstamps.cpp ****         return 1;
  72:examples/customstamps.cpp ****     }
  73:examples/customstamps.cpp **** 
  74:examples/customstamps.cpp ****     return 0;
  75:examples/customstamps.cpp **** }
 396              		.loc 1 76 0
 397 00c3 4883C468 		addq	$104, %rsp
 398              		.cfi_remember_state
 399              		.cfi_def_cfa_offset 56
 400 00c7 5B       		popq	%rbx
 401              		.cfi_def_cfa_offset 48
 402 00c8 5D       		popq	%rbp
 403              		.cfi_def_cfa_offset 40
 404 00c9 415C     		popq	%r12
 405              		.cfi_def_cfa_offset 32
 406 00cb 415D     		popq	%r13
 407              		.cfi_def_cfa_offset 24
 408 00cd 415E     		popq	%r14
 409              		.cfi_def_cfa_offset 16
 410 00cf 415F     		popq	%r15
 411              		.cfi_def_cfa_offset 8
 412 00d1 C3       		ret
 413              	.LVL39:
 414              	.L27:
 415              		.cfi_restore_state
 416              	.LBB677:
 417              	.LBB590:
 418              	.LBB591:
 419              		.file 5 "/usr/include/stdlib.h"
   0:/usr/include/stdlib.h **** /* Copyright (C) 1991-2007, 2009, 2010 Free Software Foundation, Inc.
   1:/usr/include/stdlib.h ****    This file is part of the GNU C Library.
   2:/usr/include/stdlib.h **** 
   3:/usr/include/stdlib.h ****    The GNU C Library is free software; you can redistribute it and/or
   4:/usr/include/stdlib.h ****    modify it under the terms of the GNU Lesser General Public
   5:/usr/include/stdlib.h ****    License as published by the Free Software Foundation; either
   6:/usr/include/stdlib.h ****    version 2.1 of the License, or (at your option) any later version.
   7:/usr/include/stdlib.h **** 
   8:/usr/include/stdlib.h ****    The GNU C Library is distributed in the hope that it will be useful,
   9:/usr/include/stdlib.h ****    but WITHOUT ANY WARRANTY; without even the implied warranty of
  10:/usr/include/stdlib.h ****    MERCHANTABILITY or FITNESS FOR A PARTICULAR PURPOSE.  See the GNU
  11:/usr/include/stdlib.h ****    Lesser General Public License for more details.
  12:/usr/include/stdlib.h **** 
  13:/usr/include/stdlib.h ****    You should have received a copy of the GNU Lesser General Public
  14:/usr/include/stdlib.h ****    License along with the GNU C Library; if not, write to the Free
  15:/usr/include/stdlib.h ****    Software Foundation, Inc., 59 Temple Place, Suite 330, Boston, MA
  16:/usr/include/stdlib.h ****    02111-1307 USA.  */
  17:/usr/include/stdlib.h **** 
  18:/usr/include/stdlib.h **** /*
  19:/usr/include/stdlib.h ****  *	ISO C99 Standard: 7.20 General utilities	<stdlib.h>
  20:/usr/include/stdlib.h ****  */
GAS LISTING /tmp/ccJkRw2J.s 			page 19


  21:/usr/include/stdlib.h **** 
  22:/usr/include/stdlib.h **** #ifndef	_STDLIB_H
  23:/usr/include/stdlib.h **** 
  24:/usr/include/stdlib.h **** #include <features.h>
  25:/usr/include/stdlib.h **** 
  26:/usr/include/stdlib.h **** /* Get size_t, wchar_t and NULL from <stddef.h>.  */
  27:/usr/include/stdlib.h **** #define		__need_size_t
  28:/usr/include/stdlib.h **** #ifndef __need_malloc_and_calloc
  29:/usr/include/stdlib.h **** # define	__need_wchar_t
  30:/usr/include/stdlib.h **** # define	__need_NULL
  31:/usr/include/stdlib.h **** #endif
  32:/usr/include/stdlib.h **** #include <stddef.h>
  33:/usr/include/stdlib.h **** 
  34:/usr/include/stdlib.h **** __BEGIN_DECLS
  35:/usr/include/stdlib.h **** 
  36:/usr/include/stdlib.h **** #ifndef __need_malloc_and_calloc
  37:/usr/include/stdlib.h **** #define	_STDLIB_H	1
  38:/usr/include/stdlib.h **** 
  39:/usr/include/stdlib.h **** #if (defined __USE_XOPEN || defined __USE_XOPEN2K8) && !defined _SYS_WAIT_H
  40:/usr/include/stdlib.h **** /* XPG requires a few symbols from <sys/wait.h> being defined.  */
  41:/usr/include/stdlib.h **** # include <bits/waitflags.h>
  42:/usr/include/stdlib.h **** # include <bits/waitstatus.h>
  43:/usr/include/stdlib.h **** 
  44:/usr/include/stdlib.h **** # ifdef __USE_BSD
  45:/usr/include/stdlib.h **** 
  46:/usr/include/stdlib.h **** /* Lots of hair to allow traditional BSD use of `union wait'
  47:/usr/include/stdlib.h ****    as well as POSIX.1 use of `int' for the status word.  */
  48:/usr/include/stdlib.h **** 
  49:/usr/include/stdlib.h **** #  if defined __GNUC__ && !defined __cplusplus
  50:/usr/include/stdlib.h **** #   define __WAIT_INT(status) \
  51:/usr/include/stdlib.h ****   (__extension__ (((union { __typeof(status) __in; int __i; }) \
  52:/usr/include/stdlib.h **** 		   { .__in = (status) }).__i))
  53:/usr/include/stdlib.h **** #  else
  54:/usr/include/stdlib.h **** #   define __WAIT_INT(status)	(*(int *) &(status))
  55:/usr/include/stdlib.h **** #  endif
  56:/usr/include/stdlib.h **** 
  57:/usr/include/stdlib.h **** /* This is the type of the argument to `wait'.  The funky union
  58:/usr/include/stdlib.h ****    causes redeclarations with either `int *' or `union wait *' to be
  59:/usr/include/stdlib.h ****    allowed without complaint.  __WAIT_STATUS_DEFN is the type used in
  60:/usr/include/stdlib.h ****    the actual function definitions.  */
  61:/usr/include/stdlib.h **** 
  62:/usr/include/stdlib.h **** #  if !defined __GNUC__ || __GNUC__ < 2 || defined __cplusplus
  63:/usr/include/stdlib.h **** #   define __WAIT_STATUS	void *
  64:/usr/include/stdlib.h **** #   define __WAIT_STATUS_DEFN	void *
  65:/usr/include/stdlib.h **** #  else
  66:/usr/include/stdlib.h **** /* This works in GCC 2.6.1 and later.  */
  67:/usr/include/stdlib.h **** typedef union
  68:/usr/include/stdlib.h ****   {
  69:/usr/include/stdlib.h ****     union wait *__uptr;
  70:/usr/include/stdlib.h ****     int *__iptr;
  71:/usr/include/stdlib.h ****   } __WAIT_STATUS __attribute__ ((__transparent_union__));
  72:/usr/include/stdlib.h **** #   define __WAIT_STATUS_DEFN	int *
  73:/usr/include/stdlib.h **** #  endif
  74:/usr/include/stdlib.h **** 
  75:/usr/include/stdlib.h **** # else /* Don't use BSD.  */
  76:/usr/include/stdlib.h **** 
  77:/usr/include/stdlib.h **** #  define __WAIT_INT(status)	(status)
GAS LISTING /tmp/ccJkRw2J.s 			page 20


  78:/usr/include/stdlib.h **** #  define __WAIT_STATUS		int *
  79:/usr/include/stdlib.h **** #  define __WAIT_STATUS_DEFN	int *
  80:/usr/include/stdlib.h **** 
  81:/usr/include/stdlib.h **** # endif /* Use BSD.  */
  82:/usr/include/stdlib.h **** 
  83:/usr/include/stdlib.h **** /* Define the macros <sys/wait.h> also would define this way.  */
  84:/usr/include/stdlib.h **** # define WEXITSTATUS(status)	__WEXITSTATUS (__WAIT_INT (status))
  85:/usr/include/stdlib.h **** # define WTERMSIG(status)	__WTERMSIG (__WAIT_INT (status))
  86:/usr/include/stdlib.h **** # define WSTOPSIG(status)	__WSTOPSIG (__WAIT_INT (status))
  87:/usr/include/stdlib.h **** # define WIFEXITED(status)	__WIFEXITED (__WAIT_INT (status))
  88:/usr/include/stdlib.h **** # define WIFSIGNALED(status)	__WIFSIGNALED (__WAIT_INT (status))
  89:/usr/include/stdlib.h **** # define WIFSTOPPED(status)	__WIFSTOPPED (__WAIT_INT (status))
  90:/usr/include/stdlib.h **** # ifdef __WIFCONTINUED
  91:/usr/include/stdlib.h **** #  define WIFCONTINUED(status)	__WIFCONTINUED (__WAIT_INT (status))
  92:/usr/include/stdlib.h **** # endif
  93:/usr/include/stdlib.h **** #endif	/* X/Open or XPG7 and <sys/wait.h> not included.  */
  94:/usr/include/stdlib.h **** 
  95:/usr/include/stdlib.h **** __BEGIN_NAMESPACE_STD
  96:/usr/include/stdlib.h **** /* Returned by `div'.  */
  97:/usr/include/stdlib.h **** typedef struct
  98:/usr/include/stdlib.h ****   {
  99:/usr/include/stdlib.h ****     int quot;			/* Quotient.  */
 100:/usr/include/stdlib.h ****     int rem;			/* Remainder.  */
 101:/usr/include/stdlib.h ****   } div_t;
 102:/usr/include/stdlib.h **** 
 103:/usr/include/stdlib.h **** /* Returned by `ldiv'.  */
 104:/usr/include/stdlib.h **** #ifndef __ldiv_t_defined
 105:/usr/include/stdlib.h **** typedef struct
 106:/usr/include/stdlib.h ****   {
 107:/usr/include/stdlib.h ****     long int quot;		/* Quotient.  */
 108:/usr/include/stdlib.h ****     long int rem;		/* Remainder.  */
 109:/usr/include/stdlib.h ****   } ldiv_t;
 110:/usr/include/stdlib.h **** # define __ldiv_t_defined	1
 111:/usr/include/stdlib.h **** #endif
 112:/usr/include/stdlib.h **** __END_NAMESPACE_STD
 113:/usr/include/stdlib.h **** 
 114:/usr/include/stdlib.h **** #if defined __USE_ISOC99 && !defined __lldiv_t_defined
 115:/usr/include/stdlib.h **** __BEGIN_NAMESPACE_C99
 116:/usr/include/stdlib.h **** /* Returned by `lldiv'.  */
 117:/usr/include/stdlib.h **** __extension__ typedef struct
 118:/usr/include/stdlib.h ****   {
 119:/usr/include/stdlib.h ****     long long int quot;		/* Quotient.  */
 120:/usr/include/stdlib.h ****     long long int rem;		/* Remainder.  */
 121:/usr/include/stdlib.h ****   } lldiv_t;
 122:/usr/include/stdlib.h **** # define __lldiv_t_defined	1
 123:/usr/include/stdlib.h **** __END_NAMESPACE_C99
 124:/usr/include/stdlib.h **** #endif
 125:/usr/include/stdlib.h **** 
 126:/usr/include/stdlib.h **** 
 127:/usr/include/stdlib.h **** /* The largest number rand will return (same as INT_MAX).  */
 128:/usr/include/stdlib.h **** #define	RAND_MAX	2147483647
 129:/usr/include/stdlib.h **** 
 130:/usr/include/stdlib.h **** 
 131:/usr/include/stdlib.h **** /* We define these the same for all machines.
 132:/usr/include/stdlib.h ****    Changes from this to the outside world should be done in `_exit'.  */
 133:/usr/include/stdlib.h **** #define	EXIT_FAILURE	1	/* Failing exit status.  */
 134:/usr/include/stdlib.h **** #define	EXIT_SUCCESS	0	/* Successful exit status.  */
GAS LISTING /tmp/ccJkRw2J.s 			page 21


 135:/usr/include/stdlib.h **** 
 136:/usr/include/stdlib.h **** 
 137:/usr/include/stdlib.h **** /* Maximum length of a multibyte character in the current locale.  */
 138:/usr/include/stdlib.h **** #define	MB_CUR_MAX	(__ctype_get_mb_cur_max ())
 139:/usr/include/stdlib.h **** extern size_t __ctype_get_mb_cur_max (void) __THROW __wur;
 140:/usr/include/stdlib.h **** 
 141:/usr/include/stdlib.h **** 
 142:/usr/include/stdlib.h **** __BEGIN_NAMESPACE_STD
 143:/usr/include/stdlib.h **** /* Convert a string to a floating-point number.  */
 144:/usr/include/stdlib.h **** extern double atof (__const char *__nptr)
 145:/usr/include/stdlib.h ****      __THROW __attribute_pure__ __nonnull ((1)) __wur;
 146:/usr/include/stdlib.h **** /* Convert a string to an integer.  */
 147:/usr/include/stdlib.h **** extern int atoi (__const char *__nptr)
 148:/usr/include/stdlib.h ****      __THROW __attribute_pure__ __nonnull ((1)) __wur;
 149:/usr/include/stdlib.h **** /* Convert a string to a long integer.  */
 150:/usr/include/stdlib.h **** extern long int atol (__const char *__nptr)
 151:/usr/include/stdlib.h ****      __THROW __attribute_pure__ __nonnull ((1)) __wur;
 152:/usr/include/stdlib.h **** __END_NAMESPACE_STD
 153:/usr/include/stdlib.h **** 
 154:/usr/include/stdlib.h **** #if defined __USE_ISOC99 || (defined __GLIBC_HAVE_LONG_LONG && defined __USE_MISC)
 155:/usr/include/stdlib.h **** __BEGIN_NAMESPACE_C99
 156:/usr/include/stdlib.h **** /* Convert a string to a long long integer.  */
 157:/usr/include/stdlib.h **** __extension__ extern long long int atoll (__const char *__nptr)
 158:/usr/include/stdlib.h ****      __THROW __attribute_pure__ __nonnull ((1)) __wur;
 159:/usr/include/stdlib.h **** __END_NAMESPACE_C99
 160:/usr/include/stdlib.h **** #endif
 161:/usr/include/stdlib.h **** 
 162:/usr/include/stdlib.h **** __BEGIN_NAMESPACE_STD
 163:/usr/include/stdlib.h **** /* Convert a string to a floating-point number.  */
 164:/usr/include/stdlib.h **** extern double strtod (__const char *__restrict __nptr,
 165:/usr/include/stdlib.h **** 		      char **__restrict __endptr)
 166:/usr/include/stdlib.h ****      __THROW __nonnull ((1)) __wur;
 167:/usr/include/stdlib.h **** __END_NAMESPACE_STD
 168:/usr/include/stdlib.h **** 
 169:/usr/include/stdlib.h **** #ifdef	__USE_ISOC99
 170:/usr/include/stdlib.h **** __BEGIN_NAMESPACE_C99
 171:/usr/include/stdlib.h **** /* Likewise for `float' and `long double' sizes of floating-point numbers.  */
 172:/usr/include/stdlib.h **** extern float strtof (__const char *__restrict __nptr,
 173:/usr/include/stdlib.h **** 		     char **__restrict __endptr) __THROW __nonnull ((1)) __wur;
 174:/usr/include/stdlib.h **** 
 175:/usr/include/stdlib.h **** extern long double strtold (__const char *__restrict __nptr,
 176:/usr/include/stdlib.h **** 			    char **__restrict __endptr)
 177:/usr/include/stdlib.h ****      __THROW __nonnull ((1)) __wur;
 178:/usr/include/stdlib.h **** __END_NAMESPACE_C99
 179:/usr/include/stdlib.h **** #endif
 180:/usr/include/stdlib.h **** 
 181:/usr/include/stdlib.h **** __BEGIN_NAMESPACE_STD
 182:/usr/include/stdlib.h **** /* Convert a string to a long integer.  */
 183:/usr/include/stdlib.h **** extern long int strtol (__const char *__restrict __nptr,
 184:/usr/include/stdlib.h **** 			char **__restrict __endptr, int __base)
 185:/usr/include/stdlib.h ****      __THROW __nonnull ((1)) __wur;
 186:/usr/include/stdlib.h **** /* Convert a string to an unsigned long integer.  */
 187:/usr/include/stdlib.h **** extern unsigned long int strtoul (__const char *__restrict __nptr,
 188:/usr/include/stdlib.h **** 				  char **__restrict __endptr, int __base)
 189:/usr/include/stdlib.h ****      __THROW __nonnull ((1)) __wur;
 190:/usr/include/stdlib.h **** __END_NAMESPACE_STD
 191:/usr/include/stdlib.h **** 
GAS LISTING /tmp/ccJkRw2J.s 			page 22


 192:/usr/include/stdlib.h **** #if defined __GLIBC_HAVE_LONG_LONG && defined __USE_BSD
 193:/usr/include/stdlib.h **** /* Convert a string to a quadword integer.  */
 194:/usr/include/stdlib.h **** __extension__
 195:/usr/include/stdlib.h **** extern long long int strtoq (__const char *__restrict __nptr,
 196:/usr/include/stdlib.h **** 			     char **__restrict __endptr, int __base)
 197:/usr/include/stdlib.h ****      __THROW __nonnull ((1)) __wur;
 198:/usr/include/stdlib.h **** /* Convert a string to an unsigned quadword integer.  */
 199:/usr/include/stdlib.h **** __extension__
 200:/usr/include/stdlib.h **** extern unsigned long long int strtouq (__const char *__restrict __nptr,
 201:/usr/include/stdlib.h **** 				       char **__restrict __endptr, int __base)
 202:/usr/include/stdlib.h ****      __THROW __nonnull ((1)) __wur;
 203:/usr/include/stdlib.h **** #endif /* GCC and use BSD.  */
 204:/usr/include/stdlib.h **** 
 205:/usr/include/stdlib.h **** #if defined __USE_ISOC99 || (defined __GLIBC_HAVE_LONG_LONG && defined __USE_MISC)
 206:/usr/include/stdlib.h **** __BEGIN_NAMESPACE_C99
 207:/usr/include/stdlib.h **** /* Convert a string to a quadword integer.  */
 208:/usr/include/stdlib.h **** __extension__
 209:/usr/include/stdlib.h **** extern long long int strtoll (__const char *__restrict __nptr,
 210:/usr/include/stdlib.h **** 			      char **__restrict __endptr, int __base)
 211:/usr/include/stdlib.h ****      __THROW __nonnull ((1)) __wur;
 212:/usr/include/stdlib.h **** /* Convert a string to an unsigned quadword integer.  */
 213:/usr/include/stdlib.h **** __extension__
 214:/usr/include/stdlib.h **** extern unsigned long long int strtoull (__const char *__restrict __nptr,
 215:/usr/include/stdlib.h **** 					char **__restrict __endptr, int __base)
 216:/usr/include/stdlib.h ****      __THROW __nonnull ((1)) __wur;
 217:/usr/include/stdlib.h **** __END_NAMESPACE_C99
 218:/usr/include/stdlib.h **** #endif /* ISO C99 or GCC and use MISC.  */
 219:/usr/include/stdlib.h **** 
 220:/usr/include/stdlib.h **** 
 221:/usr/include/stdlib.h **** #ifdef __USE_GNU
 222:/usr/include/stdlib.h **** /* The concept of one static locale per category is not very well
 223:/usr/include/stdlib.h ****    thought out.  Many applications will need to process its data using
 224:/usr/include/stdlib.h ****    information from several different locales.  Another problem is
 225:/usr/include/stdlib.h ****    the implementation of the internationalization handling in the
 226:/usr/include/stdlib.h ****    ISO C++ standard library.  To support this another set of
 227:/usr/include/stdlib.h ****    the functions using locale data exist which take an additional
 228:/usr/include/stdlib.h ****    argument.
 229:/usr/include/stdlib.h **** 
 230:/usr/include/stdlib.h ****    Attention: even though several *_l interfaces are part of POSIX:2008,
 231:/usr/include/stdlib.h ****    these are not.  */
 232:/usr/include/stdlib.h **** 
 233:/usr/include/stdlib.h **** /* Structure for reentrant locale using functions.  This is an
 234:/usr/include/stdlib.h ****    (almost) opaque type for the user level programs.  */
 235:/usr/include/stdlib.h **** # include <xlocale.h>
 236:/usr/include/stdlib.h **** 
 237:/usr/include/stdlib.h **** /* Special versions of the functions above which take the locale to
 238:/usr/include/stdlib.h ****    use as an additional parameter.  */
 239:/usr/include/stdlib.h **** extern long int strtol_l (__const char *__restrict __nptr,
 240:/usr/include/stdlib.h **** 			  char **__restrict __endptr, int __base,
 241:/usr/include/stdlib.h **** 			  __locale_t __loc) __THROW __nonnull ((1, 4)) __wur;
 242:/usr/include/stdlib.h **** 
 243:/usr/include/stdlib.h **** extern unsigned long int strtoul_l (__const char *__restrict __nptr,
 244:/usr/include/stdlib.h **** 				    char **__restrict __endptr,
 245:/usr/include/stdlib.h **** 				    int __base, __locale_t __loc)
 246:/usr/include/stdlib.h ****      __THROW __nonnull ((1, 4)) __wur;
 247:/usr/include/stdlib.h **** 
 248:/usr/include/stdlib.h **** __extension__
GAS LISTING /tmp/ccJkRw2J.s 			page 23


 249:/usr/include/stdlib.h **** extern long long int strtoll_l (__const char *__restrict __nptr,
 250:/usr/include/stdlib.h **** 				char **__restrict __endptr, int __base,
 251:/usr/include/stdlib.h **** 				__locale_t __loc)
 252:/usr/include/stdlib.h ****      __THROW __nonnull ((1, 4)) __wur;
 253:/usr/include/stdlib.h **** 
 254:/usr/include/stdlib.h **** __extension__
 255:/usr/include/stdlib.h **** extern unsigned long long int strtoull_l (__const char *__restrict __nptr,
 256:/usr/include/stdlib.h **** 					  char **__restrict __endptr,
 257:/usr/include/stdlib.h **** 					  int __base, __locale_t __loc)
 258:/usr/include/stdlib.h ****      __THROW __nonnull ((1, 4)) __wur;
 259:/usr/include/stdlib.h **** 
 260:/usr/include/stdlib.h **** extern double strtod_l (__const char *__restrict __nptr,
 261:/usr/include/stdlib.h **** 			char **__restrict __endptr, __locale_t __loc)
 262:/usr/include/stdlib.h ****      __THROW __nonnull ((1, 3)) __wur;
 263:/usr/include/stdlib.h **** 
 264:/usr/include/stdlib.h **** extern float strtof_l (__const char *__restrict __nptr,
 265:/usr/include/stdlib.h **** 		       char **__restrict __endptr, __locale_t __loc)
 266:/usr/include/stdlib.h ****      __THROW __nonnull ((1, 3)) __wur;
 267:/usr/include/stdlib.h **** 
 268:/usr/include/stdlib.h **** extern long double strtold_l (__const char *__restrict __nptr,
 269:/usr/include/stdlib.h **** 			      char **__restrict __endptr,
 270:/usr/include/stdlib.h **** 			      __locale_t __loc)
 271:/usr/include/stdlib.h ****      __THROW __nonnull ((1, 3)) __wur;
 272:/usr/include/stdlib.h **** #endif /* GNU */
 273:/usr/include/stdlib.h **** 
 274:/usr/include/stdlib.h **** 
 275:/usr/include/stdlib.h **** #ifdef __USE_EXTERN_INLINES
 276:/usr/include/stdlib.h **** __BEGIN_NAMESPACE_STD
 277:/usr/include/stdlib.h **** __extern_inline double
 278:/usr/include/stdlib.h **** __NTH (atof (__const char *__nptr))
 279:/usr/include/stdlib.h **** {
 280:/usr/include/stdlib.h ****   return strtod (__nptr, (char **) NULL);
 281:/usr/include/stdlib.h **** }
 282:/usr/include/stdlib.h **** __extern_inline int
 283:/usr/include/stdlib.h **** __NTH (atoi (__const char *__nptr))
 284:/usr/include/stdlib.h **** {
 285:/usr/include/stdlib.h ****   return (int) strtol (__nptr, (char **) NULL, 10);
 420              		.loc 5 286 0
 421 00d2 488B7E08 		movq	8(%rsi), %rdi
 422              	.LVL40:
 423 00d6 BA0A0000 		movl	$10, %edx
 423      00
 424 00db 31F6     		xorl	%esi, %esi
 425              	.LVL41:
 426 00dd E8000000 		call	strtol@PLT
 426      00
 427              	.LVL42:
 428              	.LBE591:
 429              	.LBE590:
  45:examples/customstamps.cpp ****     const size_t r = atoi(argv[1]), d = 2*r+1, w = 5*d, h = d;
 430              		.loc 1 45 0
 431 00e2 4863D8   		movslq	%eax, %rbx
 432              	.LVL43:
 433 00e5 488D6C1B 		leaq	1(%rbx,%rbx), %rbp
 433      01
 434              	.LVL44:
 435 00ea 4C8D6CAD 		leaq	0(%rbp,%rbp,4), %r13
GAS LISTING /tmp/ccJkRw2J.s 			page 24


 435      00
 436              	.LVL45:
  46:examples/customstamps.cpp ****     heatmap_t* hm = heatmap_new(w, h);
 437              		.loc 1 46 0
 438 00ef 89EE     		movl	%ebp, %esi
 439 00f1 4489EF   		movl	%r13d, %edi
 440 00f4 E8000000 		call	heatmap_new@PLT
 440      00
 441              	.LVL46:
  48:examples/customstamps.cpp ****     auto s_def = heatmap_stamp_gen(r);
 442              		.loc 1 48 0
 443 00f9 89DF     		movl	%ebx, %edi
  46:examples/customstamps.cpp ****     heatmap_t* hm = heatmap_new(w, h);
 444              		.loc 1 46 0
 445 00fb 4989C4   		movq	%rax, %r12
 446              	.LVL47:
  48:examples/customstamps.cpp ****     auto s_def = heatmap_stamp_gen(r);
 447              		.loc 1 48 0
 448 00fe E8000000 		call	heatmap_stamp_gen@PLT
 448      00
 449              	.LVL48:
  49:examples/customstamps.cpp ****     auto s_fat = heatmap_stamp_gen_nonlinear(r, [](float d){return d*d;});
 450              		.loc 1 49 0
 451 0103 488D3500 		leaq	_ZZ4mainENUlfE_4_FUNEf(%rip), %rsi
 451      000000
 452 010a 89DF     		movl	%ebx, %edi
  48:examples/customstamps.cpp ****     auto s_def = heatmap_stamp_gen(r);
 453              		.loc 1 48 0
 454 010c 4989C7   		movq	%rax, %r15
 455              	.LVL49:
  49:examples/customstamps.cpp ****     auto s_fat = heatmap_stamp_gen_nonlinear(r, [](float d){return d*d;});
 456              		.loc 1 49 0
 457 010f E8000000 		call	heatmap_stamp_gen_nonlinear@PLT
 457      00
 458              	.LVL50:
  50:examples/customstamps.cpp ****     auto s_FAT = heatmap_stamp_gen_nonlinear(r, [](float d){return d*d*d*d;});
 459              		.loc 1 50 0
 460 0114 488D3500 		leaq	_ZZ4mainENUlfE0_4_FUNEf(%rip), %rsi
 460      000000
 461 011b 89DF     		movl	%ebx, %edi
  49:examples/customstamps.cpp ****     auto s_fat = heatmap_stamp_gen_nonlinear(r, [](float d){return d*d;});
 462              		.loc 1 49 0
 463 011d 4989C6   		movq	%rax, %r14
 464              	.LVL51:
  50:examples/customstamps.cpp ****     auto s_FAT = heatmap_stamp_gen_nonlinear(r, [](float d){return d*d*d*d;});
 465              		.loc 1 50 0
 466 0120 E8000000 		call	heatmap_stamp_gen_nonlinear@PLT
 466      00
 467              	.LVL52:
  51:examples/customstamps.cpp ****     auto s_pty = heatmap_stamp_gen_nonlinear(r, [](float d){return sqrtf(d);});
 468              		.loc 1 51 0
 469 0125 488D3500 		leaq	_ZZ4mainENUlfE1_4_FUNEf(%rip), %rsi
 469      000000
 470 012c 89DF     		movl	%ebx, %edi
  50:examples/customstamps.cpp ****     auto s_FAT = heatmap_stamp_gen_nonlinear(r, [](float d){return d*d*d*d;});
 471              		.loc 1 50 0
 472 012e 48890424 		movq	%rax, (%rsp)
GAS LISTING /tmp/ccJkRw2J.s 			page 25


 473              	.LVL53:
  51:examples/customstamps.cpp ****     auto s_pty = heatmap_stamp_gen_nonlinear(r, [](float d){return sqrtf(d);});
 474              		.loc 1 51 0
 475 0132 E8000000 		call	heatmap_stamp_gen_nonlinear@PLT
 475      00
 476              	.LVL54:
  52:examples/customstamps.cpp ****     auto s_PTY = heatmap_stamp_gen_nonlinear(r, [](float d){return sqrtf(sqrtf(sqrtf(d)));});
 477              		.loc 1 52 0
 478 0137 488D3500 		leaq	_ZZ4mainENUlfE2_4_FUNEf(%rip), %rsi
 478      000000
 479 013e 89DF     		movl	%ebx, %edi
  51:examples/customstamps.cpp ****     auto s_pty = heatmap_stamp_gen_nonlinear(r, [](float d){return sqrtf(d);});
 480              		.loc 1 51 0
 481 0140 48894424 		movq	%rax, 8(%rsp)
 481      08
 482              	.LVL55:
  52:examples/customstamps.cpp ****     auto s_PTY = heatmap_stamp_gen_nonlinear(r, [](float d){return sqrtf(sqrtf(sqrtf(d)));});
 483              		.loc 1 52 0
 484 0145 E8000000 		call	heatmap_stamp_gen_nonlinear@PLT
 484      00
 485              	.LVL56:
  54:examples/customstamps.cpp ****     heatmap_add_point_with_stamp(hm,     r, r, s_def);
 486              		.loc 1 54 0
 487 014a 4C89F9   		movq	%r15, %rcx
 488 014d 89DA     		movl	%ebx, %edx
 489 014f 89DE     		movl	%ebx, %esi
 490 0151 4C89E7   		movq	%r12, %rdi
  52:examples/customstamps.cpp ****     auto s_PTY = heatmap_stamp_gen_nonlinear(r, [](float d){return sqrtf(sqrtf(sqrtf(d)));});
 491              		.loc 1 52 0
 492 0154 48894424 		movq	%rax, 16(%rsp)
 492      10
 493              	.LVL57:
  54:examples/customstamps.cpp ****     heatmap_add_point_with_stamp(hm,     r, r, s_def);
 494              		.loc 1 54 0
 495 0159 E8000000 		call	heatmap_add_point_with_stamp@PLT
 495      00
 496              	.LVL58:
  55:examples/customstamps.cpp ****     heatmap_add_point_with_stamp(hm,   d+r, r, s_fat);
 497              		.loc 1 55 0
 498 015e 8D342B   		leal	(%rbx,%rbp), %esi
 499 0161 4C89F1   		movq	%r14, %rcx
 500 0164 89DA     		movl	%ebx, %edx
 501 0166 4C89E7   		movq	%r12, %rdi
 502 0169 E8000000 		call	heatmap_add_point_with_stamp@PLT
 502      00
 503              	.LVL59:
  56:examples/customstamps.cpp ****     heatmap_add_point_with_stamp(hm, 2*d+r, r, s_FAT);
 504              		.loc 1 56 0
 505 016e 8D046B   		leal	(%rbx,%rbp,2), %eax
 506 0171 488B0C24 		movq	(%rsp), %rcx
 507 0175 89DA     		movl	%ebx, %edx
 508 0177 4C89E7   		movq	%r12, %rdi
 509 017a 89C6     		movl	%eax, %esi
 510 017c 8944241C 		movl	%eax, 28(%rsp)
 511 0180 E8000000 		call	heatmap_add_point_with_stamp@PLT
 511      00
 512              	.LVL60:
GAS LISTING /tmp/ccJkRw2J.s 			page 26


  57:examples/customstamps.cpp ****     heatmap_add_point_with_stamp(hm, 3*d+r, r, s_pty);
 513              		.loc 1 57 0
 514 0185 8B44241C 		movl	28(%rsp), %eax
 515 0189 488B4C24 		movq	8(%rsp), %rcx
 515      08
 516 018e 89DA     		movl	%ebx, %edx
 517 0190 4C89E7   		movq	%r12, %rdi
 518 0193 01E8     		addl	%ebp, %eax
 519 0195 89C6     		movl	%eax, %esi
 520 0197 8944241C 		movl	%eax, 28(%rsp)
 521 019b E8000000 		call	heatmap_add_point_with_stamp@PLT
 521      00
 522              	.LVL61:
  58:examples/customstamps.cpp ****     heatmap_add_point_with_stamp(hm, 4*d+r, r, s_PTY);
 523              		.loc 1 58 0
 524 01a0 8B44241C 		movl	28(%rsp), %eax
 525 01a4 488B4C24 		movq	16(%rsp), %rcx
 525      10
 526 01a9 89DA     		movl	%ebx, %edx
 527 01ab 4C89E7   		movq	%r12, %rdi
 528 01ae 8D3428   		leal	(%rax,%rbp), %esi
 529 01b1 E8000000 		call	heatmap_add_point_with_stamp@PLT
 529      00
 530              	.LVL62:
  60:examples/customstamps.cpp ****     heatmap_stamp_free(s_def);
 531              		.loc 1 60 0
 532 01b6 4C89FF   		movq	%r15, %rdi
 533 01b9 E8000000 		call	heatmap_stamp_free@PLT
 533      00
 534              	.LVL63:
  61:examples/customstamps.cpp ****     heatmap_stamp_free(s_fat);
 535              		.loc 1 61 0
 536 01be 4C89F7   		movq	%r14, %rdi
 537 01c1 4C8D34AD 		leaq	0(,%rbp,4), %r14
 537      00000000 
 538              	.LVL64:
 539 01c9 E8000000 		call	heatmap_stamp_free@PLT
 539      00
 540              	.LVL65:
  62:examples/customstamps.cpp ****     heatmap_stamp_free(s_FAT);
 541              		.loc 1 62 0
 542 01ce 488B3C24 		movq	(%rsp), %rdi
  66:examples/customstamps.cpp ****     std::vector<unsigned char> image(w*h*4);
 543              		.loc 1 66 0
 544 01d2 4D0FAFF5 		imulq	%r13, %r14
  62:examples/customstamps.cpp ****     heatmap_stamp_free(s_FAT);
 545              		.loc 1 62 0
 546 01d6 E8000000 		call	heatmap_stamp_free@PLT
 546      00
 547              	.LVL66:
  63:examples/customstamps.cpp ****     heatmap_stamp_free(s_pty);
 548              		.loc 1 63 0
 549 01db 488B7C24 		movq	8(%rsp), %rdi
 549      08
 550 01e0 E8000000 		call	heatmap_stamp_free@PLT
 550      00
 551              	.LVL67:
GAS LISTING /tmp/ccJkRw2J.s 			page 27


  64:examples/customstamps.cpp ****     heatmap_stamp_free(s_PTY);
 552              		.loc 1 64 0
 553 01e5 488B7C24 		movq	16(%rsp), %rdi
 553      10
 554 01ea E8000000 		call	heatmap_stamp_free@PLT
 554      00
 555              	.LVL68:
 556              	.LBB592:
 557              	.LBB593:
 558              	.LBB594:
 559              	.LBB595:
 560              	.LBB596:
 561              	.LBB597:
 562              		.file 6 "/opt/gcc/4.9.2/include/c++/4.9.2/bits/stl_vector.h"
   0:/opt/gcc/4.9.2/include/c++/4.9.2/bits/stl_vector.h **** // Vector implementation -*- C++ -*-
   1:/opt/gcc/4.9.2/include/c++/4.9.2/bits/stl_vector.h **** 
   2:/opt/gcc/4.9.2/include/c++/4.9.2/bits/stl_vector.h **** // Copyright (C) 2001-2014 Free Software Foundation, Inc.
   3:/opt/gcc/4.9.2/include/c++/4.9.2/bits/stl_vector.h **** //
   4:/opt/gcc/4.9.2/include/c++/4.9.2/bits/stl_vector.h **** // This file is part of the GNU ISO C++ Library.  This library is free
   5:/opt/gcc/4.9.2/include/c++/4.9.2/bits/stl_vector.h **** // software; you can redistribute it and/or modify it under the
   6:/opt/gcc/4.9.2/include/c++/4.9.2/bits/stl_vector.h **** // terms of the GNU General Public License as published by the
   7:/opt/gcc/4.9.2/include/c++/4.9.2/bits/stl_vector.h **** // Free Software Foundation; either version 3, or (at your option)
   8:/opt/gcc/4.9.2/include/c++/4.9.2/bits/stl_vector.h **** // any later version.
   9:/opt/gcc/4.9.2/include/c++/4.9.2/bits/stl_vector.h **** 
  10:/opt/gcc/4.9.2/include/c++/4.9.2/bits/stl_vector.h **** // This library is distributed in the hope that it will be useful,
  11:/opt/gcc/4.9.2/include/c++/4.9.2/bits/stl_vector.h **** // but WITHOUT ANY WARRANTY; without even the implied warranty of
  12:/opt/gcc/4.9.2/include/c++/4.9.2/bits/stl_vector.h **** // MERCHANTABILITY or FITNESS FOR A PARTICULAR PURPOSE.  See the
  13:/opt/gcc/4.9.2/include/c++/4.9.2/bits/stl_vector.h **** // GNU General Public License for more details.
  14:/opt/gcc/4.9.2/include/c++/4.9.2/bits/stl_vector.h **** 
  15:/opt/gcc/4.9.2/include/c++/4.9.2/bits/stl_vector.h **** // Under Section 7 of GPL version 3, you are granted additional
  16:/opt/gcc/4.9.2/include/c++/4.9.2/bits/stl_vector.h **** // permissions described in the GCC Runtime Library Exception, version
  17:/opt/gcc/4.9.2/include/c++/4.9.2/bits/stl_vector.h **** // 3.1, as published by the Free Software Foundation.
  18:/opt/gcc/4.9.2/include/c++/4.9.2/bits/stl_vector.h **** 
  19:/opt/gcc/4.9.2/include/c++/4.9.2/bits/stl_vector.h **** // You should have received a copy of the GNU General Public License and
  20:/opt/gcc/4.9.2/include/c++/4.9.2/bits/stl_vector.h **** // a copy of the GCC Runtime Library Exception along with this program;
  21:/opt/gcc/4.9.2/include/c++/4.9.2/bits/stl_vector.h **** // see the files COPYING3 and COPYING.RUNTIME respectively.  If not, see
  22:/opt/gcc/4.9.2/include/c++/4.9.2/bits/stl_vector.h **** // <http://www.gnu.org/licenses/>.
  23:/opt/gcc/4.9.2/include/c++/4.9.2/bits/stl_vector.h **** 
  24:/opt/gcc/4.9.2/include/c++/4.9.2/bits/stl_vector.h **** /*
  25:/opt/gcc/4.9.2/include/c++/4.9.2/bits/stl_vector.h ****  *
  26:/opt/gcc/4.9.2/include/c++/4.9.2/bits/stl_vector.h ****  * Copyright (c) 1994
  27:/opt/gcc/4.9.2/include/c++/4.9.2/bits/stl_vector.h ****  * Hewlett-Packard Company
  28:/opt/gcc/4.9.2/include/c++/4.9.2/bits/stl_vector.h ****  *
  29:/opt/gcc/4.9.2/include/c++/4.9.2/bits/stl_vector.h ****  * Permission to use, copy, modify, distribute and sell this software
  30:/opt/gcc/4.9.2/include/c++/4.9.2/bits/stl_vector.h ****  * and its documentation for any purpose is hereby granted without fee,
  31:/opt/gcc/4.9.2/include/c++/4.9.2/bits/stl_vector.h ****  * provided that the above copyright notice appear in all copies and
  32:/opt/gcc/4.9.2/include/c++/4.9.2/bits/stl_vector.h ****  * that both that copyright notice and this permission notice appear
  33:/opt/gcc/4.9.2/include/c++/4.9.2/bits/stl_vector.h ****  * in supporting documentation.  Hewlett-Packard Company makes no
  34:/opt/gcc/4.9.2/include/c++/4.9.2/bits/stl_vector.h ****  * representations about the suitability of this software for any
  35:/opt/gcc/4.9.2/include/c++/4.9.2/bits/stl_vector.h ****  * purpose.  It is provided "as is" without express or implied warranty.
  36:/opt/gcc/4.9.2/include/c++/4.9.2/bits/stl_vector.h ****  *
  37:/opt/gcc/4.9.2/include/c++/4.9.2/bits/stl_vector.h ****  *
  38:/opt/gcc/4.9.2/include/c++/4.9.2/bits/stl_vector.h ****  * Copyright (c) 1996
  39:/opt/gcc/4.9.2/include/c++/4.9.2/bits/stl_vector.h ****  * Silicon Graphics Computer Systems, Inc.
  40:/opt/gcc/4.9.2/include/c++/4.9.2/bits/stl_vector.h ****  *
  41:/opt/gcc/4.9.2/include/c++/4.9.2/bits/stl_vector.h ****  * Permission to use, copy, modify, distribute and sell this software
  42:/opt/gcc/4.9.2/include/c++/4.9.2/bits/stl_vector.h ****  * and its documentation for any purpose is hereby granted without fee,
GAS LISTING /tmp/ccJkRw2J.s 			page 28


  43:/opt/gcc/4.9.2/include/c++/4.9.2/bits/stl_vector.h ****  * provided that the above copyright notice appear in all copies and
  44:/opt/gcc/4.9.2/include/c++/4.9.2/bits/stl_vector.h ****  * that both that copyright notice and this permission notice appear
  45:/opt/gcc/4.9.2/include/c++/4.9.2/bits/stl_vector.h ****  * in supporting documentation.  Silicon Graphics makes no
  46:/opt/gcc/4.9.2/include/c++/4.9.2/bits/stl_vector.h ****  * representations about the suitability of this  software for any
  47:/opt/gcc/4.9.2/include/c++/4.9.2/bits/stl_vector.h ****  * purpose.  It is provided "as is" without express or implied warranty.
  48:/opt/gcc/4.9.2/include/c++/4.9.2/bits/stl_vector.h ****  */
  49:/opt/gcc/4.9.2/include/c++/4.9.2/bits/stl_vector.h **** 
  50:/opt/gcc/4.9.2/include/c++/4.9.2/bits/stl_vector.h **** /** @file bits/stl_vector.h
  51:/opt/gcc/4.9.2/include/c++/4.9.2/bits/stl_vector.h ****  *  This is an internal header file, included by other library headers.
  52:/opt/gcc/4.9.2/include/c++/4.9.2/bits/stl_vector.h ****  *  Do not attempt to use it directly. @headername{vector}
  53:/opt/gcc/4.9.2/include/c++/4.9.2/bits/stl_vector.h ****  */
  54:/opt/gcc/4.9.2/include/c++/4.9.2/bits/stl_vector.h **** 
  55:/opt/gcc/4.9.2/include/c++/4.9.2/bits/stl_vector.h **** #ifndef _STL_VECTOR_H
  56:/opt/gcc/4.9.2/include/c++/4.9.2/bits/stl_vector.h **** #define _STL_VECTOR_H 1
  57:/opt/gcc/4.9.2/include/c++/4.9.2/bits/stl_vector.h **** 
  58:/opt/gcc/4.9.2/include/c++/4.9.2/bits/stl_vector.h **** #include <bits/stl_iterator_base_funcs.h>
  59:/opt/gcc/4.9.2/include/c++/4.9.2/bits/stl_vector.h **** #include <bits/functexcept.h>
  60:/opt/gcc/4.9.2/include/c++/4.9.2/bits/stl_vector.h **** #include <bits/concept_check.h>
  61:/opt/gcc/4.9.2/include/c++/4.9.2/bits/stl_vector.h **** #if __cplusplus >= 201103L
  62:/opt/gcc/4.9.2/include/c++/4.9.2/bits/stl_vector.h **** #include <initializer_list>
  63:/opt/gcc/4.9.2/include/c++/4.9.2/bits/stl_vector.h **** #endif
  64:/opt/gcc/4.9.2/include/c++/4.9.2/bits/stl_vector.h **** 
  65:/opt/gcc/4.9.2/include/c++/4.9.2/bits/stl_vector.h **** namespace std _GLIBCXX_VISIBILITY(default)
  66:/opt/gcc/4.9.2/include/c++/4.9.2/bits/stl_vector.h **** {
  67:/opt/gcc/4.9.2/include/c++/4.9.2/bits/stl_vector.h **** _GLIBCXX_BEGIN_NAMESPACE_CONTAINER
  68:/opt/gcc/4.9.2/include/c++/4.9.2/bits/stl_vector.h **** 
  69:/opt/gcc/4.9.2/include/c++/4.9.2/bits/stl_vector.h ****   /// See bits/stl_deque.h's _Deque_base for an explanation.
  70:/opt/gcc/4.9.2/include/c++/4.9.2/bits/stl_vector.h ****   template<typename _Tp, typename _Alloc>
  71:/opt/gcc/4.9.2/include/c++/4.9.2/bits/stl_vector.h ****     struct _Vector_base
  72:/opt/gcc/4.9.2/include/c++/4.9.2/bits/stl_vector.h ****     {
  73:/opt/gcc/4.9.2/include/c++/4.9.2/bits/stl_vector.h ****       typedef typename __gnu_cxx::__alloc_traits<_Alloc>::template
  74:/opt/gcc/4.9.2/include/c++/4.9.2/bits/stl_vector.h ****         rebind<_Tp>::other _Tp_alloc_type;
  75:/opt/gcc/4.9.2/include/c++/4.9.2/bits/stl_vector.h ****       typedef typename __gnu_cxx::__alloc_traits<_Tp_alloc_type>::pointer
  76:/opt/gcc/4.9.2/include/c++/4.9.2/bits/stl_vector.h ****        	pointer;
  77:/opt/gcc/4.9.2/include/c++/4.9.2/bits/stl_vector.h **** 
  78:/opt/gcc/4.9.2/include/c++/4.9.2/bits/stl_vector.h ****       struct _Vector_impl 
  79:/opt/gcc/4.9.2/include/c++/4.9.2/bits/stl_vector.h ****       : public _Tp_alloc_type
  80:/opt/gcc/4.9.2/include/c++/4.9.2/bits/stl_vector.h ****       {
  81:/opt/gcc/4.9.2/include/c++/4.9.2/bits/stl_vector.h **** 	pointer _M_start;
  82:/opt/gcc/4.9.2/include/c++/4.9.2/bits/stl_vector.h **** 	pointer _M_finish;
  83:/opt/gcc/4.9.2/include/c++/4.9.2/bits/stl_vector.h **** 	pointer _M_end_of_storage;
  84:/opt/gcc/4.9.2/include/c++/4.9.2/bits/stl_vector.h **** 
  85:/opt/gcc/4.9.2/include/c++/4.9.2/bits/stl_vector.h **** 	_Vector_impl()
  86:/opt/gcc/4.9.2/include/c++/4.9.2/bits/stl_vector.h **** 	: _Tp_alloc_type(), _M_start(0), _M_finish(0), _M_end_of_storage(0)
  87:/opt/gcc/4.9.2/include/c++/4.9.2/bits/stl_vector.h **** 	{ }
  88:/opt/gcc/4.9.2/include/c++/4.9.2/bits/stl_vector.h **** 
  89:/opt/gcc/4.9.2/include/c++/4.9.2/bits/stl_vector.h **** 	_Vector_impl(_Tp_alloc_type const& __a) _GLIBCXX_NOEXCEPT
  90:/opt/gcc/4.9.2/include/c++/4.9.2/bits/stl_vector.h **** 	: _Tp_alloc_type(__a), _M_start(0), _M_finish(0), _M_end_of_storage(0)
  91:/opt/gcc/4.9.2/include/c++/4.9.2/bits/stl_vector.h **** 	{ }
  92:/opt/gcc/4.9.2/include/c++/4.9.2/bits/stl_vector.h **** 
  93:/opt/gcc/4.9.2/include/c++/4.9.2/bits/stl_vector.h **** #if __cplusplus >= 201103L
  94:/opt/gcc/4.9.2/include/c++/4.9.2/bits/stl_vector.h **** 	_Vector_impl(_Tp_alloc_type&& __a) noexcept
  95:/opt/gcc/4.9.2/include/c++/4.9.2/bits/stl_vector.h **** 	: _Tp_alloc_type(std::move(__a)),
  96:/opt/gcc/4.9.2/include/c++/4.9.2/bits/stl_vector.h **** 	  _M_start(0), _M_finish(0), _M_end_of_storage(0)
  97:/opt/gcc/4.9.2/include/c++/4.9.2/bits/stl_vector.h **** 	{ }
  98:/opt/gcc/4.9.2/include/c++/4.9.2/bits/stl_vector.h **** #endif
  99:/opt/gcc/4.9.2/include/c++/4.9.2/bits/stl_vector.h **** 
GAS LISTING /tmp/ccJkRw2J.s 			page 29


 100:/opt/gcc/4.9.2/include/c++/4.9.2/bits/stl_vector.h **** 	void _M_swap_data(_Vector_impl& __x) _GLIBCXX_NOEXCEPT
 101:/opt/gcc/4.9.2/include/c++/4.9.2/bits/stl_vector.h **** 	{
 102:/opt/gcc/4.9.2/include/c++/4.9.2/bits/stl_vector.h **** 	  std::swap(_M_start, __x._M_start);
 103:/opt/gcc/4.9.2/include/c++/4.9.2/bits/stl_vector.h **** 	  std::swap(_M_finish, __x._M_finish);
 104:/opt/gcc/4.9.2/include/c++/4.9.2/bits/stl_vector.h **** 	  std::swap(_M_end_of_storage, __x._M_end_of_storage);
 105:/opt/gcc/4.9.2/include/c++/4.9.2/bits/stl_vector.h **** 	}
 106:/opt/gcc/4.9.2/include/c++/4.9.2/bits/stl_vector.h ****       };
 107:/opt/gcc/4.9.2/include/c++/4.9.2/bits/stl_vector.h ****       
 108:/opt/gcc/4.9.2/include/c++/4.9.2/bits/stl_vector.h ****     public:
 109:/opt/gcc/4.9.2/include/c++/4.9.2/bits/stl_vector.h ****       typedef _Alloc allocator_type;
 110:/opt/gcc/4.9.2/include/c++/4.9.2/bits/stl_vector.h **** 
 111:/opt/gcc/4.9.2/include/c++/4.9.2/bits/stl_vector.h ****       _Tp_alloc_type&
 112:/opt/gcc/4.9.2/include/c++/4.9.2/bits/stl_vector.h ****       _M_get_Tp_allocator() _GLIBCXX_NOEXCEPT
 113:/opt/gcc/4.9.2/include/c++/4.9.2/bits/stl_vector.h ****       { return *static_cast<_Tp_alloc_type*>(&this->_M_impl); }
 114:/opt/gcc/4.9.2/include/c++/4.9.2/bits/stl_vector.h **** 
 115:/opt/gcc/4.9.2/include/c++/4.9.2/bits/stl_vector.h ****       const _Tp_alloc_type&
 116:/opt/gcc/4.9.2/include/c++/4.9.2/bits/stl_vector.h ****       _M_get_Tp_allocator() const _GLIBCXX_NOEXCEPT
 117:/opt/gcc/4.9.2/include/c++/4.9.2/bits/stl_vector.h ****       { return *static_cast<const _Tp_alloc_type*>(&this->_M_impl); }
 118:/opt/gcc/4.9.2/include/c++/4.9.2/bits/stl_vector.h **** 
 119:/opt/gcc/4.9.2/include/c++/4.9.2/bits/stl_vector.h ****       allocator_type
 120:/opt/gcc/4.9.2/include/c++/4.9.2/bits/stl_vector.h ****       get_allocator() const _GLIBCXX_NOEXCEPT
 121:/opt/gcc/4.9.2/include/c++/4.9.2/bits/stl_vector.h ****       { return allocator_type(_M_get_Tp_allocator()); }
 122:/opt/gcc/4.9.2/include/c++/4.9.2/bits/stl_vector.h **** 
 123:/opt/gcc/4.9.2/include/c++/4.9.2/bits/stl_vector.h ****       _Vector_base()
 124:/opt/gcc/4.9.2/include/c++/4.9.2/bits/stl_vector.h ****       : _M_impl() { }
 125:/opt/gcc/4.9.2/include/c++/4.9.2/bits/stl_vector.h **** 
 126:/opt/gcc/4.9.2/include/c++/4.9.2/bits/stl_vector.h ****       _Vector_base(const allocator_type& __a) _GLIBCXX_NOEXCEPT
 127:/opt/gcc/4.9.2/include/c++/4.9.2/bits/stl_vector.h ****       : _M_impl(__a) { }
 128:/opt/gcc/4.9.2/include/c++/4.9.2/bits/stl_vector.h **** 
 129:/opt/gcc/4.9.2/include/c++/4.9.2/bits/stl_vector.h ****       _Vector_base(size_t __n)
 130:/opt/gcc/4.9.2/include/c++/4.9.2/bits/stl_vector.h ****       : _M_impl()
 131:/opt/gcc/4.9.2/include/c++/4.9.2/bits/stl_vector.h ****       { _M_create_storage(__n); }
 132:/opt/gcc/4.9.2/include/c++/4.9.2/bits/stl_vector.h **** 
 133:/opt/gcc/4.9.2/include/c++/4.9.2/bits/stl_vector.h ****       _Vector_base(size_t __n, const allocator_type& __a)
 134:/opt/gcc/4.9.2/include/c++/4.9.2/bits/stl_vector.h ****       : _M_impl(__a)
 135:/opt/gcc/4.9.2/include/c++/4.9.2/bits/stl_vector.h ****       { _M_create_storage(__n); }
 136:/opt/gcc/4.9.2/include/c++/4.9.2/bits/stl_vector.h **** 
 137:/opt/gcc/4.9.2/include/c++/4.9.2/bits/stl_vector.h **** #if __cplusplus >= 201103L
 138:/opt/gcc/4.9.2/include/c++/4.9.2/bits/stl_vector.h ****       _Vector_base(_Tp_alloc_type&& __a) noexcept
 139:/opt/gcc/4.9.2/include/c++/4.9.2/bits/stl_vector.h ****       : _M_impl(std::move(__a)) { }
 140:/opt/gcc/4.9.2/include/c++/4.9.2/bits/stl_vector.h **** 
 141:/opt/gcc/4.9.2/include/c++/4.9.2/bits/stl_vector.h ****       _Vector_base(_Vector_base&& __x) noexcept
 142:/opt/gcc/4.9.2/include/c++/4.9.2/bits/stl_vector.h ****       : _M_impl(std::move(__x._M_get_Tp_allocator()))
 143:/opt/gcc/4.9.2/include/c++/4.9.2/bits/stl_vector.h ****       { this->_M_impl._M_swap_data(__x._M_impl); }
 144:/opt/gcc/4.9.2/include/c++/4.9.2/bits/stl_vector.h **** 
 145:/opt/gcc/4.9.2/include/c++/4.9.2/bits/stl_vector.h ****       _Vector_base(_Vector_base&& __x, const allocator_type& __a)
 146:/opt/gcc/4.9.2/include/c++/4.9.2/bits/stl_vector.h ****       : _M_impl(__a)
 147:/opt/gcc/4.9.2/include/c++/4.9.2/bits/stl_vector.h ****       {
 148:/opt/gcc/4.9.2/include/c++/4.9.2/bits/stl_vector.h **** 	if (__x.get_allocator() == __a)
 149:/opt/gcc/4.9.2/include/c++/4.9.2/bits/stl_vector.h **** 	  this->_M_impl._M_swap_data(__x._M_impl);
 150:/opt/gcc/4.9.2/include/c++/4.9.2/bits/stl_vector.h **** 	else
 151:/opt/gcc/4.9.2/include/c++/4.9.2/bits/stl_vector.h **** 	  {
 152:/opt/gcc/4.9.2/include/c++/4.9.2/bits/stl_vector.h **** 	    size_t __n = __x._M_impl._M_finish - __x._M_impl._M_start;
 153:/opt/gcc/4.9.2/include/c++/4.9.2/bits/stl_vector.h **** 	    _M_create_storage(__n);
 154:/opt/gcc/4.9.2/include/c++/4.9.2/bits/stl_vector.h **** 	  }
 155:/opt/gcc/4.9.2/include/c++/4.9.2/bits/stl_vector.h ****       }
 156:/opt/gcc/4.9.2/include/c++/4.9.2/bits/stl_vector.h **** #endif
GAS LISTING /tmp/ccJkRw2J.s 			page 30


 157:/opt/gcc/4.9.2/include/c++/4.9.2/bits/stl_vector.h **** 
 158:/opt/gcc/4.9.2/include/c++/4.9.2/bits/stl_vector.h ****       ~_Vector_base() _GLIBCXX_NOEXCEPT
 159:/opt/gcc/4.9.2/include/c++/4.9.2/bits/stl_vector.h ****       { _M_deallocate(this->_M_impl._M_start, this->_M_impl._M_end_of_storage
 160:/opt/gcc/4.9.2/include/c++/4.9.2/bits/stl_vector.h **** 		      - this->_M_impl._M_start); }
 161:/opt/gcc/4.9.2/include/c++/4.9.2/bits/stl_vector.h **** 
 162:/opt/gcc/4.9.2/include/c++/4.9.2/bits/stl_vector.h ****     public:
 163:/opt/gcc/4.9.2/include/c++/4.9.2/bits/stl_vector.h ****       _Vector_impl _M_impl;
 164:/opt/gcc/4.9.2/include/c++/4.9.2/bits/stl_vector.h **** 
 165:/opt/gcc/4.9.2/include/c++/4.9.2/bits/stl_vector.h ****       pointer
 166:/opt/gcc/4.9.2/include/c++/4.9.2/bits/stl_vector.h ****       _M_allocate(size_t __n)
 167:/opt/gcc/4.9.2/include/c++/4.9.2/bits/stl_vector.h ****       {
 168:/opt/gcc/4.9.2/include/c++/4.9.2/bits/stl_vector.h **** 	typedef __gnu_cxx::__alloc_traits<_Tp_alloc_type> _Tr;
 169:/opt/gcc/4.9.2/include/c++/4.9.2/bits/stl_vector.h **** 	return __n != 0 ? _Tr::allocate(_M_impl, __n) : 0;
 563              		.loc 6 170 0
 564 01ef 31C0     		xorl	%eax, %eax
 565 01f1 4D85F6   		testq	%r14, %r14
 566              	.LBE597:
 567              	.LBE596:
 568              	.LBE595:
 569              	.LBE594:
 570              	.LBB605:
 571              	.LBB606:
  91:/opt/gcc/4.9.2/include/c++/4.9.2/bits/stl_vector.h **** 	: _Tp_alloc_type(__a), _M_start(0), _M_finish(0), _M_end_of_storage(0)
 572              		.loc 6 91 0
 573 01f4 48C74424 		movq	$0, 64(%rsp)
 573      40000000 
 573      00
 574 01fd 48C74424 		movq	$0, 72(%rsp)
 574      48000000 
 574      00
 575 0206 48C74424 		movq	$0, 80(%rsp)
 575      50000000 
 575      00
 576              	.LVL69:
 577              	.LBE606:
 578              	.LBE605:
 579              	.LBB607:
 580              	.LBB603:
 581              	.LBB602:
 582              	.LBB601:
 583              		.loc 6 170 0
 584 020f 7408     		je	.L29
 585              	.LVL70:
 586              	.LBB598:
 587              	.LBB599:
 588              	.LBB600:
 589              		.file 7 "/opt/gcc/4.9.2/include/c++/4.9.2/ext/new_allocator.h"
   0:/opt/gcc/4.9.2/include/c++/4.9.2/ext/new_allocator.h **** // Allocator that wraps operator new -*- C++ -*-
   1:/opt/gcc/4.9.2/include/c++/4.9.2/ext/new_allocator.h **** 
   2:/opt/gcc/4.9.2/include/c++/4.9.2/ext/new_allocator.h **** // Copyright (C) 2001-2014 Free Software Foundation, Inc.
   3:/opt/gcc/4.9.2/include/c++/4.9.2/ext/new_allocator.h **** //
   4:/opt/gcc/4.9.2/include/c++/4.9.2/ext/new_allocator.h **** // This file is part of the GNU ISO C++ Library.  This library is free
   5:/opt/gcc/4.9.2/include/c++/4.9.2/ext/new_allocator.h **** // software; you can redistribute it and/or modify it under the
   6:/opt/gcc/4.9.2/include/c++/4.9.2/ext/new_allocator.h **** // terms of the GNU General Public License as published by the
   7:/opt/gcc/4.9.2/include/c++/4.9.2/ext/new_allocator.h **** // Free Software Foundation; either version 3, or (at your option)
   8:/opt/gcc/4.9.2/include/c++/4.9.2/ext/new_allocator.h **** // any later version.
   9:/opt/gcc/4.9.2/include/c++/4.9.2/ext/new_allocator.h **** 
GAS LISTING /tmp/ccJkRw2J.s 			page 31


  10:/opt/gcc/4.9.2/include/c++/4.9.2/ext/new_allocator.h **** // This library is distributed in the hope that it will be useful,
  11:/opt/gcc/4.9.2/include/c++/4.9.2/ext/new_allocator.h **** // but WITHOUT ANY WARRANTY; without even the implied warranty of
  12:/opt/gcc/4.9.2/include/c++/4.9.2/ext/new_allocator.h **** // MERCHANTABILITY or FITNESS FOR A PARTICULAR PURPOSE.  See the
  13:/opt/gcc/4.9.2/include/c++/4.9.2/ext/new_allocator.h **** // GNU General Public License for more details.
  14:/opt/gcc/4.9.2/include/c++/4.9.2/ext/new_allocator.h **** 
  15:/opt/gcc/4.9.2/include/c++/4.9.2/ext/new_allocator.h **** // Under Section 7 of GPL version 3, you are granted additional
  16:/opt/gcc/4.9.2/include/c++/4.9.2/ext/new_allocator.h **** // permissions described in the GCC Runtime Library Exception, version
  17:/opt/gcc/4.9.2/include/c++/4.9.2/ext/new_allocator.h **** // 3.1, as published by the Free Software Foundation.
  18:/opt/gcc/4.9.2/include/c++/4.9.2/ext/new_allocator.h **** 
  19:/opt/gcc/4.9.2/include/c++/4.9.2/ext/new_allocator.h **** // You should have received a copy of the GNU General Public License and
  20:/opt/gcc/4.9.2/include/c++/4.9.2/ext/new_allocator.h **** // a copy of the GCC Runtime Library Exception along with this program;
  21:/opt/gcc/4.9.2/include/c++/4.9.2/ext/new_allocator.h **** // see the files COPYING3 and COPYING.RUNTIME respectively.  If not, see
  22:/opt/gcc/4.9.2/include/c++/4.9.2/ext/new_allocator.h **** // <http://www.gnu.org/licenses/>.
  23:/opt/gcc/4.9.2/include/c++/4.9.2/ext/new_allocator.h **** 
  24:/opt/gcc/4.9.2/include/c++/4.9.2/ext/new_allocator.h **** /** @file ext/new_allocator.h
  25:/opt/gcc/4.9.2/include/c++/4.9.2/ext/new_allocator.h ****  *  This file is a GNU extension to the Standard C++ Library.
  26:/opt/gcc/4.9.2/include/c++/4.9.2/ext/new_allocator.h ****  */
  27:/opt/gcc/4.9.2/include/c++/4.9.2/ext/new_allocator.h **** 
  28:/opt/gcc/4.9.2/include/c++/4.9.2/ext/new_allocator.h **** #ifndef _NEW_ALLOCATOR_H
  29:/opt/gcc/4.9.2/include/c++/4.9.2/ext/new_allocator.h **** #define _NEW_ALLOCATOR_H 1
  30:/opt/gcc/4.9.2/include/c++/4.9.2/ext/new_allocator.h **** 
  31:/opt/gcc/4.9.2/include/c++/4.9.2/ext/new_allocator.h **** #include <bits/c++config.h>
  32:/opt/gcc/4.9.2/include/c++/4.9.2/ext/new_allocator.h **** #include <new>
  33:/opt/gcc/4.9.2/include/c++/4.9.2/ext/new_allocator.h **** #include <bits/functexcept.h>
  34:/opt/gcc/4.9.2/include/c++/4.9.2/ext/new_allocator.h **** #include <bits/move.h>
  35:/opt/gcc/4.9.2/include/c++/4.9.2/ext/new_allocator.h **** #if __cplusplus >= 201103L
  36:/opt/gcc/4.9.2/include/c++/4.9.2/ext/new_allocator.h **** #include <type_traits>
  37:/opt/gcc/4.9.2/include/c++/4.9.2/ext/new_allocator.h **** #endif
  38:/opt/gcc/4.9.2/include/c++/4.9.2/ext/new_allocator.h **** 
  39:/opt/gcc/4.9.2/include/c++/4.9.2/ext/new_allocator.h **** namespace __gnu_cxx _GLIBCXX_VISIBILITY(default)
  40:/opt/gcc/4.9.2/include/c++/4.9.2/ext/new_allocator.h **** {
  41:/opt/gcc/4.9.2/include/c++/4.9.2/ext/new_allocator.h **** _GLIBCXX_BEGIN_NAMESPACE_VERSION
  42:/opt/gcc/4.9.2/include/c++/4.9.2/ext/new_allocator.h **** 
  43:/opt/gcc/4.9.2/include/c++/4.9.2/ext/new_allocator.h ****   using std::size_t;
  44:/opt/gcc/4.9.2/include/c++/4.9.2/ext/new_allocator.h ****   using std::ptrdiff_t;
  45:/opt/gcc/4.9.2/include/c++/4.9.2/ext/new_allocator.h **** 
  46:/opt/gcc/4.9.2/include/c++/4.9.2/ext/new_allocator.h ****   /**
  47:/opt/gcc/4.9.2/include/c++/4.9.2/ext/new_allocator.h ****    *  @brief  An allocator that uses global new, as per [20.4].
  48:/opt/gcc/4.9.2/include/c++/4.9.2/ext/new_allocator.h ****    *  @ingroup allocators
  49:/opt/gcc/4.9.2/include/c++/4.9.2/ext/new_allocator.h ****    *
  50:/opt/gcc/4.9.2/include/c++/4.9.2/ext/new_allocator.h ****    *  This is precisely the allocator defined in the C++ Standard. 
  51:/opt/gcc/4.9.2/include/c++/4.9.2/ext/new_allocator.h ****    *    - all allocation calls operator new
  52:/opt/gcc/4.9.2/include/c++/4.9.2/ext/new_allocator.h ****    *    - all deallocation calls operator delete
  53:/opt/gcc/4.9.2/include/c++/4.9.2/ext/new_allocator.h ****    *
  54:/opt/gcc/4.9.2/include/c++/4.9.2/ext/new_allocator.h ****    *  @tparam  _Tp  Type of allocated object.
  55:/opt/gcc/4.9.2/include/c++/4.9.2/ext/new_allocator.h ****    */
  56:/opt/gcc/4.9.2/include/c++/4.9.2/ext/new_allocator.h ****   template<typename _Tp>
  57:/opt/gcc/4.9.2/include/c++/4.9.2/ext/new_allocator.h ****     class new_allocator
  58:/opt/gcc/4.9.2/include/c++/4.9.2/ext/new_allocator.h ****     {
  59:/opt/gcc/4.9.2/include/c++/4.9.2/ext/new_allocator.h ****     public:
  60:/opt/gcc/4.9.2/include/c++/4.9.2/ext/new_allocator.h ****       typedef size_t     size_type;
  61:/opt/gcc/4.9.2/include/c++/4.9.2/ext/new_allocator.h ****       typedef ptrdiff_t  difference_type;
  62:/opt/gcc/4.9.2/include/c++/4.9.2/ext/new_allocator.h ****       typedef _Tp*       pointer;
  63:/opt/gcc/4.9.2/include/c++/4.9.2/ext/new_allocator.h ****       typedef const _Tp* const_pointer;
  64:/opt/gcc/4.9.2/include/c++/4.9.2/ext/new_allocator.h ****       typedef _Tp&       reference;
  65:/opt/gcc/4.9.2/include/c++/4.9.2/ext/new_allocator.h ****       typedef const _Tp& const_reference;
  66:/opt/gcc/4.9.2/include/c++/4.9.2/ext/new_allocator.h ****       typedef _Tp        value_type;
GAS LISTING /tmp/ccJkRw2J.s 			page 32


  67:/opt/gcc/4.9.2/include/c++/4.9.2/ext/new_allocator.h **** 
  68:/opt/gcc/4.9.2/include/c++/4.9.2/ext/new_allocator.h ****       template<typename _Tp1>
  69:/opt/gcc/4.9.2/include/c++/4.9.2/ext/new_allocator.h ****         struct rebind
  70:/opt/gcc/4.9.2/include/c++/4.9.2/ext/new_allocator.h ****         { typedef new_allocator<_Tp1> other; };
  71:/opt/gcc/4.9.2/include/c++/4.9.2/ext/new_allocator.h **** 
  72:/opt/gcc/4.9.2/include/c++/4.9.2/ext/new_allocator.h **** #if __cplusplus >= 201103L
  73:/opt/gcc/4.9.2/include/c++/4.9.2/ext/new_allocator.h ****       // _GLIBCXX_RESOLVE_LIB_DEFECTS
  74:/opt/gcc/4.9.2/include/c++/4.9.2/ext/new_allocator.h ****       // 2103. propagate_on_container_move_assignment
  75:/opt/gcc/4.9.2/include/c++/4.9.2/ext/new_allocator.h ****       typedef std::true_type propagate_on_container_move_assignment;
  76:/opt/gcc/4.9.2/include/c++/4.9.2/ext/new_allocator.h **** #endif
  77:/opt/gcc/4.9.2/include/c++/4.9.2/ext/new_allocator.h **** 
  78:/opt/gcc/4.9.2/include/c++/4.9.2/ext/new_allocator.h ****       new_allocator() _GLIBCXX_USE_NOEXCEPT { }
  79:/opt/gcc/4.9.2/include/c++/4.9.2/ext/new_allocator.h **** 
  80:/opt/gcc/4.9.2/include/c++/4.9.2/ext/new_allocator.h ****       new_allocator(const new_allocator&) _GLIBCXX_USE_NOEXCEPT { }
  81:/opt/gcc/4.9.2/include/c++/4.9.2/ext/new_allocator.h **** 
  82:/opt/gcc/4.9.2/include/c++/4.9.2/ext/new_allocator.h ****       template<typename _Tp1>
  83:/opt/gcc/4.9.2/include/c++/4.9.2/ext/new_allocator.h ****         new_allocator(const new_allocator<_Tp1>&) _GLIBCXX_USE_NOEXCEPT { }
  84:/opt/gcc/4.9.2/include/c++/4.9.2/ext/new_allocator.h **** 
  85:/opt/gcc/4.9.2/include/c++/4.9.2/ext/new_allocator.h ****       ~new_allocator() _GLIBCXX_USE_NOEXCEPT { }
  86:/opt/gcc/4.9.2/include/c++/4.9.2/ext/new_allocator.h **** 
  87:/opt/gcc/4.9.2/include/c++/4.9.2/ext/new_allocator.h ****       pointer
  88:/opt/gcc/4.9.2/include/c++/4.9.2/ext/new_allocator.h ****       address(reference __x) const _GLIBCXX_NOEXCEPT
  89:/opt/gcc/4.9.2/include/c++/4.9.2/ext/new_allocator.h ****       { return std::__addressof(__x); }
  90:/opt/gcc/4.9.2/include/c++/4.9.2/ext/new_allocator.h **** 
  91:/opt/gcc/4.9.2/include/c++/4.9.2/ext/new_allocator.h ****       const_pointer
  92:/opt/gcc/4.9.2/include/c++/4.9.2/ext/new_allocator.h ****       address(const_reference __x) const _GLIBCXX_NOEXCEPT
  93:/opt/gcc/4.9.2/include/c++/4.9.2/ext/new_allocator.h ****       { return std::__addressof(__x); }
  94:/opt/gcc/4.9.2/include/c++/4.9.2/ext/new_allocator.h **** 
  95:/opt/gcc/4.9.2/include/c++/4.9.2/ext/new_allocator.h ****       // NB: __n is permitted to be 0.  The C++ standard says nothing
  96:/opt/gcc/4.9.2/include/c++/4.9.2/ext/new_allocator.h ****       // about what the return value is when __n == 0.
  97:/opt/gcc/4.9.2/include/c++/4.9.2/ext/new_allocator.h ****       pointer
  98:/opt/gcc/4.9.2/include/c++/4.9.2/ext/new_allocator.h ****       allocate(size_type __n, const void* = 0)
  99:/opt/gcc/4.9.2/include/c++/4.9.2/ext/new_allocator.h ****       { 
 100:/opt/gcc/4.9.2/include/c++/4.9.2/ext/new_allocator.h **** 	if (__n > this->max_size())
 101:/opt/gcc/4.9.2/include/c++/4.9.2/ext/new_allocator.h **** 	  std::__throw_bad_alloc();
 102:/opt/gcc/4.9.2/include/c++/4.9.2/ext/new_allocator.h **** 
 103:/opt/gcc/4.9.2/include/c++/4.9.2/ext/new_allocator.h **** 	return static_cast<_Tp*>(::operator new(__n * sizeof(_Tp)));
 590              		.loc 7 104 0
 591 0211 4C89F7   		movq	%r14, %rdi
 592 0214 E8000000 		call	_Znwm@PLT
 592      00
 593              	.LEHE0:
 594              	.LVL71:
 595              	.L29:
 596              	.LBE600:
 597              	.LBE599:
 598              	.LBE598:
 599              	.LBE601:
 600              	.LBE602:
 170:/opt/gcc/4.9.2/include/c++/4.9.2/bits/stl_vector.h ****       }
 171:/opt/gcc/4.9.2/include/c++/4.9.2/bits/stl_vector.h **** 
 172:/opt/gcc/4.9.2/include/c++/4.9.2/bits/stl_vector.h ****       void
 173:/opt/gcc/4.9.2/include/c++/4.9.2/bits/stl_vector.h ****       _M_deallocate(pointer __p, size_t __n)
 174:/opt/gcc/4.9.2/include/c++/4.9.2/bits/stl_vector.h ****       {
 175:/opt/gcc/4.9.2/include/c++/4.9.2/bits/stl_vector.h **** 	typedef __gnu_cxx::__alloc_traits<_Tp_alloc_type> _Tr;
 176:/opt/gcc/4.9.2/include/c++/4.9.2/bits/stl_vector.h **** 	if (__p)
 177:/opt/gcc/4.9.2/include/c++/4.9.2/bits/stl_vector.h **** 	  _Tr::deallocate(_M_impl, __p, __n);
GAS LISTING /tmp/ccJkRw2J.s 			page 33


 178:/opt/gcc/4.9.2/include/c++/4.9.2/bits/stl_vector.h ****       }
 179:/opt/gcc/4.9.2/include/c++/4.9.2/bits/stl_vector.h **** 
 180:/opt/gcc/4.9.2/include/c++/4.9.2/bits/stl_vector.h ****     private:
 181:/opt/gcc/4.9.2/include/c++/4.9.2/bits/stl_vector.h ****       void
 182:/opt/gcc/4.9.2/include/c++/4.9.2/bits/stl_vector.h ****       _M_create_storage(size_t __n)
 183:/opt/gcc/4.9.2/include/c++/4.9.2/bits/stl_vector.h ****       {
 184:/opt/gcc/4.9.2/include/c++/4.9.2/bits/stl_vector.h **** 	this->_M_impl._M_start = this->_M_allocate(__n);
 185:/opt/gcc/4.9.2/include/c++/4.9.2/bits/stl_vector.h **** 	this->_M_impl._M_finish = this->_M_impl._M_start;
 186:/opt/gcc/4.9.2/include/c++/4.9.2/bits/stl_vector.h **** 	this->_M_impl._M_end_of_storage = this->_M_impl._M_start + __n;
 601              		.loc 6 187 0
 602 0219 4E8D3C30 		leaq	(%rax,%r14), %r15
 603              	.LVL72:
 604              	.LBE603:
 605              	.LBE607:
 606              	.LBE593:
 607              	.LBB609:
 608              	.LBB610:
 609              	.LBB611:
 610              	.LBB612:
 611              	.LBB613:
 612              	.LBB614:
 613              	.LBB615:
 614              	.LBB616:
 615              	.LBB617:
 616              	.LBB618:
 617              	.LBB619:
 618              		.file 8 "/opt/gcc/4.9.2/include/c++/4.9.2/bits/stl_algobase.h"
   0:/opt/gcc/4.9.2/include/c++/4.9.2/bits/stl_algobase.h **** // Core algorithmic facilities -*- C++ -*-
   1:/opt/gcc/4.9.2/include/c++/4.9.2/bits/stl_algobase.h **** 
   2:/opt/gcc/4.9.2/include/c++/4.9.2/bits/stl_algobase.h **** // Copyright (C) 2001-2014 Free Software Foundation, Inc.
   3:/opt/gcc/4.9.2/include/c++/4.9.2/bits/stl_algobase.h **** //
   4:/opt/gcc/4.9.2/include/c++/4.9.2/bits/stl_algobase.h **** // This file is part of the GNU ISO C++ Library.  This library is free
   5:/opt/gcc/4.9.2/include/c++/4.9.2/bits/stl_algobase.h **** // software; you can redistribute it and/or modify it under the
   6:/opt/gcc/4.9.2/include/c++/4.9.2/bits/stl_algobase.h **** // terms of the GNU General Public License as published by the
   7:/opt/gcc/4.9.2/include/c++/4.9.2/bits/stl_algobase.h **** // Free Software Foundation; either version 3, or (at your option)
   8:/opt/gcc/4.9.2/include/c++/4.9.2/bits/stl_algobase.h **** // any later version.
   9:/opt/gcc/4.9.2/include/c++/4.9.2/bits/stl_algobase.h **** 
  10:/opt/gcc/4.9.2/include/c++/4.9.2/bits/stl_algobase.h **** // This library is distributed in the hope that it will be useful,
  11:/opt/gcc/4.9.2/include/c++/4.9.2/bits/stl_algobase.h **** // but WITHOUT ANY WARRANTY; without even the implied warranty of
  12:/opt/gcc/4.9.2/include/c++/4.9.2/bits/stl_algobase.h **** // MERCHANTABILITY or FITNESS FOR A PARTICULAR PURPOSE.  See the
  13:/opt/gcc/4.9.2/include/c++/4.9.2/bits/stl_algobase.h **** // GNU General Public License for more details.
  14:/opt/gcc/4.9.2/include/c++/4.9.2/bits/stl_algobase.h **** 
  15:/opt/gcc/4.9.2/include/c++/4.9.2/bits/stl_algobase.h **** // Under Section 7 of GPL version 3, you are granted additional
  16:/opt/gcc/4.9.2/include/c++/4.9.2/bits/stl_algobase.h **** // permissions described in the GCC Runtime Library Exception, version
  17:/opt/gcc/4.9.2/include/c++/4.9.2/bits/stl_algobase.h **** // 3.1, as published by the Free Software Foundation.
  18:/opt/gcc/4.9.2/include/c++/4.9.2/bits/stl_algobase.h **** 
  19:/opt/gcc/4.9.2/include/c++/4.9.2/bits/stl_algobase.h **** // You should have received a copy of the GNU General Public License and
  20:/opt/gcc/4.9.2/include/c++/4.9.2/bits/stl_algobase.h **** // a copy of the GCC Runtime Library Exception along with this program;
  21:/opt/gcc/4.9.2/include/c++/4.9.2/bits/stl_algobase.h **** // see the files COPYING3 and COPYING.RUNTIME respectively.  If not, see
  22:/opt/gcc/4.9.2/include/c++/4.9.2/bits/stl_algobase.h **** // <http://www.gnu.org/licenses/>.
  23:/opt/gcc/4.9.2/include/c++/4.9.2/bits/stl_algobase.h **** 
  24:/opt/gcc/4.9.2/include/c++/4.9.2/bits/stl_algobase.h **** /*
  25:/opt/gcc/4.9.2/include/c++/4.9.2/bits/stl_algobase.h ****  *
  26:/opt/gcc/4.9.2/include/c++/4.9.2/bits/stl_algobase.h ****  * Copyright (c) 1994
  27:/opt/gcc/4.9.2/include/c++/4.9.2/bits/stl_algobase.h ****  * Hewlett-Packard Company
  28:/opt/gcc/4.9.2/include/c++/4.9.2/bits/stl_algobase.h ****  *
  29:/opt/gcc/4.9.2/include/c++/4.9.2/bits/stl_algobase.h ****  * Permission to use, copy, modify, distribute and sell this software
GAS LISTING /tmp/ccJkRw2J.s 			page 34


  30:/opt/gcc/4.9.2/include/c++/4.9.2/bits/stl_algobase.h ****  * and its documentation for any purpose is hereby granted without fee,
  31:/opt/gcc/4.9.2/include/c++/4.9.2/bits/stl_algobase.h ****  * provided that the above copyright notice appear in all copies and
  32:/opt/gcc/4.9.2/include/c++/4.9.2/bits/stl_algobase.h ****  * that both that copyright notice and this permission notice appear
  33:/opt/gcc/4.9.2/include/c++/4.9.2/bits/stl_algobase.h ****  * in supporting documentation.  Hewlett-Packard Company makes no
  34:/opt/gcc/4.9.2/include/c++/4.9.2/bits/stl_algobase.h ****  * representations about the suitability of this software for any
  35:/opt/gcc/4.9.2/include/c++/4.9.2/bits/stl_algobase.h ****  * purpose.  It is provided "as is" without express or implied warranty.
  36:/opt/gcc/4.9.2/include/c++/4.9.2/bits/stl_algobase.h ****  *
  37:/opt/gcc/4.9.2/include/c++/4.9.2/bits/stl_algobase.h ****  *
  38:/opt/gcc/4.9.2/include/c++/4.9.2/bits/stl_algobase.h ****  * Copyright (c) 1996-1998
  39:/opt/gcc/4.9.2/include/c++/4.9.2/bits/stl_algobase.h ****  * Silicon Graphics Computer Systems, Inc.
  40:/opt/gcc/4.9.2/include/c++/4.9.2/bits/stl_algobase.h ****  *
  41:/opt/gcc/4.9.2/include/c++/4.9.2/bits/stl_algobase.h ****  * Permission to use, copy, modify, distribute and sell this software
  42:/opt/gcc/4.9.2/include/c++/4.9.2/bits/stl_algobase.h ****  * and its documentation for any purpose is hereby granted without fee,
  43:/opt/gcc/4.9.2/include/c++/4.9.2/bits/stl_algobase.h ****  * provided that the above copyright notice appear in all copies and
  44:/opt/gcc/4.9.2/include/c++/4.9.2/bits/stl_algobase.h ****  * that both that copyright notice and this permission notice appear
  45:/opt/gcc/4.9.2/include/c++/4.9.2/bits/stl_algobase.h ****  * in supporting documentation.  Silicon Graphics makes no
  46:/opt/gcc/4.9.2/include/c++/4.9.2/bits/stl_algobase.h ****  * representations about the suitability of this software for any
  47:/opt/gcc/4.9.2/include/c++/4.9.2/bits/stl_algobase.h ****  * purpose.  It is provided "as is" without express or implied warranty.
  48:/opt/gcc/4.9.2/include/c++/4.9.2/bits/stl_algobase.h ****  */
  49:/opt/gcc/4.9.2/include/c++/4.9.2/bits/stl_algobase.h **** 
  50:/opt/gcc/4.9.2/include/c++/4.9.2/bits/stl_algobase.h **** /** @file bits/stl_algobase.h
  51:/opt/gcc/4.9.2/include/c++/4.9.2/bits/stl_algobase.h ****  *  This is an internal header file, included by other library headers.
  52:/opt/gcc/4.9.2/include/c++/4.9.2/bits/stl_algobase.h ****  *  Do not attempt to use it directly. @headername{algorithm}
  53:/opt/gcc/4.9.2/include/c++/4.9.2/bits/stl_algobase.h ****  */
  54:/opt/gcc/4.9.2/include/c++/4.9.2/bits/stl_algobase.h **** 
  55:/opt/gcc/4.9.2/include/c++/4.9.2/bits/stl_algobase.h **** #ifndef _STL_ALGOBASE_H
  56:/opt/gcc/4.9.2/include/c++/4.9.2/bits/stl_algobase.h **** #define _STL_ALGOBASE_H 1
  57:/opt/gcc/4.9.2/include/c++/4.9.2/bits/stl_algobase.h **** 
  58:/opt/gcc/4.9.2/include/c++/4.9.2/bits/stl_algobase.h **** #include <bits/c++config.h>
  59:/opt/gcc/4.9.2/include/c++/4.9.2/bits/stl_algobase.h **** #include <bits/functexcept.h>
  60:/opt/gcc/4.9.2/include/c++/4.9.2/bits/stl_algobase.h **** #include <bits/cpp_type_traits.h>
  61:/opt/gcc/4.9.2/include/c++/4.9.2/bits/stl_algobase.h **** #include <ext/type_traits.h>
  62:/opt/gcc/4.9.2/include/c++/4.9.2/bits/stl_algobase.h **** #include <ext/numeric_traits.h>
  63:/opt/gcc/4.9.2/include/c++/4.9.2/bits/stl_algobase.h **** #include <bits/stl_pair.h>
  64:/opt/gcc/4.9.2/include/c++/4.9.2/bits/stl_algobase.h **** #include <bits/stl_iterator_base_types.h>
  65:/opt/gcc/4.9.2/include/c++/4.9.2/bits/stl_algobase.h **** #include <bits/stl_iterator_base_funcs.h>
  66:/opt/gcc/4.9.2/include/c++/4.9.2/bits/stl_algobase.h **** #include <bits/stl_iterator.h>
  67:/opt/gcc/4.9.2/include/c++/4.9.2/bits/stl_algobase.h **** #include <bits/concept_check.h>
  68:/opt/gcc/4.9.2/include/c++/4.9.2/bits/stl_algobase.h **** #include <debug/debug.h>
  69:/opt/gcc/4.9.2/include/c++/4.9.2/bits/stl_algobase.h **** #include <bits/move.h> // For std::swap and _GLIBCXX_MOVE
  70:/opt/gcc/4.9.2/include/c++/4.9.2/bits/stl_algobase.h **** #include <bits/predefined_ops.h>
  71:/opt/gcc/4.9.2/include/c++/4.9.2/bits/stl_algobase.h **** 
  72:/opt/gcc/4.9.2/include/c++/4.9.2/bits/stl_algobase.h **** namespace std _GLIBCXX_VISIBILITY(default)
  73:/opt/gcc/4.9.2/include/c++/4.9.2/bits/stl_algobase.h **** {
  74:/opt/gcc/4.9.2/include/c++/4.9.2/bits/stl_algobase.h **** _GLIBCXX_BEGIN_NAMESPACE_VERSION
  75:/opt/gcc/4.9.2/include/c++/4.9.2/bits/stl_algobase.h **** 
  76:/opt/gcc/4.9.2/include/c++/4.9.2/bits/stl_algobase.h **** #if __cplusplus < 201103L
  77:/opt/gcc/4.9.2/include/c++/4.9.2/bits/stl_algobase.h ****   // See http://gcc.gnu.org/ml/libstdc++/2004-08/msg00167.html: in a
  78:/opt/gcc/4.9.2/include/c++/4.9.2/bits/stl_algobase.h ****   // nutshell, we are partially implementing the resolution of DR 187,
  79:/opt/gcc/4.9.2/include/c++/4.9.2/bits/stl_algobase.h ****   // when it's safe, i.e., the value_types are equal.
  80:/opt/gcc/4.9.2/include/c++/4.9.2/bits/stl_algobase.h ****   template<bool _BoolType>
  81:/opt/gcc/4.9.2/include/c++/4.9.2/bits/stl_algobase.h ****     struct __iter_swap
  82:/opt/gcc/4.9.2/include/c++/4.9.2/bits/stl_algobase.h ****     {
  83:/opt/gcc/4.9.2/include/c++/4.9.2/bits/stl_algobase.h ****       template<typename _ForwardIterator1, typename _ForwardIterator2>
  84:/opt/gcc/4.9.2/include/c++/4.9.2/bits/stl_algobase.h ****         static void
  85:/opt/gcc/4.9.2/include/c++/4.9.2/bits/stl_algobase.h ****         iter_swap(_ForwardIterator1 __a, _ForwardIterator2 __b)
  86:/opt/gcc/4.9.2/include/c++/4.9.2/bits/stl_algobase.h ****         {
GAS LISTING /tmp/ccJkRw2J.s 			page 35


  87:/opt/gcc/4.9.2/include/c++/4.9.2/bits/stl_algobase.h ****           typedef typename iterator_traits<_ForwardIterator1>::value_type
  88:/opt/gcc/4.9.2/include/c++/4.9.2/bits/stl_algobase.h ****             _ValueType1;
  89:/opt/gcc/4.9.2/include/c++/4.9.2/bits/stl_algobase.h ****           _ValueType1 __tmp = _GLIBCXX_MOVE(*__a);
  90:/opt/gcc/4.9.2/include/c++/4.9.2/bits/stl_algobase.h ****           *__a = _GLIBCXX_MOVE(*__b);
  91:/opt/gcc/4.9.2/include/c++/4.9.2/bits/stl_algobase.h ****           *__b = _GLIBCXX_MOVE(__tmp);
  92:/opt/gcc/4.9.2/include/c++/4.9.2/bits/stl_algobase.h **** 	}
  93:/opt/gcc/4.9.2/include/c++/4.9.2/bits/stl_algobase.h ****     };
  94:/opt/gcc/4.9.2/include/c++/4.9.2/bits/stl_algobase.h **** 
  95:/opt/gcc/4.9.2/include/c++/4.9.2/bits/stl_algobase.h ****   template<>
  96:/opt/gcc/4.9.2/include/c++/4.9.2/bits/stl_algobase.h ****     struct __iter_swap<true>
  97:/opt/gcc/4.9.2/include/c++/4.9.2/bits/stl_algobase.h ****     {
  98:/opt/gcc/4.9.2/include/c++/4.9.2/bits/stl_algobase.h ****       template<typename _ForwardIterator1, typename _ForwardIterator2>
  99:/opt/gcc/4.9.2/include/c++/4.9.2/bits/stl_algobase.h ****         static void 
 100:/opt/gcc/4.9.2/include/c++/4.9.2/bits/stl_algobase.h ****         iter_swap(_ForwardIterator1 __a, _ForwardIterator2 __b)
 101:/opt/gcc/4.9.2/include/c++/4.9.2/bits/stl_algobase.h ****         {
 102:/opt/gcc/4.9.2/include/c++/4.9.2/bits/stl_algobase.h ****           swap(*__a, *__b);
 103:/opt/gcc/4.9.2/include/c++/4.9.2/bits/stl_algobase.h ****         }
 104:/opt/gcc/4.9.2/include/c++/4.9.2/bits/stl_algobase.h ****     };
 105:/opt/gcc/4.9.2/include/c++/4.9.2/bits/stl_algobase.h **** #endif
 106:/opt/gcc/4.9.2/include/c++/4.9.2/bits/stl_algobase.h **** 
 107:/opt/gcc/4.9.2/include/c++/4.9.2/bits/stl_algobase.h ****   /**
 108:/opt/gcc/4.9.2/include/c++/4.9.2/bits/stl_algobase.h ****    *  @brief Swaps the contents of two iterators.
 109:/opt/gcc/4.9.2/include/c++/4.9.2/bits/stl_algobase.h ****    *  @ingroup mutating_algorithms
 110:/opt/gcc/4.9.2/include/c++/4.9.2/bits/stl_algobase.h ****    *  @param  __a  An iterator.
 111:/opt/gcc/4.9.2/include/c++/4.9.2/bits/stl_algobase.h ****    *  @param  __b  Another iterator.
 112:/opt/gcc/4.9.2/include/c++/4.9.2/bits/stl_algobase.h ****    *  @return   Nothing.
 113:/opt/gcc/4.9.2/include/c++/4.9.2/bits/stl_algobase.h ****    *
 114:/opt/gcc/4.9.2/include/c++/4.9.2/bits/stl_algobase.h ****    *  This function swaps the values pointed to by two iterators, not the
 115:/opt/gcc/4.9.2/include/c++/4.9.2/bits/stl_algobase.h ****    *  iterators themselves.
 116:/opt/gcc/4.9.2/include/c++/4.9.2/bits/stl_algobase.h ****   */
 117:/opt/gcc/4.9.2/include/c++/4.9.2/bits/stl_algobase.h ****   template<typename _ForwardIterator1, typename _ForwardIterator2>
 118:/opt/gcc/4.9.2/include/c++/4.9.2/bits/stl_algobase.h ****     inline void
 119:/opt/gcc/4.9.2/include/c++/4.9.2/bits/stl_algobase.h ****     iter_swap(_ForwardIterator1 __a, _ForwardIterator2 __b)
 120:/opt/gcc/4.9.2/include/c++/4.9.2/bits/stl_algobase.h ****     {
 121:/opt/gcc/4.9.2/include/c++/4.9.2/bits/stl_algobase.h ****       // concept requirements
 122:/opt/gcc/4.9.2/include/c++/4.9.2/bits/stl_algobase.h ****       __glibcxx_function_requires(_Mutable_ForwardIteratorConcept<
 123:/opt/gcc/4.9.2/include/c++/4.9.2/bits/stl_algobase.h **** 				  _ForwardIterator1>)
 124:/opt/gcc/4.9.2/include/c++/4.9.2/bits/stl_algobase.h ****       __glibcxx_function_requires(_Mutable_ForwardIteratorConcept<
 125:/opt/gcc/4.9.2/include/c++/4.9.2/bits/stl_algobase.h **** 				  _ForwardIterator2>)
 126:/opt/gcc/4.9.2/include/c++/4.9.2/bits/stl_algobase.h **** 
 127:/opt/gcc/4.9.2/include/c++/4.9.2/bits/stl_algobase.h **** #if __cplusplus < 201103L
 128:/opt/gcc/4.9.2/include/c++/4.9.2/bits/stl_algobase.h ****       typedef typename iterator_traits<_ForwardIterator1>::value_type
 129:/opt/gcc/4.9.2/include/c++/4.9.2/bits/stl_algobase.h **** 	_ValueType1;
 130:/opt/gcc/4.9.2/include/c++/4.9.2/bits/stl_algobase.h ****       typedef typename iterator_traits<_ForwardIterator2>::value_type
 131:/opt/gcc/4.9.2/include/c++/4.9.2/bits/stl_algobase.h **** 	_ValueType2;
 132:/opt/gcc/4.9.2/include/c++/4.9.2/bits/stl_algobase.h **** 
 133:/opt/gcc/4.9.2/include/c++/4.9.2/bits/stl_algobase.h ****       __glibcxx_function_requires(_ConvertibleConcept<_ValueType1,
 134:/opt/gcc/4.9.2/include/c++/4.9.2/bits/stl_algobase.h **** 				  _ValueType2>)
 135:/opt/gcc/4.9.2/include/c++/4.9.2/bits/stl_algobase.h ****       __glibcxx_function_requires(_ConvertibleConcept<_ValueType2,
 136:/opt/gcc/4.9.2/include/c++/4.9.2/bits/stl_algobase.h **** 				  _ValueType1>)
 137:/opt/gcc/4.9.2/include/c++/4.9.2/bits/stl_algobase.h **** 
 138:/opt/gcc/4.9.2/include/c++/4.9.2/bits/stl_algobase.h ****       typedef typename iterator_traits<_ForwardIterator1>::reference
 139:/opt/gcc/4.9.2/include/c++/4.9.2/bits/stl_algobase.h **** 	_ReferenceType1;
 140:/opt/gcc/4.9.2/include/c++/4.9.2/bits/stl_algobase.h ****       typedef typename iterator_traits<_ForwardIterator2>::reference
 141:/opt/gcc/4.9.2/include/c++/4.9.2/bits/stl_algobase.h **** 	_ReferenceType2;
 142:/opt/gcc/4.9.2/include/c++/4.9.2/bits/stl_algobase.h ****       std::__iter_swap<__are_same<_ValueType1, _ValueType2>::__value
 143:/opt/gcc/4.9.2/include/c++/4.9.2/bits/stl_algobase.h **** 	&& __are_same<_ValueType1&, _ReferenceType1>::__value
GAS LISTING /tmp/ccJkRw2J.s 			page 36


 144:/opt/gcc/4.9.2/include/c++/4.9.2/bits/stl_algobase.h **** 	&& __are_same<_ValueType2&, _ReferenceType2>::__value>::
 145:/opt/gcc/4.9.2/include/c++/4.9.2/bits/stl_algobase.h **** 	iter_swap(__a, __b);
 146:/opt/gcc/4.9.2/include/c++/4.9.2/bits/stl_algobase.h **** #else
 147:/opt/gcc/4.9.2/include/c++/4.9.2/bits/stl_algobase.h ****       swap(*__a, *__b);
 148:/opt/gcc/4.9.2/include/c++/4.9.2/bits/stl_algobase.h **** #endif
 149:/opt/gcc/4.9.2/include/c++/4.9.2/bits/stl_algobase.h ****     }
 150:/opt/gcc/4.9.2/include/c++/4.9.2/bits/stl_algobase.h **** 
 151:/opt/gcc/4.9.2/include/c++/4.9.2/bits/stl_algobase.h ****   /**
 152:/opt/gcc/4.9.2/include/c++/4.9.2/bits/stl_algobase.h ****    *  @brief Swap the elements of two sequences.
 153:/opt/gcc/4.9.2/include/c++/4.9.2/bits/stl_algobase.h ****    *  @ingroup mutating_algorithms
 154:/opt/gcc/4.9.2/include/c++/4.9.2/bits/stl_algobase.h ****    *  @param  __first1  A forward iterator.
 155:/opt/gcc/4.9.2/include/c++/4.9.2/bits/stl_algobase.h ****    *  @param  __last1   A forward iterator.
 156:/opt/gcc/4.9.2/include/c++/4.9.2/bits/stl_algobase.h ****    *  @param  __first2  A forward iterator.
 157:/opt/gcc/4.9.2/include/c++/4.9.2/bits/stl_algobase.h ****    *  @return   An iterator equal to @p first2+(last1-first1).
 158:/opt/gcc/4.9.2/include/c++/4.9.2/bits/stl_algobase.h ****    *
 159:/opt/gcc/4.9.2/include/c++/4.9.2/bits/stl_algobase.h ****    *  Swaps each element in the range @p [first1,last1) with the
 160:/opt/gcc/4.9.2/include/c++/4.9.2/bits/stl_algobase.h ****    *  corresponding element in the range @p [first2,(last1-first1)).
 161:/opt/gcc/4.9.2/include/c++/4.9.2/bits/stl_algobase.h ****    *  The ranges must not overlap.
 162:/opt/gcc/4.9.2/include/c++/4.9.2/bits/stl_algobase.h ****   */
 163:/opt/gcc/4.9.2/include/c++/4.9.2/bits/stl_algobase.h ****   template<typename _ForwardIterator1, typename _ForwardIterator2>
 164:/opt/gcc/4.9.2/include/c++/4.9.2/bits/stl_algobase.h ****     _ForwardIterator2
 165:/opt/gcc/4.9.2/include/c++/4.9.2/bits/stl_algobase.h ****     swap_ranges(_ForwardIterator1 __first1, _ForwardIterator1 __last1,
 166:/opt/gcc/4.9.2/include/c++/4.9.2/bits/stl_algobase.h **** 		_ForwardIterator2 __first2)
 167:/opt/gcc/4.9.2/include/c++/4.9.2/bits/stl_algobase.h ****     {
 168:/opt/gcc/4.9.2/include/c++/4.9.2/bits/stl_algobase.h ****       // concept requirements
 169:/opt/gcc/4.9.2/include/c++/4.9.2/bits/stl_algobase.h ****       __glibcxx_function_requires(_Mutable_ForwardIteratorConcept<
 170:/opt/gcc/4.9.2/include/c++/4.9.2/bits/stl_algobase.h **** 				  _ForwardIterator1>)
 171:/opt/gcc/4.9.2/include/c++/4.9.2/bits/stl_algobase.h ****       __glibcxx_function_requires(_Mutable_ForwardIteratorConcept<
 172:/opt/gcc/4.9.2/include/c++/4.9.2/bits/stl_algobase.h **** 				  _ForwardIterator2>)
 173:/opt/gcc/4.9.2/include/c++/4.9.2/bits/stl_algobase.h ****       __glibcxx_requires_valid_range(__first1, __last1);
 174:/opt/gcc/4.9.2/include/c++/4.9.2/bits/stl_algobase.h **** 
 175:/opt/gcc/4.9.2/include/c++/4.9.2/bits/stl_algobase.h ****       for (; __first1 != __last1; ++__first1, ++__first2)
 176:/opt/gcc/4.9.2/include/c++/4.9.2/bits/stl_algobase.h **** 	std::iter_swap(__first1, __first2);
 177:/opt/gcc/4.9.2/include/c++/4.9.2/bits/stl_algobase.h ****       return __first2;
 178:/opt/gcc/4.9.2/include/c++/4.9.2/bits/stl_algobase.h ****     }
 179:/opt/gcc/4.9.2/include/c++/4.9.2/bits/stl_algobase.h **** 
 180:/opt/gcc/4.9.2/include/c++/4.9.2/bits/stl_algobase.h ****   /**
 181:/opt/gcc/4.9.2/include/c++/4.9.2/bits/stl_algobase.h ****    *  @brief This does what you think it does.
 182:/opt/gcc/4.9.2/include/c++/4.9.2/bits/stl_algobase.h ****    *  @ingroup sorting_algorithms
 183:/opt/gcc/4.9.2/include/c++/4.9.2/bits/stl_algobase.h ****    *  @param  __a  A thing of arbitrary type.
 184:/opt/gcc/4.9.2/include/c++/4.9.2/bits/stl_algobase.h ****    *  @param  __b  Another thing of arbitrary type.
 185:/opt/gcc/4.9.2/include/c++/4.9.2/bits/stl_algobase.h ****    *  @return   The lesser of the parameters.
 186:/opt/gcc/4.9.2/include/c++/4.9.2/bits/stl_algobase.h ****    *
 187:/opt/gcc/4.9.2/include/c++/4.9.2/bits/stl_algobase.h ****    *  This is the simple classic generic implementation.  It will work on
 188:/opt/gcc/4.9.2/include/c++/4.9.2/bits/stl_algobase.h ****    *  temporary expressions, since they are only evaluated once, unlike a
 189:/opt/gcc/4.9.2/include/c++/4.9.2/bits/stl_algobase.h ****    *  preprocessor macro.
 190:/opt/gcc/4.9.2/include/c++/4.9.2/bits/stl_algobase.h ****   */
 191:/opt/gcc/4.9.2/include/c++/4.9.2/bits/stl_algobase.h ****   template<typename _Tp>
 192:/opt/gcc/4.9.2/include/c++/4.9.2/bits/stl_algobase.h ****     inline const _Tp&
 193:/opt/gcc/4.9.2/include/c++/4.9.2/bits/stl_algobase.h ****     min(const _Tp& __a, const _Tp& __b)
 194:/opt/gcc/4.9.2/include/c++/4.9.2/bits/stl_algobase.h ****     {
 195:/opt/gcc/4.9.2/include/c++/4.9.2/bits/stl_algobase.h ****       // concept requirements
 196:/opt/gcc/4.9.2/include/c++/4.9.2/bits/stl_algobase.h ****       __glibcxx_function_requires(_LessThanComparableConcept<_Tp>)
 197:/opt/gcc/4.9.2/include/c++/4.9.2/bits/stl_algobase.h ****       //return __b < __a ? __b : __a;
 198:/opt/gcc/4.9.2/include/c++/4.9.2/bits/stl_algobase.h ****       if (__b < __a)
 199:/opt/gcc/4.9.2/include/c++/4.9.2/bits/stl_algobase.h **** 	return __b;
 200:/opt/gcc/4.9.2/include/c++/4.9.2/bits/stl_algobase.h ****       return __a;
GAS LISTING /tmp/ccJkRw2J.s 			page 37


 201:/opt/gcc/4.9.2/include/c++/4.9.2/bits/stl_algobase.h ****     }
 202:/opt/gcc/4.9.2/include/c++/4.9.2/bits/stl_algobase.h **** 
 203:/opt/gcc/4.9.2/include/c++/4.9.2/bits/stl_algobase.h ****   /**
 204:/opt/gcc/4.9.2/include/c++/4.9.2/bits/stl_algobase.h ****    *  @brief This does what you think it does.
 205:/opt/gcc/4.9.2/include/c++/4.9.2/bits/stl_algobase.h ****    *  @ingroup sorting_algorithms
 206:/opt/gcc/4.9.2/include/c++/4.9.2/bits/stl_algobase.h ****    *  @param  __a  A thing of arbitrary type.
 207:/opt/gcc/4.9.2/include/c++/4.9.2/bits/stl_algobase.h ****    *  @param  __b  Another thing of arbitrary type.
 208:/opt/gcc/4.9.2/include/c++/4.9.2/bits/stl_algobase.h ****    *  @return   The greater of the parameters.
 209:/opt/gcc/4.9.2/include/c++/4.9.2/bits/stl_algobase.h ****    *
 210:/opt/gcc/4.9.2/include/c++/4.9.2/bits/stl_algobase.h ****    *  This is the simple classic generic implementation.  It will work on
 211:/opt/gcc/4.9.2/include/c++/4.9.2/bits/stl_algobase.h ****    *  temporary expressions, since they are only evaluated once, unlike a
 212:/opt/gcc/4.9.2/include/c++/4.9.2/bits/stl_algobase.h ****    *  preprocessor macro.
 213:/opt/gcc/4.9.2/include/c++/4.9.2/bits/stl_algobase.h ****   */
 214:/opt/gcc/4.9.2/include/c++/4.9.2/bits/stl_algobase.h ****   template<typename _Tp>
 215:/opt/gcc/4.9.2/include/c++/4.9.2/bits/stl_algobase.h ****     inline const _Tp&
 216:/opt/gcc/4.9.2/include/c++/4.9.2/bits/stl_algobase.h ****     max(const _Tp& __a, const _Tp& __b)
 217:/opt/gcc/4.9.2/include/c++/4.9.2/bits/stl_algobase.h ****     {
 218:/opt/gcc/4.9.2/include/c++/4.9.2/bits/stl_algobase.h ****       // concept requirements
 219:/opt/gcc/4.9.2/include/c++/4.9.2/bits/stl_algobase.h ****       __glibcxx_function_requires(_LessThanComparableConcept<_Tp>)
 220:/opt/gcc/4.9.2/include/c++/4.9.2/bits/stl_algobase.h ****       //return  __a < __b ? __b : __a;
 221:/opt/gcc/4.9.2/include/c++/4.9.2/bits/stl_algobase.h ****       if (__a < __b)
 222:/opt/gcc/4.9.2/include/c++/4.9.2/bits/stl_algobase.h **** 	return __b;
 223:/opt/gcc/4.9.2/include/c++/4.9.2/bits/stl_algobase.h ****       return __a;
 224:/opt/gcc/4.9.2/include/c++/4.9.2/bits/stl_algobase.h ****     }
 225:/opt/gcc/4.9.2/include/c++/4.9.2/bits/stl_algobase.h **** 
 226:/opt/gcc/4.9.2/include/c++/4.9.2/bits/stl_algobase.h ****   /**
 227:/opt/gcc/4.9.2/include/c++/4.9.2/bits/stl_algobase.h ****    *  @brief This does what you think it does.
 228:/opt/gcc/4.9.2/include/c++/4.9.2/bits/stl_algobase.h ****    *  @ingroup sorting_algorithms
 229:/opt/gcc/4.9.2/include/c++/4.9.2/bits/stl_algobase.h ****    *  @param  __a  A thing of arbitrary type.
 230:/opt/gcc/4.9.2/include/c++/4.9.2/bits/stl_algobase.h ****    *  @param  __b  Another thing of arbitrary type.
 231:/opt/gcc/4.9.2/include/c++/4.9.2/bits/stl_algobase.h ****    *  @param  __comp  A @link comparison_functors comparison functor@endlink.
 232:/opt/gcc/4.9.2/include/c++/4.9.2/bits/stl_algobase.h ****    *  @return   The lesser of the parameters.
 233:/opt/gcc/4.9.2/include/c++/4.9.2/bits/stl_algobase.h ****    *
 234:/opt/gcc/4.9.2/include/c++/4.9.2/bits/stl_algobase.h ****    *  This will work on temporary expressions, since they are only evaluated
 235:/opt/gcc/4.9.2/include/c++/4.9.2/bits/stl_algobase.h ****    *  once, unlike a preprocessor macro.
 236:/opt/gcc/4.9.2/include/c++/4.9.2/bits/stl_algobase.h ****   */
 237:/opt/gcc/4.9.2/include/c++/4.9.2/bits/stl_algobase.h ****   template<typename _Tp, typename _Compare>
 238:/opt/gcc/4.9.2/include/c++/4.9.2/bits/stl_algobase.h ****     inline const _Tp&
 239:/opt/gcc/4.9.2/include/c++/4.9.2/bits/stl_algobase.h ****     min(const _Tp& __a, const _Tp& __b, _Compare __comp)
 240:/opt/gcc/4.9.2/include/c++/4.9.2/bits/stl_algobase.h ****     {
 241:/opt/gcc/4.9.2/include/c++/4.9.2/bits/stl_algobase.h ****       //return __comp(__b, __a) ? __b : __a;
 242:/opt/gcc/4.9.2/include/c++/4.9.2/bits/stl_algobase.h ****       if (__comp(__b, __a))
 243:/opt/gcc/4.9.2/include/c++/4.9.2/bits/stl_algobase.h **** 	return __b;
 244:/opt/gcc/4.9.2/include/c++/4.9.2/bits/stl_algobase.h ****       return __a;
 245:/opt/gcc/4.9.2/include/c++/4.9.2/bits/stl_algobase.h ****     }
 246:/opt/gcc/4.9.2/include/c++/4.9.2/bits/stl_algobase.h **** 
 247:/opt/gcc/4.9.2/include/c++/4.9.2/bits/stl_algobase.h ****   /**
 248:/opt/gcc/4.9.2/include/c++/4.9.2/bits/stl_algobase.h ****    *  @brief This does what you think it does.
 249:/opt/gcc/4.9.2/include/c++/4.9.2/bits/stl_algobase.h ****    *  @ingroup sorting_algorithms
 250:/opt/gcc/4.9.2/include/c++/4.9.2/bits/stl_algobase.h ****    *  @param  __a  A thing of arbitrary type.
 251:/opt/gcc/4.9.2/include/c++/4.9.2/bits/stl_algobase.h ****    *  @param  __b  Another thing of arbitrary type.
 252:/opt/gcc/4.9.2/include/c++/4.9.2/bits/stl_algobase.h ****    *  @param  __comp  A @link comparison_functors comparison functor@endlink.
 253:/opt/gcc/4.9.2/include/c++/4.9.2/bits/stl_algobase.h ****    *  @return   The greater of the parameters.
 254:/opt/gcc/4.9.2/include/c++/4.9.2/bits/stl_algobase.h ****    *
 255:/opt/gcc/4.9.2/include/c++/4.9.2/bits/stl_algobase.h ****    *  This will work on temporary expressions, since they are only evaluated
 256:/opt/gcc/4.9.2/include/c++/4.9.2/bits/stl_algobase.h ****    *  once, unlike a preprocessor macro.
 257:/opt/gcc/4.9.2/include/c++/4.9.2/bits/stl_algobase.h ****   */
GAS LISTING /tmp/ccJkRw2J.s 			page 38


 258:/opt/gcc/4.9.2/include/c++/4.9.2/bits/stl_algobase.h ****   template<typename _Tp, typename _Compare>
 259:/opt/gcc/4.9.2/include/c++/4.9.2/bits/stl_algobase.h ****     inline const _Tp&
 260:/opt/gcc/4.9.2/include/c++/4.9.2/bits/stl_algobase.h ****     max(const _Tp& __a, const _Tp& __b, _Compare __comp)
 261:/opt/gcc/4.9.2/include/c++/4.9.2/bits/stl_algobase.h ****     {
 262:/opt/gcc/4.9.2/include/c++/4.9.2/bits/stl_algobase.h ****       //return __comp(__a, __b) ? __b : __a;
 263:/opt/gcc/4.9.2/include/c++/4.9.2/bits/stl_algobase.h ****       if (__comp(__a, __b))
 264:/opt/gcc/4.9.2/include/c++/4.9.2/bits/stl_algobase.h **** 	return __b;
 265:/opt/gcc/4.9.2/include/c++/4.9.2/bits/stl_algobase.h ****       return __a;
 266:/opt/gcc/4.9.2/include/c++/4.9.2/bits/stl_algobase.h ****     }
 267:/opt/gcc/4.9.2/include/c++/4.9.2/bits/stl_algobase.h **** 
 268:/opt/gcc/4.9.2/include/c++/4.9.2/bits/stl_algobase.h ****   // If _Iterator is a __normal_iterator return its base (a plain pointer,
 269:/opt/gcc/4.9.2/include/c++/4.9.2/bits/stl_algobase.h ****   // normally) otherwise return it untouched.  See copy, fill, ... 
 270:/opt/gcc/4.9.2/include/c++/4.9.2/bits/stl_algobase.h ****   template<typename _Iterator>
 271:/opt/gcc/4.9.2/include/c++/4.9.2/bits/stl_algobase.h ****     struct _Niter_base
 272:/opt/gcc/4.9.2/include/c++/4.9.2/bits/stl_algobase.h ****     : _Iter_base<_Iterator, __is_normal_iterator<_Iterator>::__value>
 273:/opt/gcc/4.9.2/include/c++/4.9.2/bits/stl_algobase.h ****     { };
 274:/opt/gcc/4.9.2/include/c++/4.9.2/bits/stl_algobase.h **** 
 275:/opt/gcc/4.9.2/include/c++/4.9.2/bits/stl_algobase.h ****   template<typename _Iterator>
 276:/opt/gcc/4.9.2/include/c++/4.9.2/bits/stl_algobase.h ****     inline typename _Niter_base<_Iterator>::iterator_type
 277:/opt/gcc/4.9.2/include/c++/4.9.2/bits/stl_algobase.h ****     __niter_base(_Iterator __it)
 278:/opt/gcc/4.9.2/include/c++/4.9.2/bits/stl_algobase.h ****     { return std::_Niter_base<_Iterator>::_S_base(__it); }
 279:/opt/gcc/4.9.2/include/c++/4.9.2/bits/stl_algobase.h **** 
 280:/opt/gcc/4.9.2/include/c++/4.9.2/bits/stl_algobase.h ****   // Likewise, for move_iterator.
 281:/opt/gcc/4.9.2/include/c++/4.9.2/bits/stl_algobase.h ****   template<typename _Iterator>
 282:/opt/gcc/4.9.2/include/c++/4.9.2/bits/stl_algobase.h ****     struct _Miter_base
 283:/opt/gcc/4.9.2/include/c++/4.9.2/bits/stl_algobase.h ****     : _Iter_base<_Iterator, __is_move_iterator<_Iterator>::__value>
 284:/opt/gcc/4.9.2/include/c++/4.9.2/bits/stl_algobase.h ****     { };
 285:/opt/gcc/4.9.2/include/c++/4.9.2/bits/stl_algobase.h **** 
 286:/opt/gcc/4.9.2/include/c++/4.9.2/bits/stl_algobase.h ****   template<typename _Iterator>
 287:/opt/gcc/4.9.2/include/c++/4.9.2/bits/stl_algobase.h ****     inline typename _Miter_base<_Iterator>::iterator_type
 288:/opt/gcc/4.9.2/include/c++/4.9.2/bits/stl_algobase.h ****     __miter_base(_Iterator __it)
 289:/opt/gcc/4.9.2/include/c++/4.9.2/bits/stl_algobase.h ****     { return std::_Miter_base<_Iterator>::_S_base(__it); }
 290:/opt/gcc/4.9.2/include/c++/4.9.2/bits/stl_algobase.h **** 
 291:/opt/gcc/4.9.2/include/c++/4.9.2/bits/stl_algobase.h ****   // All of these auxiliary structs serve two purposes.  (1) Replace
 292:/opt/gcc/4.9.2/include/c++/4.9.2/bits/stl_algobase.h ****   // calls to copy with memmove whenever possible.  (Memmove, not memcpy,
 293:/opt/gcc/4.9.2/include/c++/4.9.2/bits/stl_algobase.h ****   // because the input and output ranges are permitted to overlap.)
 294:/opt/gcc/4.9.2/include/c++/4.9.2/bits/stl_algobase.h ****   // (2) If we're using random access iterators, then write the loop as
 295:/opt/gcc/4.9.2/include/c++/4.9.2/bits/stl_algobase.h ****   // a for loop with an explicit count.
 296:/opt/gcc/4.9.2/include/c++/4.9.2/bits/stl_algobase.h **** 
 297:/opt/gcc/4.9.2/include/c++/4.9.2/bits/stl_algobase.h ****   template<bool, bool, typename>
 298:/opt/gcc/4.9.2/include/c++/4.9.2/bits/stl_algobase.h ****     struct __copy_move
 299:/opt/gcc/4.9.2/include/c++/4.9.2/bits/stl_algobase.h ****     {
 300:/opt/gcc/4.9.2/include/c++/4.9.2/bits/stl_algobase.h ****       template<typename _II, typename _OI>
 301:/opt/gcc/4.9.2/include/c++/4.9.2/bits/stl_algobase.h ****         static _OI
 302:/opt/gcc/4.9.2/include/c++/4.9.2/bits/stl_algobase.h ****         __copy_m(_II __first, _II __last, _OI __result)
 303:/opt/gcc/4.9.2/include/c++/4.9.2/bits/stl_algobase.h ****         {
 304:/opt/gcc/4.9.2/include/c++/4.9.2/bits/stl_algobase.h **** 	  for (; __first != __last; ++__result, ++__first)
 305:/opt/gcc/4.9.2/include/c++/4.9.2/bits/stl_algobase.h **** 	    *__result = *__first;
 306:/opt/gcc/4.9.2/include/c++/4.9.2/bits/stl_algobase.h **** 	  return __result;
 307:/opt/gcc/4.9.2/include/c++/4.9.2/bits/stl_algobase.h **** 	}
 308:/opt/gcc/4.9.2/include/c++/4.9.2/bits/stl_algobase.h ****     };
 309:/opt/gcc/4.9.2/include/c++/4.9.2/bits/stl_algobase.h **** 
 310:/opt/gcc/4.9.2/include/c++/4.9.2/bits/stl_algobase.h **** #if __cplusplus >= 201103L
 311:/opt/gcc/4.9.2/include/c++/4.9.2/bits/stl_algobase.h ****   template<typename _Category>
 312:/opt/gcc/4.9.2/include/c++/4.9.2/bits/stl_algobase.h ****     struct __copy_move<true, false, _Category>
 313:/opt/gcc/4.9.2/include/c++/4.9.2/bits/stl_algobase.h ****     {
 314:/opt/gcc/4.9.2/include/c++/4.9.2/bits/stl_algobase.h ****       template<typename _II, typename _OI>
GAS LISTING /tmp/ccJkRw2J.s 			page 39


 315:/opt/gcc/4.9.2/include/c++/4.9.2/bits/stl_algobase.h ****         static _OI
 316:/opt/gcc/4.9.2/include/c++/4.9.2/bits/stl_algobase.h ****         __copy_m(_II __first, _II __last, _OI __result)
 317:/opt/gcc/4.9.2/include/c++/4.9.2/bits/stl_algobase.h ****         {
 318:/opt/gcc/4.9.2/include/c++/4.9.2/bits/stl_algobase.h **** 	  for (; __first != __last; ++__result, ++__first)
 319:/opt/gcc/4.9.2/include/c++/4.9.2/bits/stl_algobase.h **** 	    *__result = std::move(*__first);
 320:/opt/gcc/4.9.2/include/c++/4.9.2/bits/stl_algobase.h **** 	  return __result;
 321:/opt/gcc/4.9.2/include/c++/4.9.2/bits/stl_algobase.h **** 	}
 322:/opt/gcc/4.9.2/include/c++/4.9.2/bits/stl_algobase.h ****     };
 323:/opt/gcc/4.9.2/include/c++/4.9.2/bits/stl_algobase.h **** #endif
 324:/opt/gcc/4.9.2/include/c++/4.9.2/bits/stl_algobase.h **** 
 325:/opt/gcc/4.9.2/include/c++/4.9.2/bits/stl_algobase.h ****   template<>
 326:/opt/gcc/4.9.2/include/c++/4.9.2/bits/stl_algobase.h ****     struct __copy_move<false, false, random_access_iterator_tag>
 327:/opt/gcc/4.9.2/include/c++/4.9.2/bits/stl_algobase.h ****     {
 328:/opt/gcc/4.9.2/include/c++/4.9.2/bits/stl_algobase.h ****       template<typename _II, typename _OI>
 329:/opt/gcc/4.9.2/include/c++/4.9.2/bits/stl_algobase.h ****         static _OI
 330:/opt/gcc/4.9.2/include/c++/4.9.2/bits/stl_algobase.h ****         __copy_m(_II __first, _II __last, _OI __result)
 331:/opt/gcc/4.9.2/include/c++/4.9.2/bits/stl_algobase.h ****         { 
 332:/opt/gcc/4.9.2/include/c++/4.9.2/bits/stl_algobase.h **** 	  typedef typename iterator_traits<_II>::difference_type _Distance;
 333:/opt/gcc/4.9.2/include/c++/4.9.2/bits/stl_algobase.h **** 	  for(_Distance __n = __last - __first; __n > 0; --__n)
 334:/opt/gcc/4.9.2/include/c++/4.9.2/bits/stl_algobase.h **** 	    {
 335:/opt/gcc/4.9.2/include/c++/4.9.2/bits/stl_algobase.h **** 	      *__result = *__first;
 336:/opt/gcc/4.9.2/include/c++/4.9.2/bits/stl_algobase.h **** 	      ++__first;
 337:/opt/gcc/4.9.2/include/c++/4.9.2/bits/stl_algobase.h **** 	      ++__result;
 338:/opt/gcc/4.9.2/include/c++/4.9.2/bits/stl_algobase.h **** 	    }
 339:/opt/gcc/4.9.2/include/c++/4.9.2/bits/stl_algobase.h **** 	  return __result;
 340:/opt/gcc/4.9.2/include/c++/4.9.2/bits/stl_algobase.h **** 	}
 341:/opt/gcc/4.9.2/include/c++/4.9.2/bits/stl_algobase.h ****     };
 342:/opt/gcc/4.9.2/include/c++/4.9.2/bits/stl_algobase.h **** 
 343:/opt/gcc/4.9.2/include/c++/4.9.2/bits/stl_algobase.h **** #if __cplusplus >= 201103L
 344:/opt/gcc/4.9.2/include/c++/4.9.2/bits/stl_algobase.h ****   template<>
 345:/opt/gcc/4.9.2/include/c++/4.9.2/bits/stl_algobase.h ****     struct __copy_move<true, false, random_access_iterator_tag>
 346:/opt/gcc/4.9.2/include/c++/4.9.2/bits/stl_algobase.h ****     {
 347:/opt/gcc/4.9.2/include/c++/4.9.2/bits/stl_algobase.h ****       template<typename _II, typename _OI>
 348:/opt/gcc/4.9.2/include/c++/4.9.2/bits/stl_algobase.h ****         static _OI
 349:/opt/gcc/4.9.2/include/c++/4.9.2/bits/stl_algobase.h ****         __copy_m(_II __first, _II __last, _OI __result)
 350:/opt/gcc/4.9.2/include/c++/4.9.2/bits/stl_algobase.h ****         { 
 351:/opt/gcc/4.9.2/include/c++/4.9.2/bits/stl_algobase.h **** 	  typedef typename iterator_traits<_II>::difference_type _Distance;
 352:/opt/gcc/4.9.2/include/c++/4.9.2/bits/stl_algobase.h **** 	  for(_Distance __n = __last - __first; __n > 0; --__n)
 353:/opt/gcc/4.9.2/include/c++/4.9.2/bits/stl_algobase.h **** 	    {
 354:/opt/gcc/4.9.2/include/c++/4.9.2/bits/stl_algobase.h **** 	      *__result = std::move(*__first);
 355:/opt/gcc/4.9.2/include/c++/4.9.2/bits/stl_algobase.h **** 	      ++__first;
 356:/opt/gcc/4.9.2/include/c++/4.9.2/bits/stl_algobase.h **** 	      ++__result;
 357:/opt/gcc/4.9.2/include/c++/4.9.2/bits/stl_algobase.h **** 	    }
 358:/opt/gcc/4.9.2/include/c++/4.9.2/bits/stl_algobase.h **** 	  return __result;
 359:/opt/gcc/4.9.2/include/c++/4.9.2/bits/stl_algobase.h **** 	}
 360:/opt/gcc/4.9.2/include/c++/4.9.2/bits/stl_algobase.h ****     };
 361:/opt/gcc/4.9.2/include/c++/4.9.2/bits/stl_algobase.h **** #endif
 362:/opt/gcc/4.9.2/include/c++/4.9.2/bits/stl_algobase.h **** 
 363:/opt/gcc/4.9.2/include/c++/4.9.2/bits/stl_algobase.h ****   template<bool _IsMove>
 364:/opt/gcc/4.9.2/include/c++/4.9.2/bits/stl_algobase.h ****     struct __copy_move<_IsMove, true, random_access_iterator_tag>
 365:/opt/gcc/4.9.2/include/c++/4.9.2/bits/stl_algobase.h ****     {
 366:/opt/gcc/4.9.2/include/c++/4.9.2/bits/stl_algobase.h ****       template<typename _Tp>
 367:/opt/gcc/4.9.2/include/c++/4.9.2/bits/stl_algobase.h ****         static _Tp*
 368:/opt/gcc/4.9.2/include/c++/4.9.2/bits/stl_algobase.h ****         __copy_m(const _Tp* __first, const _Tp* __last, _Tp* __result)
 369:/opt/gcc/4.9.2/include/c++/4.9.2/bits/stl_algobase.h ****         {
 370:/opt/gcc/4.9.2/include/c++/4.9.2/bits/stl_algobase.h **** #if __cplusplus >= 201103L
 371:/opt/gcc/4.9.2/include/c++/4.9.2/bits/stl_algobase.h **** 	  // trivial types can have deleted assignment
GAS LISTING /tmp/ccJkRw2J.s 			page 40


 372:/opt/gcc/4.9.2/include/c++/4.9.2/bits/stl_algobase.h **** 	  static_assert( is_copy_assignable<_Tp>::value,
 373:/opt/gcc/4.9.2/include/c++/4.9.2/bits/stl_algobase.h **** 	                 "type is not assignable" );
 374:/opt/gcc/4.9.2/include/c++/4.9.2/bits/stl_algobase.h **** #endif
 375:/opt/gcc/4.9.2/include/c++/4.9.2/bits/stl_algobase.h **** 	  const ptrdiff_t _Num = __last - __first;
 376:/opt/gcc/4.9.2/include/c++/4.9.2/bits/stl_algobase.h **** 	  if (_Num)
 377:/opt/gcc/4.9.2/include/c++/4.9.2/bits/stl_algobase.h **** 	    __builtin_memmove(__result, __first, sizeof(_Tp) * _Num);
 378:/opt/gcc/4.9.2/include/c++/4.9.2/bits/stl_algobase.h **** 	  return __result + _Num;
 379:/opt/gcc/4.9.2/include/c++/4.9.2/bits/stl_algobase.h **** 	}
 380:/opt/gcc/4.9.2/include/c++/4.9.2/bits/stl_algobase.h ****     };
 381:/opt/gcc/4.9.2/include/c++/4.9.2/bits/stl_algobase.h **** 
 382:/opt/gcc/4.9.2/include/c++/4.9.2/bits/stl_algobase.h ****   template<bool _IsMove, typename _II, typename _OI>
 383:/opt/gcc/4.9.2/include/c++/4.9.2/bits/stl_algobase.h ****     inline _OI
 384:/opt/gcc/4.9.2/include/c++/4.9.2/bits/stl_algobase.h ****     __copy_move_a(_II __first, _II __last, _OI __result)
 385:/opt/gcc/4.9.2/include/c++/4.9.2/bits/stl_algobase.h ****     {
 386:/opt/gcc/4.9.2/include/c++/4.9.2/bits/stl_algobase.h ****       typedef typename iterator_traits<_II>::value_type _ValueTypeI;
 387:/opt/gcc/4.9.2/include/c++/4.9.2/bits/stl_algobase.h ****       typedef typename iterator_traits<_OI>::value_type _ValueTypeO;
 388:/opt/gcc/4.9.2/include/c++/4.9.2/bits/stl_algobase.h ****       typedef typename iterator_traits<_II>::iterator_category _Category;
 389:/opt/gcc/4.9.2/include/c++/4.9.2/bits/stl_algobase.h ****       const bool __simple = (__is_trivial(_ValueTypeI)
 390:/opt/gcc/4.9.2/include/c++/4.9.2/bits/stl_algobase.h **** 	                     && __is_pointer<_II>::__value
 391:/opt/gcc/4.9.2/include/c++/4.9.2/bits/stl_algobase.h **** 	                     && __is_pointer<_OI>::__value
 392:/opt/gcc/4.9.2/include/c++/4.9.2/bits/stl_algobase.h **** 			     && __are_same<_ValueTypeI, _ValueTypeO>::__value);
 393:/opt/gcc/4.9.2/include/c++/4.9.2/bits/stl_algobase.h **** 
 394:/opt/gcc/4.9.2/include/c++/4.9.2/bits/stl_algobase.h ****       return std::__copy_move<_IsMove, __simple,
 395:/opt/gcc/4.9.2/include/c++/4.9.2/bits/stl_algobase.h **** 	                      _Category>::__copy_m(__first, __last, __result);
 396:/opt/gcc/4.9.2/include/c++/4.9.2/bits/stl_algobase.h ****     }
 397:/opt/gcc/4.9.2/include/c++/4.9.2/bits/stl_algobase.h **** 
 398:/opt/gcc/4.9.2/include/c++/4.9.2/bits/stl_algobase.h ****   // Helpers for streambuf iterators (either istream or ostream).
 399:/opt/gcc/4.9.2/include/c++/4.9.2/bits/stl_algobase.h ****   // NB: avoid including <iosfwd>, relatively large.
 400:/opt/gcc/4.9.2/include/c++/4.9.2/bits/stl_algobase.h ****   template<typename _CharT>
 401:/opt/gcc/4.9.2/include/c++/4.9.2/bits/stl_algobase.h ****     struct char_traits;
 402:/opt/gcc/4.9.2/include/c++/4.9.2/bits/stl_algobase.h **** 
 403:/opt/gcc/4.9.2/include/c++/4.9.2/bits/stl_algobase.h ****   template<typename _CharT, typename _Traits>
 404:/opt/gcc/4.9.2/include/c++/4.9.2/bits/stl_algobase.h ****     class istreambuf_iterator;
 405:/opt/gcc/4.9.2/include/c++/4.9.2/bits/stl_algobase.h **** 
 406:/opt/gcc/4.9.2/include/c++/4.9.2/bits/stl_algobase.h ****   template<typename _CharT, typename _Traits>
 407:/opt/gcc/4.9.2/include/c++/4.9.2/bits/stl_algobase.h ****     class ostreambuf_iterator;
 408:/opt/gcc/4.9.2/include/c++/4.9.2/bits/stl_algobase.h **** 
 409:/opt/gcc/4.9.2/include/c++/4.9.2/bits/stl_algobase.h ****   template<bool _IsMove, typename _CharT>
 410:/opt/gcc/4.9.2/include/c++/4.9.2/bits/stl_algobase.h ****     typename __gnu_cxx::__enable_if<__is_char<_CharT>::__value, 
 411:/opt/gcc/4.9.2/include/c++/4.9.2/bits/stl_algobase.h **** 	     ostreambuf_iterator<_CharT, char_traits<_CharT> > >::__type
 412:/opt/gcc/4.9.2/include/c++/4.9.2/bits/stl_algobase.h ****     __copy_move_a2(_CharT*, _CharT*,
 413:/opt/gcc/4.9.2/include/c++/4.9.2/bits/stl_algobase.h **** 		   ostreambuf_iterator<_CharT, char_traits<_CharT> >);
 414:/opt/gcc/4.9.2/include/c++/4.9.2/bits/stl_algobase.h **** 
 415:/opt/gcc/4.9.2/include/c++/4.9.2/bits/stl_algobase.h ****   template<bool _IsMove, typename _CharT>
 416:/opt/gcc/4.9.2/include/c++/4.9.2/bits/stl_algobase.h ****     typename __gnu_cxx::__enable_if<__is_char<_CharT>::__value, 
 417:/opt/gcc/4.9.2/include/c++/4.9.2/bits/stl_algobase.h **** 	     ostreambuf_iterator<_CharT, char_traits<_CharT> > >::__type
 418:/opt/gcc/4.9.2/include/c++/4.9.2/bits/stl_algobase.h ****     __copy_move_a2(const _CharT*, const _CharT*,
 419:/opt/gcc/4.9.2/include/c++/4.9.2/bits/stl_algobase.h **** 		   ostreambuf_iterator<_CharT, char_traits<_CharT> >);
 420:/opt/gcc/4.9.2/include/c++/4.9.2/bits/stl_algobase.h **** 
 421:/opt/gcc/4.9.2/include/c++/4.9.2/bits/stl_algobase.h ****   template<bool _IsMove, typename _CharT>
 422:/opt/gcc/4.9.2/include/c++/4.9.2/bits/stl_algobase.h ****     typename __gnu_cxx::__enable_if<__is_char<_CharT>::__value,
 423:/opt/gcc/4.9.2/include/c++/4.9.2/bits/stl_algobase.h **** 				    _CharT*>::__type
 424:/opt/gcc/4.9.2/include/c++/4.9.2/bits/stl_algobase.h ****     __copy_move_a2(istreambuf_iterator<_CharT, char_traits<_CharT> >,
 425:/opt/gcc/4.9.2/include/c++/4.9.2/bits/stl_algobase.h **** 		   istreambuf_iterator<_CharT, char_traits<_CharT> >, _CharT*);
 426:/opt/gcc/4.9.2/include/c++/4.9.2/bits/stl_algobase.h **** 
 427:/opt/gcc/4.9.2/include/c++/4.9.2/bits/stl_algobase.h ****   template<bool _IsMove, typename _II, typename _OI>
 428:/opt/gcc/4.9.2/include/c++/4.9.2/bits/stl_algobase.h ****     inline _OI
GAS LISTING /tmp/ccJkRw2J.s 			page 41


 429:/opt/gcc/4.9.2/include/c++/4.9.2/bits/stl_algobase.h ****     __copy_move_a2(_II __first, _II __last, _OI __result)
 430:/opt/gcc/4.9.2/include/c++/4.9.2/bits/stl_algobase.h ****     {
 431:/opt/gcc/4.9.2/include/c++/4.9.2/bits/stl_algobase.h ****       return _OI(std::__copy_move_a<_IsMove>(std::__niter_base(__first),
 432:/opt/gcc/4.9.2/include/c++/4.9.2/bits/stl_algobase.h **** 					     std::__niter_base(__last),
 433:/opt/gcc/4.9.2/include/c++/4.9.2/bits/stl_algobase.h **** 					     std::__niter_base(__result)));
 434:/opt/gcc/4.9.2/include/c++/4.9.2/bits/stl_algobase.h ****     }
 435:/opt/gcc/4.9.2/include/c++/4.9.2/bits/stl_algobase.h **** 
 436:/opt/gcc/4.9.2/include/c++/4.9.2/bits/stl_algobase.h ****   /**
 437:/opt/gcc/4.9.2/include/c++/4.9.2/bits/stl_algobase.h ****    *  @brief Copies the range [first,last) into result.
 438:/opt/gcc/4.9.2/include/c++/4.9.2/bits/stl_algobase.h ****    *  @ingroup mutating_algorithms
 439:/opt/gcc/4.9.2/include/c++/4.9.2/bits/stl_algobase.h ****    *  @param  __first  An input iterator.
 440:/opt/gcc/4.9.2/include/c++/4.9.2/bits/stl_algobase.h ****    *  @param  __last   An input iterator.
 441:/opt/gcc/4.9.2/include/c++/4.9.2/bits/stl_algobase.h ****    *  @param  __result An output iterator.
 442:/opt/gcc/4.9.2/include/c++/4.9.2/bits/stl_algobase.h ****    *  @return   result + (first - last)
 443:/opt/gcc/4.9.2/include/c++/4.9.2/bits/stl_algobase.h ****    *
 444:/opt/gcc/4.9.2/include/c++/4.9.2/bits/stl_algobase.h ****    *  This inline function will boil down to a call to @c memmove whenever
 445:/opt/gcc/4.9.2/include/c++/4.9.2/bits/stl_algobase.h ****    *  possible.  Failing that, if random access iterators are passed, then the
 446:/opt/gcc/4.9.2/include/c++/4.9.2/bits/stl_algobase.h ****    *  loop count will be known (and therefore a candidate for compiler
 447:/opt/gcc/4.9.2/include/c++/4.9.2/bits/stl_algobase.h ****    *  optimizations such as unrolling).  Result may not be contained within
 448:/opt/gcc/4.9.2/include/c++/4.9.2/bits/stl_algobase.h ****    *  [first,last); the copy_backward function should be used instead.
 449:/opt/gcc/4.9.2/include/c++/4.9.2/bits/stl_algobase.h ****    *
 450:/opt/gcc/4.9.2/include/c++/4.9.2/bits/stl_algobase.h ****    *  Note that the end of the output range is permitted to be contained
 451:/opt/gcc/4.9.2/include/c++/4.9.2/bits/stl_algobase.h ****    *  within [first,last).
 452:/opt/gcc/4.9.2/include/c++/4.9.2/bits/stl_algobase.h ****   */
 453:/opt/gcc/4.9.2/include/c++/4.9.2/bits/stl_algobase.h ****   template<typename _II, typename _OI>
 454:/opt/gcc/4.9.2/include/c++/4.9.2/bits/stl_algobase.h ****     inline _OI
 455:/opt/gcc/4.9.2/include/c++/4.9.2/bits/stl_algobase.h ****     copy(_II __first, _II __last, _OI __result)
 456:/opt/gcc/4.9.2/include/c++/4.9.2/bits/stl_algobase.h ****     {
 457:/opt/gcc/4.9.2/include/c++/4.9.2/bits/stl_algobase.h ****       // concept requirements
 458:/opt/gcc/4.9.2/include/c++/4.9.2/bits/stl_algobase.h ****       __glibcxx_function_requires(_InputIteratorConcept<_II>)
 459:/opt/gcc/4.9.2/include/c++/4.9.2/bits/stl_algobase.h ****       __glibcxx_function_requires(_OutputIteratorConcept<_OI,
 460:/opt/gcc/4.9.2/include/c++/4.9.2/bits/stl_algobase.h **** 	    typename iterator_traits<_II>::value_type>)
 461:/opt/gcc/4.9.2/include/c++/4.9.2/bits/stl_algobase.h ****       __glibcxx_requires_valid_range(__first, __last);
 462:/opt/gcc/4.9.2/include/c++/4.9.2/bits/stl_algobase.h **** 
 463:/opt/gcc/4.9.2/include/c++/4.9.2/bits/stl_algobase.h ****       return (std::__copy_move_a2<__is_move_iterator<_II>::__value>
 464:/opt/gcc/4.9.2/include/c++/4.9.2/bits/stl_algobase.h **** 	      (std::__miter_base(__first), std::__miter_base(__last),
 465:/opt/gcc/4.9.2/include/c++/4.9.2/bits/stl_algobase.h **** 	       __result));
 466:/opt/gcc/4.9.2/include/c++/4.9.2/bits/stl_algobase.h ****     }
 467:/opt/gcc/4.9.2/include/c++/4.9.2/bits/stl_algobase.h **** 
 468:/opt/gcc/4.9.2/include/c++/4.9.2/bits/stl_algobase.h **** #if __cplusplus >= 201103L
 469:/opt/gcc/4.9.2/include/c++/4.9.2/bits/stl_algobase.h ****   /**
 470:/opt/gcc/4.9.2/include/c++/4.9.2/bits/stl_algobase.h ****    *  @brief Moves the range [first,last) into result.
 471:/opt/gcc/4.9.2/include/c++/4.9.2/bits/stl_algobase.h ****    *  @ingroup mutating_algorithms
 472:/opt/gcc/4.9.2/include/c++/4.9.2/bits/stl_algobase.h ****    *  @param  __first  An input iterator.
 473:/opt/gcc/4.9.2/include/c++/4.9.2/bits/stl_algobase.h ****    *  @param  __last   An input iterator.
 474:/opt/gcc/4.9.2/include/c++/4.9.2/bits/stl_algobase.h ****    *  @param  __result An output iterator.
 475:/opt/gcc/4.9.2/include/c++/4.9.2/bits/stl_algobase.h ****    *  @return   result + (first - last)
 476:/opt/gcc/4.9.2/include/c++/4.9.2/bits/stl_algobase.h ****    *
 477:/opt/gcc/4.9.2/include/c++/4.9.2/bits/stl_algobase.h ****    *  This inline function will boil down to a call to @c memmove whenever
 478:/opt/gcc/4.9.2/include/c++/4.9.2/bits/stl_algobase.h ****    *  possible.  Failing that, if random access iterators are passed, then the
 479:/opt/gcc/4.9.2/include/c++/4.9.2/bits/stl_algobase.h ****    *  loop count will be known (and therefore a candidate for compiler
 480:/opt/gcc/4.9.2/include/c++/4.9.2/bits/stl_algobase.h ****    *  optimizations such as unrolling).  Result may not be contained within
 481:/opt/gcc/4.9.2/include/c++/4.9.2/bits/stl_algobase.h ****    *  [first,last); the move_backward function should be used instead.
 482:/opt/gcc/4.9.2/include/c++/4.9.2/bits/stl_algobase.h ****    *
 483:/opt/gcc/4.9.2/include/c++/4.9.2/bits/stl_algobase.h ****    *  Note that the end of the output range is permitted to be contained
 484:/opt/gcc/4.9.2/include/c++/4.9.2/bits/stl_algobase.h ****    *  within [first,last).
 485:/opt/gcc/4.9.2/include/c++/4.9.2/bits/stl_algobase.h ****   */
GAS LISTING /tmp/ccJkRw2J.s 			page 42


 486:/opt/gcc/4.9.2/include/c++/4.9.2/bits/stl_algobase.h ****   template<typename _II, typename _OI>
 487:/opt/gcc/4.9.2/include/c++/4.9.2/bits/stl_algobase.h ****     inline _OI
 488:/opt/gcc/4.9.2/include/c++/4.9.2/bits/stl_algobase.h ****     move(_II __first, _II __last, _OI __result)
 489:/opt/gcc/4.9.2/include/c++/4.9.2/bits/stl_algobase.h ****     {
 490:/opt/gcc/4.9.2/include/c++/4.9.2/bits/stl_algobase.h ****       // concept requirements
 491:/opt/gcc/4.9.2/include/c++/4.9.2/bits/stl_algobase.h ****       __glibcxx_function_requires(_InputIteratorConcept<_II>)
 492:/opt/gcc/4.9.2/include/c++/4.9.2/bits/stl_algobase.h ****       __glibcxx_function_requires(_OutputIteratorConcept<_OI,
 493:/opt/gcc/4.9.2/include/c++/4.9.2/bits/stl_algobase.h **** 	    typename iterator_traits<_II>::value_type>)
 494:/opt/gcc/4.9.2/include/c++/4.9.2/bits/stl_algobase.h ****       __glibcxx_requires_valid_range(__first, __last);
 495:/opt/gcc/4.9.2/include/c++/4.9.2/bits/stl_algobase.h **** 
 496:/opt/gcc/4.9.2/include/c++/4.9.2/bits/stl_algobase.h ****       return std::__copy_move_a2<true>(std::__miter_base(__first),
 497:/opt/gcc/4.9.2/include/c++/4.9.2/bits/stl_algobase.h **** 				       std::__miter_base(__last), __result);
 498:/opt/gcc/4.9.2/include/c++/4.9.2/bits/stl_algobase.h ****     }
 499:/opt/gcc/4.9.2/include/c++/4.9.2/bits/stl_algobase.h **** 
 500:/opt/gcc/4.9.2/include/c++/4.9.2/bits/stl_algobase.h **** #define _GLIBCXX_MOVE3(_Tp, _Up, _Vp) std::move(_Tp, _Up, _Vp)
 501:/opt/gcc/4.9.2/include/c++/4.9.2/bits/stl_algobase.h **** #else
 502:/opt/gcc/4.9.2/include/c++/4.9.2/bits/stl_algobase.h **** #define _GLIBCXX_MOVE3(_Tp, _Up, _Vp) std::copy(_Tp, _Up, _Vp)
 503:/opt/gcc/4.9.2/include/c++/4.9.2/bits/stl_algobase.h **** #endif
 504:/opt/gcc/4.9.2/include/c++/4.9.2/bits/stl_algobase.h **** 
 505:/opt/gcc/4.9.2/include/c++/4.9.2/bits/stl_algobase.h ****   template<bool, bool, typename>
 506:/opt/gcc/4.9.2/include/c++/4.9.2/bits/stl_algobase.h ****     struct __copy_move_backward
 507:/opt/gcc/4.9.2/include/c++/4.9.2/bits/stl_algobase.h ****     {
 508:/opt/gcc/4.9.2/include/c++/4.9.2/bits/stl_algobase.h ****       template<typename _BI1, typename _BI2>
 509:/opt/gcc/4.9.2/include/c++/4.9.2/bits/stl_algobase.h ****         static _BI2
 510:/opt/gcc/4.9.2/include/c++/4.9.2/bits/stl_algobase.h ****         __copy_move_b(_BI1 __first, _BI1 __last, _BI2 __result)
 511:/opt/gcc/4.9.2/include/c++/4.9.2/bits/stl_algobase.h ****         {
 512:/opt/gcc/4.9.2/include/c++/4.9.2/bits/stl_algobase.h **** 	  while (__first != __last)
 513:/opt/gcc/4.9.2/include/c++/4.9.2/bits/stl_algobase.h **** 	    *--__result = *--__last;
 514:/opt/gcc/4.9.2/include/c++/4.9.2/bits/stl_algobase.h **** 	  return __result;
 515:/opt/gcc/4.9.2/include/c++/4.9.2/bits/stl_algobase.h **** 	}
 516:/opt/gcc/4.9.2/include/c++/4.9.2/bits/stl_algobase.h ****     };
 517:/opt/gcc/4.9.2/include/c++/4.9.2/bits/stl_algobase.h **** 
 518:/opt/gcc/4.9.2/include/c++/4.9.2/bits/stl_algobase.h **** #if __cplusplus >= 201103L
 519:/opt/gcc/4.9.2/include/c++/4.9.2/bits/stl_algobase.h ****   template<typename _Category>
 520:/opt/gcc/4.9.2/include/c++/4.9.2/bits/stl_algobase.h ****     struct __copy_move_backward<true, false, _Category>
 521:/opt/gcc/4.9.2/include/c++/4.9.2/bits/stl_algobase.h ****     {
 522:/opt/gcc/4.9.2/include/c++/4.9.2/bits/stl_algobase.h ****       template<typename _BI1, typename _BI2>
 523:/opt/gcc/4.9.2/include/c++/4.9.2/bits/stl_algobase.h ****         static _BI2
 524:/opt/gcc/4.9.2/include/c++/4.9.2/bits/stl_algobase.h ****         __copy_move_b(_BI1 __first, _BI1 __last, _BI2 __result)
 525:/opt/gcc/4.9.2/include/c++/4.9.2/bits/stl_algobase.h ****         {
 526:/opt/gcc/4.9.2/include/c++/4.9.2/bits/stl_algobase.h **** 	  while (__first != __last)
 527:/opt/gcc/4.9.2/include/c++/4.9.2/bits/stl_algobase.h **** 	    *--__result = std::move(*--__last);
 528:/opt/gcc/4.9.2/include/c++/4.9.2/bits/stl_algobase.h **** 	  return __result;
 529:/opt/gcc/4.9.2/include/c++/4.9.2/bits/stl_algobase.h **** 	}
 530:/opt/gcc/4.9.2/include/c++/4.9.2/bits/stl_algobase.h ****     };
 531:/opt/gcc/4.9.2/include/c++/4.9.2/bits/stl_algobase.h **** #endif
 532:/opt/gcc/4.9.2/include/c++/4.9.2/bits/stl_algobase.h **** 
 533:/opt/gcc/4.9.2/include/c++/4.9.2/bits/stl_algobase.h ****   template<>
 534:/opt/gcc/4.9.2/include/c++/4.9.2/bits/stl_algobase.h ****     struct __copy_move_backward<false, false, random_access_iterator_tag>
 535:/opt/gcc/4.9.2/include/c++/4.9.2/bits/stl_algobase.h ****     {
 536:/opt/gcc/4.9.2/include/c++/4.9.2/bits/stl_algobase.h ****       template<typename _BI1, typename _BI2>
 537:/opt/gcc/4.9.2/include/c++/4.9.2/bits/stl_algobase.h ****         static _BI2
 538:/opt/gcc/4.9.2/include/c++/4.9.2/bits/stl_algobase.h ****         __copy_move_b(_BI1 __first, _BI1 __last, _BI2 __result)
 539:/opt/gcc/4.9.2/include/c++/4.9.2/bits/stl_algobase.h ****         {
 540:/opt/gcc/4.9.2/include/c++/4.9.2/bits/stl_algobase.h **** 	  typename iterator_traits<_BI1>::difference_type __n;
 541:/opt/gcc/4.9.2/include/c++/4.9.2/bits/stl_algobase.h **** 	  for (__n = __last - __first; __n > 0; --__n)
 542:/opt/gcc/4.9.2/include/c++/4.9.2/bits/stl_algobase.h **** 	    *--__result = *--__last;
GAS LISTING /tmp/ccJkRw2J.s 			page 43


 543:/opt/gcc/4.9.2/include/c++/4.9.2/bits/stl_algobase.h **** 	  return __result;
 544:/opt/gcc/4.9.2/include/c++/4.9.2/bits/stl_algobase.h **** 	}
 545:/opt/gcc/4.9.2/include/c++/4.9.2/bits/stl_algobase.h ****     };
 546:/opt/gcc/4.9.2/include/c++/4.9.2/bits/stl_algobase.h **** 
 547:/opt/gcc/4.9.2/include/c++/4.9.2/bits/stl_algobase.h **** #if __cplusplus >= 201103L
 548:/opt/gcc/4.9.2/include/c++/4.9.2/bits/stl_algobase.h ****   template<>
 549:/opt/gcc/4.9.2/include/c++/4.9.2/bits/stl_algobase.h ****     struct __copy_move_backward<true, false, random_access_iterator_tag>
 550:/opt/gcc/4.9.2/include/c++/4.9.2/bits/stl_algobase.h ****     {
 551:/opt/gcc/4.9.2/include/c++/4.9.2/bits/stl_algobase.h ****       template<typename _BI1, typename _BI2>
 552:/opt/gcc/4.9.2/include/c++/4.9.2/bits/stl_algobase.h ****         static _BI2
 553:/opt/gcc/4.9.2/include/c++/4.9.2/bits/stl_algobase.h ****         __copy_move_b(_BI1 __first, _BI1 __last, _BI2 __result)
 554:/opt/gcc/4.9.2/include/c++/4.9.2/bits/stl_algobase.h ****         {
 555:/opt/gcc/4.9.2/include/c++/4.9.2/bits/stl_algobase.h **** 	  typename iterator_traits<_BI1>::difference_type __n;
 556:/opt/gcc/4.9.2/include/c++/4.9.2/bits/stl_algobase.h **** 	  for (__n = __last - __first; __n > 0; --__n)
 557:/opt/gcc/4.9.2/include/c++/4.9.2/bits/stl_algobase.h **** 	    *--__result = std::move(*--__last);
 558:/opt/gcc/4.9.2/include/c++/4.9.2/bits/stl_algobase.h **** 	  return __result;
 559:/opt/gcc/4.9.2/include/c++/4.9.2/bits/stl_algobase.h **** 	}
 560:/opt/gcc/4.9.2/include/c++/4.9.2/bits/stl_algobase.h ****     };
 561:/opt/gcc/4.9.2/include/c++/4.9.2/bits/stl_algobase.h **** #endif
 562:/opt/gcc/4.9.2/include/c++/4.9.2/bits/stl_algobase.h **** 
 563:/opt/gcc/4.9.2/include/c++/4.9.2/bits/stl_algobase.h ****   template<bool _IsMove>
 564:/opt/gcc/4.9.2/include/c++/4.9.2/bits/stl_algobase.h ****     struct __copy_move_backward<_IsMove, true, random_access_iterator_tag>
 565:/opt/gcc/4.9.2/include/c++/4.9.2/bits/stl_algobase.h ****     {
 566:/opt/gcc/4.9.2/include/c++/4.9.2/bits/stl_algobase.h ****       template<typename _Tp>
 567:/opt/gcc/4.9.2/include/c++/4.9.2/bits/stl_algobase.h ****         static _Tp*
 568:/opt/gcc/4.9.2/include/c++/4.9.2/bits/stl_algobase.h ****         __copy_move_b(const _Tp* __first, const _Tp* __last, _Tp* __result)
 569:/opt/gcc/4.9.2/include/c++/4.9.2/bits/stl_algobase.h ****         {
 570:/opt/gcc/4.9.2/include/c++/4.9.2/bits/stl_algobase.h **** #if __cplusplus >= 201103L
 571:/opt/gcc/4.9.2/include/c++/4.9.2/bits/stl_algobase.h **** 	  // trivial types can have deleted assignment
 572:/opt/gcc/4.9.2/include/c++/4.9.2/bits/stl_algobase.h **** 	  static_assert( is_copy_assignable<_Tp>::value,
 573:/opt/gcc/4.9.2/include/c++/4.9.2/bits/stl_algobase.h **** 	                 "type is not assignable" );
 574:/opt/gcc/4.9.2/include/c++/4.9.2/bits/stl_algobase.h **** #endif
 575:/opt/gcc/4.9.2/include/c++/4.9.2/bits/stl_algobase.h **** 	  const ptrdiff_t _Num = __last - __first;
 576:/opt/gcc/4.9.2/include/c++/4.9.2/bits/stl_algobase.h **** 	  if (_Num)
 577:/opt/gcc/4.9.2/include/c++/4.9.2/bits/stl_algobase.h **** 	    __builtin_memmove(__result - _Num, __first, sizeof(_Tp) * _Num);
 578:/opt/gcc/4.9.2/include/c++/4.9.2/bits/stl_algobase.h **** 	  return __result - _Num;
 579:/opt/gcc/4.9.2/include/c++/4.9.2/bits/stl_algobase.h **** 	}
 580:/opt/gcc/4.9.2/include/c++/4.9.2/bits/stl_algobase.h ****     };
 581:/opt/gcc/4.9.2/include/c++/4.9.2/bits/stl_algobase.h **** 
 582:/opt/gcc/4.9.2/include/c++/4.9.2/bits/stl_algobase.h ****   template<bool _IsMove, typename _BI1, typename _BI2>
 583:/opt/gcc/4.9.2/include/c++/4.9.2/bits/stl_algobase.h ****     inline _BI2
 584:/opt/gcc/4.9.2/include/c++/4.9.2/bits/stl_algobase.h ****     __copy_move_backward_a(_BI1 __first, _BI1 __last, _BI2 __result)
 585:/opt/gcc/4.9.2/include/c++/4.9.2/bits/stl_algobase.h ****     {
 586:/opt/gcc/4.9.2/include/c++/4.9.2/bits/stl_algobase.h ****       typedef typename iterator_traits<_BI1>::value_type _ValueType1;
 587:/opt/gcc/4.9.2/include/c++/4.9.2/bits/stl_algobase.h ****       typedef typename iterator_traits<_BI2>::value_type _ValueType2;
 588:/opt/gcc/4.9.2/include/c++/4.9.2/bits/stl_algobase.h ****       typedef typename iterator_traits<_BI1>::iterator_category _Category;
 589:/opt/gcc/4.9.2/include/c++/4.9.2/bits/stl_algobase.h ****       const bool __simple = (__is_trivial(_ValueType1)
 590:/opt/gcc/4.9.2/include/c++/4.9.2/bits/stl_algobase.h **** 	                     && __is_pointer<_BI1>::__value
 591:/opt/gcc/4.9.2/include/c++/4.9.2/bits/stl_algobase.h **** 	                     && __is_pointer<_BI2>::__value
 592:/opt/gcc/4.9.2/include/c++/4.9.2/bits/stl_algobase.h **** 			     && __are_same<_ValueType1, _ValueType2>::__value);
 593:/opt/gcc/4.9.2/include/c++/4.9.2/bits/stl_algobase.h **** 
 594:/opt/gcc/4.9.2/include/c++/4.9.2/bits/stl_algobase.h ****       return std::__copy_move_backward<_IsMove, __simple,
 595:/opt/gcc/4.9.2/include/c++/4.9.2/bits/stl_algobase.h **** 	                               _Category>::__copy_move_b(__first,
 596:/opt/gcc/4.9.2/include/c++/4.9.2/bits/stl_algobase.h **** 								 __last,
 597:/opt/gcc/4.9.2/include/c++/4.9.2/bits/stl_algobase.h **** 								 __result);
 598:/opt/gcc/4.9.2/include/c++/4.9.2/bits/stl_algobase.h ****     }
 599:/opt/gcc/4.9.2/include/c++/4.9.2/bits/stl_algobase.h **** 
GAS LISTING /tmp/ccJkRw2J.s 			page 44


 600:/opt/gcc/4.9.2/include/c++/4.9.2/bits/stl_algobase.h ****   template<bool _IsMove, typename _BI1, typename _BI2>
 601:/opt/gcc/4.9.2/include/c++/4.9.2/bits/stl_algobase.h ****     inline _BI2
 602:/opt/gcc/4.9.2/include/c++/4.9.2/bits/stl_algobase.h ****     __copy_move_backward_a2(_BI1 __first, _BI1 __last, _BI2 __result)
 603:/opt/gcc/4.9.2/include/c++/4.9.2/bits/stl_algobase.h ****     {
 604:/opt/gcc/4.9.2/include/c++/4.9.2/bits/stl_algobase.h ****       return _BI2(std::__copy_move_backward_a<_IsMove>
 605:/opt/gcc/4.9.2/include/c++/4.9.2/bits/stl_algobase.h **** 		  (std::__niter_base(__first), std::__niter_base(__last),
 606:/opt/gcc/4.9.2/include/c++/4.9.2/bits/stl_algobase.h **** 		   std::__niter_base(__result)));
 607:/opt/gcc/4.9.2/include/c++/4.9.2/bits/stl_algobase.h ****     }
 608:/opt/gcc/4.9.2/include/c++/4.9.2/bits/stl_algobase.h **** 
 609:/opt/gcc/4.9.2/include/c++/4.9.2/bits/stl_algobase.h ****   /**
 610:/opt/gcc/4.9.2/include/c++/4.9.2/bits/stl_algobase.h ****    *  @brief Copies the range [first,last) into result.
 611:/opt/gcc/4.9.2/include/c++/4.9.2/bits/stl_algobase.h ****    *  @ingroup mutating_algorithms
 612:/opt/gcc/4.9.2/include/c++/4.9.2/bits/stl_algobase.h ****    *  @param  __first  A bidirectional iterator.
 613:/opt/gcc/4.9.2/include/c++/4.9.2/bits/stl_algobase.h ****    *  @param  __last   A bidirectional iterator.
 614:/opt/gcc/4.9.2/include/c++/4.9.2/bits/stl_algobase.h ****    *  @param  __result A bidirectional iterator.
 615:/opt/gcc/4.9.2/include/c++/4.9.2/bits/stl_algobase.h ****    *  @return   result - (first - last)
 616:/opt/gcc/4.9.2/include/c++/4.9.2/bits/stl_algobase.h ****    *
 617:/opt/gcc/4.9.2/include/c++/4.9.2/bits/stl_algobase.h ****    *  The function has the same effect as copy, but starts at the end of the
 618:/opt/gcc/4.9.2/include/c++/4.9.2/bits/stl_algobase.h ****    *  range and works its way to the start, returning the start of the result.
 619:/opt/gcc/4.9.2/include/c++/4.9.2/bits/stl_algobase.h ****    *  This inline function will boil down to a call to @c memmove whenever
 620:/opt/gcc/4.9.2/include/c++/4.9.2/bits/stl_algobase.h ****    *  possible.  Failing that, if random access iterators are passed, then the
 621:/opt/gcc/4.9.2/include/c++/4.9.2/bits/stl_algobase.h ****    *  loop count will be known (and therefore a candidate for compiler
 622:/opt/gcc/4.9.2/include/c++/4.9.2/bits/stl_algobase.h ****    *  optimizations such as unrolling).
 623:/opt/gcc/4.9.2/include/c++/4.9.2/bits/stl_algobase.h ****    *
 624:/opt/gcc/4.9.2/include/c++/4.9.2/bits/stl_algobase.h ****    *  Result may not be in the range (first,last].  Use copy instead.  Note
 625:/opt/gcc/4.9.2/include/c++/4.9.2/bits/stl_algobase.h ****    *  that the start of the output range may overlap [first,last).
 626:/opt/gcc/4.9.2/include/c++/4.9.2/bits/stl_algobase.h ****   */
 627:/opt/gcc/4.9.2/include/c++/4.9.2/bits/stl_algobase.h ****   template<typename _BI1, typename _BI2>
 628:/opt/gcc/4.9.2/include/c++/4.9.2/bits/stl_algobase.h ****     inline _BI2
 629:/opt/gcc/4.9.2/include/c++/4.9.2/bits/stl_algobase.h ****     copy_backward(_BI1 __first, _BI1 __last, _BI2 __result)
 630:/opt/gcc/4.9.2/include/c++/4.9.2/bits/stl_algobase.h ****     {
 631:/opt/gcc/4.9.2/include/c++/4.9.2/bits/stl_algobase.h ****       // concept requirements
 632:/opt/gcc/4.9.2/include/c++/4.9.2/bits/stl_algobase.h ****       __glibcxx_function_requires(_BidirectionalIteratorConcept<_BI1>)
 633:/opt/gcc/4.9.2/include/c++/4.9.2/bits/stl_algobase.h ****       __glibcxx_function_requires(_Mutable_BidirectionalIteratorConcept<_BI2>)
 634:/opt/gcc/4.9.2/include/c++/4.9.2/bits/stl_algobase.h ****       __glibcxx_function_requires(_ConvertibleConcept<
 635:/opt/gcc/4.9.2/include/c++/4.9.2/bits/stl_algobase.h **** 	    typename iterator_traits<_BI1>::value_type,
 636:/opt/gcc/4.9.2/include/c++/4.9.2/bits/stl_algobase.h **** 	    typename iterator_traits<_BI2>::value_type>)
 637:/opt/gcc/4.9.2/include/c++/4.9.2/bits/stl_algobase.h ****       __glibcxx_requires_valid_range(__first, __last);
 638:/opt/gcc/4.9.2/include/c++/4.9.2/bits/stl_algobase.h **** 
 639:/opt/gcc/4.9.2/include/c++/4.9.2/bits/stl_algobase.h ****       return (std::__copy_move_backward_a2<__is_move_iterator<_BI1>::__value>
 640:/opt/gcc/4.9.2/include/c++/4.9.2/bits/stl_algobase.h **** 	      (std::__miter_base(__first), std::__miter_base(__last),
 641:/opt/gcc/4.9.2/include/c++/4.9.2/bits/stl_algobase.h **** 	       __result));
 642:/opt/gcc/4.9.2/include/c++/4.9.2/bits/stl_algobase.h ****     }
 643:/opt/gcc/4.9.2/include/c++/4.9.2/bits/stl_algobase.h **** 
 644:/opt/gcc/4.9.2/include/c++/4.9.2/bits/stl_algobase.h **** #if __cplusplus >= 201103L
 645:/opt/gcc/4.9.2/include/c++/4.9.2/bits/stl_algobase.h ****   /**
 646:/opt/gcc/4.9.2/include/c++/4.9.2/bits/stl_algobase.h ****    *  @brief Moves the range [first,last) into result.
 647:/opt/gcc/4.9.2/include/c++/4.9.2/bits/stl_algobase.h ****    *  @ingroup mutating_algorithms
 648:/opt/gcc/4.9.2/include/c++/4.9.2/bits/stl_algobase.h ****    *  @param  __first  A bidirectional iterator.
 649:/opt/gcc/4.9.2/include/c++/4.9.2/bits/stl_algobase.h ****    *  @param  __last   A bidirectional iterator.
 650:/opt/gcc/4.9.2/include/c++/4.9.2/bits/stl_algobase.h ****    *  @param  __result A bidirectional iterator.
 651:/opt/gcc/4.9.2/include/c++/4.9.2/bits/stl_algobase.h ****    *  @return   result - (first - last)
 652:/opt/gcc/4.9.2/include/c++/4.9.2/bits/stl_algobase.h ****    *
 653:/opt/gcc/4.9.2/include/c++/4.9.2/bits/stl_algobase.h ****    *  The function has the same effect as move, but starts at the end of the
 654:/opt/gcc/4.9.2/include/c++/4.9.2/bits/stl_algobase.h ****    *  range and works its way to the start, returning the start of the result.
 655:/opt/gcc/4.9.2/include/c++/4.9.2/bits/stl_algobase.h ****    *  This inline function will boil down to a call to @c memmove whenever
 656:/opt/gcc/4.9.2/include/c++/4.9.2/bits/stl_algobase.h ****    *  possible.  Failing that, if random access iterators are passed, then the
GAS LISTING /tmp/ccJkRw2J.s 			page 45


 657:/opt/gcc/4.9.2/include/c++/4.9.2/bits/stl_algobase.h ****    *  loop count will be known (and therefore a candidate for compiler
 658:/opt/gcc/4.9.2/include/c++/4.9.2/bits/stl_algobase.h ****    *  optimizations such as unrolling).
 659:/opt/gcc/4.9.2/include/c++/4.9.2/bits/stl_algobase.h ****    *
 660:/opt/gcc/4.9.2/include/c++/4.9.2/bits/stl_algobase.h ****    *  Result may not be in the range (first,last].  Use move instead.  Note
 661:/opt/gcc/4.9.2/include/c++/4.9.2/bits/stl_algobase.h ****    *  that the start of the output range may overlap [first,last).
 662:/opt/gcc/4.9.2/include/c++/4.9.2/bits/stl_algobase.h ****   */
 663:/opt/gcc/4.9.2/include/c++/4.9.2/bits/stl_algobase.h ****   template<typename _BI1, typename _BI2>
 664:/opt/gcc/4.9.2/include/c++/4.9.2/bits/stl_algobase.h ****     inline _BI2
 665:/opt/gcc/4.9.2/include/c++/4.9.2/bits/stl_algobase.h ****     move_backward(_BI1 __first, _BI1 __last, _BI2 __result)
 666:/opt/gcc/4.9.2/include/c++/4.9.2/bits/stl_algobase.h ****     {
 667:/opt/gcc/4.9.2/include/c++/4.9.2/bits/stl_algobase.h ****       // concept requirements
 668:/opt/gcc/4.9.2/include/c++/4.9.2/bits/stl_algobase.h ****       __glibcxx_function_requires(_BidirectionalIteratorConcept<_BI1>)
 669:/opt/gcc/4.9.2/include/c++/4.9.2/bits/stl_algobase.h ****       __glibcxx_function_requires(_Mutable_BidirectionalIteratorConcept<_BI2>)
 670:/opt/gcc/4.9.2/include/c++/4.9.2/bits/stl_algobase.h ****       __glibcxx_function_requires(_ConvertibleConcept<
 671:/opt/gcc/4.9.2/include/c++/4.9.2/bits/stl_algobase.h **** 	    typename iterator_traits<_BI1>::value_type,
 672:/opt/gcc/4.9.2/include/c++/4.9.2/bits/stl_algobase.h **** 	    typename iterator_traits<_BI2>::value_type>)
 673:/opt/gcc/4.9.2/include/c++/4.9.2/bits/stl_algobase.h ****       __glibcxx_requires_valid_range(__first, __last);
 674:/opt/gcc/4.9.2/include/c++/4.9.2/bits/stl_algobase.h **** 
 675:/opt/gcc/4.9.2/include/c++/4.9.2/bits/stl_algobase.h ****       return std::__copy_move_backward_a2<true>(std::__miter_base(__first),
 676:/opt/gcc/4.9.2/include/c++/4.9.2/bits/stl_algobase.h **** 						std::__miter_base(__last),
 677:/opt/gcc/4.9.2/include/c++/4.9.2/bits/stl_algobase.h **** 						__result);
 678:/opt/gcc/4.9.2/include/c++/4.9.2/bits/stl_algobase.h ****     }
 679:/opt/gcc/4.9.2/include/c++/4.9.2/bits/stl_algobase.h **** 
 680:/opt/gcc/4.9.2/include/c++/4.9.2/bits/stl_algobase.h **** #define _GLIBCXX_MOVE_BACKWARD3(_Tp, _Up, _Vp) std::move_backward(_Tp, _Up, _Vp)
 681:/opt/gcc/4.9.2/include/c++/4.9.2/bits/stl_algobase.h **** #else
 682:/opt/gcc/4.9.2/include/c++/4.9.2/bits/stl_algobase.h **** #define _GLIBCXX_MOVE_BACKWARD3(_Tp, _Up, _Vp) std::copy_backward(_Tp, _Up, _Vp)
 683:/opt/gcc/4.9.2/include/c++/4.9.2/bits/stl_algobase.h **** #endif
 684:/opt/gcc/4.9.2/include/c++/4.9.2/bits/stl_algobase.h **** 
 685:/opt/gcc/4.9.2/include/c++/4.9.2/bits/stl_algobase.h ****   template<typename _ForwardIterator, typename _Tp>
 686:/opt/gcc/4.9.2/include/c++/4.9.2/bits/stl_algobase.h ****     inline typename
 687:/opt/gcc/4.9.2/include/c++/4.9.2/bits/stl_algobase.h ****     __gnu_cxx::__enable_if<!__is_scalar<_Tp>::__value, void>::__type
 688:/opt/gcc/4.9.2/include/c++/4.9.2/bits/stl_algobase.h ****     __fill_a(_ForwardIterator __first, _ForwardIterator __last,
 689:/opt/gcc/4.9.2/include/c++/4.9.2/bits/stl_algobase.h ****  	     const _Tp& __value)
 690:/opt/gcc/4.9.2/include/c++/4.9.2/bits/stl_algobase.h ****     {
 691:/opt/gcc/4.9.2/include/c++/4.9.2/bits/stl_algobase.h ****       for (; __first != __last; ++__first)
 692:/opt/gcc/4.9.2/include/c++/4.9.2/bits/stl_algobase.h **** 	*__first = __value;
 693:/opt/gcc/4.9.2/include/c++/4.9.2/bits/stl_algobase.h ****     }
 694:/opt/gcc/4.9.2/include/c++/4.9.2/bits/stl_algobase.h ****     
 695:/opt/gcc/4.9.2/include/c++/4.9.2/bits/stl_algobase.h ****   template<typename _ForwardIterator, typename _Tp>
 696:/opt/gcc/4.9.2/include/c++/4.9.2/bits/stl_algobase.h ****     inline typename
 697:/opt/gcc/4.9.2/include/c++/4.9.2/bits/stl_algobase.h ****     __gnu_cxx::__enable_if<__is_scalar<_Tp>::__value, void>::__type
 698:/opt/gcc/4.9.2/include/c++/4.9.2/bits/stl_algobase.h ****     __fill_a(_ForwardIterator __first, _ForwardIterator __last,
 699:/opt/gcc/4.9.2/include/c++/4.9.2/bits/stl_algobase.h **** 	     const _Tp& __value)
 700:/opt/gcc/4.9.2/include/c++/4.9.2/bits/stl_algobase.h ****     {
 701:/opt/gcc/4.9.2/include/c++/4.9.2/bits/stl_algobase.h ****       const _Tp __tmp = __value;
 702:/opt/gcc/4.9.2/include/c++/4.9.2/bits/stl_algobase.h ****       for (; __first != __last; ++__first)
 703:/opt/gcc/4.9.2/include/c++/4.9.2/bits/stl_algobase.h **** 	*__first = __tmp;
 704:/opt/gcc/4.9.2/include/c++/4.9.2/bits/stl_algobase.h ****     }
 705:/opt/gcc/4.9.2/include/c++/4.9.2/bits/stl_algobase.h **** 
 706:/opt/gcc/4.9.2/include/c++/4.9.2/bits/stl_algobase.h ****   // Specialization: for char types we can use memset.
 707:/opt/gcc/4.9.2/include/c++/4.9.2/bits/stl_algobase.h ****   template<typename _Tp>
 708:/opt/gcc/4.9.2/include/c++/4.9.2/bits/stl_algobase.h ****     inline typename
 709:/opt/gcc/4.9.2/include/c++/4.9.2/bits/stl_algobase.h ****     __gnu_cxx::__enable_if<__is_byte<_Tp>::__value, void>::__type
 710:/opt/gcc/4.9.2/include/c++/4.9.2/bits/stl_algobase.h ****     __fill_a(_Tp* __first, _Tp* __last, const _Tp& __c)
 711:/opt/gcc/4.9.2/include/c++/4.9.2/bits/stl_algobase.h ****     {
 712:/opt/gcc/4.9.2/include/c++/4.9.2/bits/stl_algobase.h ****       const _Tp __tmp = __c;
 713:/opt/gcc/4.9.2/include/c++/4.9.2/bits/stl_algobase.h ****       __builtin_memset(__first, static_cast<unsigned char>(__tmp),
GAS LISTING /tmp/ccJkRw2J.s 			page 46


 619              		.loc 8 714 0
 620 021d 4C89F2   		movq	%r14, %rdx
 621 0220 31F6     		xorl	%esi, %esi
 622 0222 4889C7   		movq	%rax, %rdi
 623              	.LBE619:
 624              	.LBE618:
 625              	.LBE617:
 626              	.LBE616:
 627              	.LBE615:
 628              	.LBE614:
 629              	.LBE613:
 630              	.LBE612:
 631              	.LBE611:
 632              	.LBE610:
 633              	.LBE609:
 634              	.LBB631:
 635              	.LBB608:
 636              	.LBB604:
 185:/opt/gcc/4.9.2/include/c++/4.9.2/bits/stl_vector.h **** 	this->_M_impl._M_start = this->_M_allocate(__n);
 637              		.loc 6 185 0
 638 0225 4889C3   		movq	%rax, %rbx
 639              	.LVL73:
 640 0228 48894424 		movq	%rax, 64(%rsp)
 640      40
 641              		.loc 6 187 0
 642 022d 4C897C24 		movq	%r15, 80(%rsp)
 642      50
 643              	.LVL74:
 644              	.LBE604:
 645              	.LBE608:
 646              	.LBE631:
 647              	.LBB632:
 648              	.LBB629:
 649              	.LBB628:
 650              	.LBB627:
 651              	.LBB626:
 652              	.LBB625:
 653              	.LBB624:
 654              	.LBB623:
 655              	.LBB622:
 656              	.LBB621:
 657              	.LBB620:
 658              		.loc 8 714 0
 659 0232 E8000000 		call	memset@PLT
 659      00
 660              	.LVL75:
 661              	.LBE620:
 662              	.LBE621:
 663              	.LBE622:
 664              	.LBE623:
 665              	.LBE624:
 666              	.LBE625:
 667              	.LBE626:
 668              	.LBE627:
 669              	.LBE628:
 670              	.LBE629:
 671              	.LBE632:
GAS LISTING /tmp/ccJkRw2J.s 			page 47


 672              	.LBE592:
  67:examples/customstamps.cpp ****     heatmap_render_to(hm, heatmap_cs_b2w_opaque, &image[0]);
 673              		.loc 1 67 0
 674 0237 488B0500 		movq	heatmap_cs_b2w_opaque@GOTPCREL(%rip), %rax
 674      000000
 675 023e 4889DA   		movq	%rbx, %rdx
 676 0241 4C89E7   		movq	%r12, %rdi
 677              	.LBB634:
 678              	.LBB633:
 679              	.LBB630:
 187:/opt/gcc/4.9.2/include/c++/4.9.2/bits/stl_vector.h ****       }
 188:/opt/gcc/4.9.2/include/c++/4.9.2/bits/stl_vector.h ****     };
 189:/opt/gcc/4.9.2/include/c++/4.9.2/bits/stl_vector.h **** 
 190:/opt/gcc/4.9.2/include/c++/4.9.2/bits/stl_vector.h **** 
 191:/opt/gcc/4.9.2/include/c++/4.9.2/bits/stl_vector.h ****   /**
 192:/opt/gcc/4.9.2/include/c++/4.9.2/bits/stl_vector.h ****    *  @brief A standard container which offers fixed time access to
 193:/opt/gcc/4.9.2/include/c++/4.9.2/bits/stl_vector.h ****    *  individual elements in any order.
 194:/opt/gcc/4.9.2/include/c++/4.9.2/bits/stl_vector.h ****    *
 195:/opt/gcc/4.9.2/include/c++/4.9.2/bits/stl_vector.h ****    *  @ingroup sequences
 196:/opt/gcc/4.9.2/include/c++/4.9.2/bits/stl_vector.h ****    *
 197:/opt/gcc/4.9.2/include/c++/4.9.2/bits/stl_vector.h ****    *  @tparam _Tp  Type of element.
 198:/opt/gcc/4.9.2/include/c++/4.9.2/bits/stl_vector.h ****    *  @tparam _Alloc  Allocator type, defaults to allocator<_Tp>.
 199:/opt/gcc/4.9.2/include/c++/4.9.2/bits/stl_vector.h ****    *
 200:/opt/gcc/4.9.2/include/c++/4.9.2/bits/stl_vector.h ****    *  Meets the requirements of a <a href="tables.html#65">container</a>, a
 201:/opt/gcc/4.9.2/include/c++/4.9.2/bits/stl_vector.h ****    *  <a href="tables.html#66">reversible container</a>, and a
 202:/opt/gcc/4.9.2/include/c++/4.9.2/bits/stl_vector.h ****    *  <a href="tables.html#67">sequence</a>, including the
 203:/opt/gcc/4.9.2/include/c++/4.9.2/bits/stl_vector.h ****    *  <a href="tables.html#68">optional sequence requirements</a> with the
 204:/opt/gcc/4.9.2/include/c++/4.9.2/bits/stl_vector.h ****    *  %exception of @c push_front and @c pop_front.
 205:/opt/gcc/4.9.2/include/c++/4.9.2/bits/stl_vector.h ****    *
 206:/opt/gcc/4.9.2/include/c++/4.9.2/bits/stl_vector.h ****    *  In some terminology a %vector can be described as a dynamic
 207:/opt/gcc/4.9.2/include/c++/4.9.2/bits/stl_vector.h ****    *  C-style array, it offers fast and efficient access to individual
 208:/opt/gcc/4.9.2/include/c++/4.9.2/bits/stl_vector.h ****    *  elements in any order and saves the user from worrying about
 209:/opt/gcc/4.9.2/include/c++/4.9.2/bits/stl_vector.h ****    *  memory and size allocation.  Subscripting ( @c [] ) access is
 210:/opt/gcc/4.9.2/include/c++/4.9.2/bits/stl_vector.h ****    *  also provided as with C-style arrays.
 211:/opt/gcc/4.9.2/include/c++/4.9.2/bits/stl_vector.h ****   */
 212:/opt/gcc/4.9.2/include/c++/4.9.2/bits/stl_vector.h ****   template<typename _Tp, typename _Alloc = std::allocator<_Tp> >
 213:/opt/gcc/4.9.2/include/c++/4.9.2/bits/stl_vector.h ****     class vector : protected _Vector_base<_Tp, _Alloc>
 214:/opt/gcc/4.9.2/include/c++/4.9.2/bits/stl_vector.h ****     {
 215:/opt/gcc/4.9.2/include/c++/4.9.2/bits/stl_vector.h ****       // Concept requirements.
 216:/opt/gcc/4.9.2/include/c++/4.9.2/bits/stl_vector.h ****       typedef typename _Alloc::value_type                _Alloc_value_type;
 217:/opt/gcc/4.9.2/include/c++/4.9.2/bits/stl_vector.h ****       __glibcxx_class_requires(_Tp, _SGIAssignableConcept)
 218:/opt/gcc/4.9.2/include/c++/4.9.2/bits/stl_vector.h ****       __glibcxx_class_requires2(_Tp, _Alloc_value_type, _SameTypeConcept)
 219:/opt/gcc/4.9.2/include/c++/4.9.2/bits/stl_vector.h ****       
 220:/opt/gcc/4.9.2/include/c++/4.9.2/bits/stl_vector.h ****       typedef _Vector_base<_Tp, _Alloc>			 _Base;
 221:/opt/gcc/4.9.2/include/c++/4.9.2/bits/stl_vector.h ****       typedef typename _Base::_Tp_alloc_type		 _Tp_alloc_type;
 222:/opt/gcc/4.9.2/include/c++/4.9.2/bits/stl_vector.h ****       typedef __gnu_cxx::__alloc_traits<_Tp_alloc_type>  _Alloc_traits;
 223:/opt/gcc/4.9.2/include/c++/4.9.2/bits/stl_vector.h **** 
 224:/opt/gcc/4.9.2/include/c++/4.9.2/bits/stl_vector.h ****     public:
 225:/opt/gcc/4.9.2/include/c++/4.9.2/bits/stl_vector.h ****       typedef _Tp					 value_type;
 226:/opt/gcc/4.9.2/include/c++/4.9.2/bits/stl_vector.h ****       typedef typename _Base::pointer                    pointer;
 227:/opt/gcc/4.9.2/include/c++/4.9.2/bits/stl_vector.h ****       typedef typename _Alloc_traits::const_pointer      const_pointer;
 228:/opt/gcc/4.9.2/include/c++/4.9.2/bits/stl_vector.h ****       typedef typename _Alloc_traits::reference          reference;
 229:/opt/gcc/4.9.2/include/c++/4.9.2/bits/stl_vector.h ****       typedef typename _Alloc_traits::const_reference    const_reference;
 230:/opt/gcc/4.9.2/include/c++/4.9.2/bits/stl_vector.h ****       typedef __gnu_cxx::__normal_iterator<pointer, vector> iterator;
 231:/opt/gcc/4.9.2/include/c++/4.9.2/bits/stl_vector.h ****       typedef __gnu_cxx::__normal_iterator<const_pointer, vector>
 232:/opt/gcc/4.9.2/include/c++/4.9.2/bits/stl_vector.h ****       const_iterator;
 233:/opt/gcc/4.9.2/include/c++/4.9.2/bits/stl_vector.h ****       typedef std::reverse_iterator<const_iterator>  const_reverse_iterator;
GAS LISTING /tmp/ccJkRw2J.s 			page 48


 234:/opt/gcc/4.9.2/include/c++/4.9.2/bits/stl_vector.h ****       typedef std::reverse_iterator<iterator>		 reverse_iterator;
 235:/opt/gcc/4.9.2/include/c++/4.9.2/bits/stl_vector.h ****       typedef size_t					 size_type;
 236:/opt/gcc/4.9.2/include/c++/4.9.2/bits/stl_vector.h ****       typedef ptrdiff_t					 difference_type;
 237:/opt/gcc/4.9.2/include/c++/4.9.2/bits/stl_vector.h ****       typedef _Alloc                        		 allocator_type;
 238:/opt/gcc/4.9.2/include/c++/4.9.2/bits/stl_vector.h **** 
 239:/opt/gcc/4.9.2/include/c++/4.9.2/bits/stl_vector.h ****     protected:
 240:/opt/gcc/4.9.2/include/c++/4.9.2/bits/stl_vector.h ****       using _Base::_M_allocate;
 241:/opt/gcc/4.9.2/include/c++/4.9.2/bits/stl_vector.h ****       using _Base::_M_deallocate;
 242:/opt/gcc/4.9.2/include/c++/4.9.2/bits/stl_vector.h ****       using _Base::_M_impl;
 243:/opt/gcc/4.9.2/include/c++/4.9.2/bits/stl_vector.h ****       using _Base::_M_get_Tp_allocator;
 244:/opt/gcc/4.9.2/include/c++/4.9.2/bits/stl_vector.h **** 
 245:/opt/gcc/4.9.2/include/c++/4.9.2/bits/stl_vector.h ****     public:
 246:/opt/gcc/4.9.2/include/c++/4.9.2/bits/stl_vector.h ****       // [23.2.4.1] construct/copy/destroy
 247:/opt/gcc/4.9.2/include/c++/4.9.2/bits/stl_vector.h ****       // (assign() and get_allocator() are also listed in this section)
 248:/opt/gcc/4.9.2/include/c++/4.9.2/bits/stl_vector.h **** 
 249:/opt/gcc/4.9.2/include/c++/4.9.2/bits/stl_vector.h ****       /**
 250:/opt/gcc/4.9.2/include/c++/4.9.2/bits/stl_vector.h ****        *  @brief  Creates a %vector with no elements.
 251:/opt/gcc/4.9.2/include/c++/4.9.2/bits/stl_vector.h ****        */
 252:/opt/gcc/4.9.2/include/c++/4.9.2/bits/stl_vector.h ****       vector()
 253:/opt/gcc/4.9.2/include/c++/4.9.2/bits/stl_vector.h **** #if __cplusplus >= 201103L
 254:/opt/gcc/4.9.2/include/c++/4.9.2/bits/stl_vector.h ****       noexcept(is_nothrow_default_constructible<_Alloc>::value)
 255:/opt/gcc/4.9.2/include/c++/4.9.2/bits/stl_vector.h **** #endif
 256:/opt/gcc/4.9.2/include/c++/4.9.2/bits/stl_vector.h ****       : _Base() { }
 257:/opt/gcc/4.9.2/include/c++/4.9.2/bits/stl_vector.h **** 
 258:/opt/gcc/4.9.2/include/c++/4.9.2/bits/stl_vector.h ****       /**
 259:/opt/gcc/4.9.2/include/c++/4.9.2/bits/stl_vector.h ****        *  @brief  Creates a %vector with no elements.
 260:/opt/gcc/4.9.2/include/c++/4.9.2/bits/stl_vector.h ****        *  @param  __a  An allocator object.
 261:/opt/gcc/4.9.2/include/c++/4.9.2/bits/stl_vector.h ****        */
 262:/opt/gcc/4.9.2/include/c++/4.9.2/bits/stl_vector.h ****       explicit
 263:/opt/gcc/4.9.2/include/c++/4.9.2/bits/stl_vector.h ****       vector(const allocator_type& __a) _GLIBCXX_NOEXCEPT
 264:/opt/gcc/4.9.2/include/c++/4.9.2/bits/stl_vector.h ****       : _Base(__a) { }
 265:/opt/gcc/4.9.2/include/c++/4.9.2/bits/stl_vector.h **** 
 266:/opt/gcc/4.9.2/include/c++/4.9.2/bits/stl_vector.h **** #if __cplusplus >= 201103L
 267:/opt/gcc/4.9.2/include/c++/4.9.2/bits/stl_vector.h ****       /**
 268:/opt/gcc/4.9.2/include/c++/4.9.2/bits/stl_vector.h ****        *  @brief  Creates a %vector with default constructed elements.
 269:/opt/gcc/4.9.2/include/c++/4.9.2/bits/stl_vector.h ****        *  @param  __n  The number of elements to initially create.
 270:/opt/gcc/4.9.2/include/c++/4.9.2/bits/stl_vector.h ****        *  @param  __a  An allocator.
 271:/opt/gcc/4.9.2/include/c++/4.9.2/bits/stl_vector.h ****        *
 272:/opt/gcc/4.9.2/include/c++/4.9.2/bits/stl_vector.h ****        *  This constructor fills the %vector with @a __n default
 273:/opt/gcc/4.9.2/include/c++/4.9.2/bits/stl_vector.h ****        *  constructed elements.
 274:/opt/gcc/4.9.2/include/c++/4.9.2/bits/stl_vector.h ****        */
 275:/opt/gcc/4.9.2/include/c++/4.9.2/bits/stl_vector.h ****       explicit
 276:/opt/gcc/4.9.2/include/c++/4.9.2/bits/stl_vector.h ****       vector(size_type __n, const allocator_type& __a = allocator_type())
 277:/opt/gcc/4.9.2/include/c++/4.9.2/bits/stl_vector.h ****       : _Base(__n, __a)
 278:/opt/gcc/4.9.2/include/c++/4.9.2/bits/stl_vector.h ****       { _M_default_initialize(__n); }
 279:/opt/gcc/4.9.2/include/c++/4.9.2/bits/stl_vector.h **** 
 280:/opt/gcc/4.9.2/include/c++/4.9.2/bits/stl_vector.h ****       /**
 281:/opt/gcc/4.9.2/include/c++/4.9.2/bits/stl_vector.h ****        *  @brief  Creates a %vector with copies of an exemplar element.
 282:/opt/gcc/4.9.2/include/c++/4.9.2/bits/stl_vector.h ****        *  @param  __n  The number of elements to initially create.
 283:/opt/gcc/4.9.2/include/c++/4.9.2/bits/stl_vector.h ****        *  @param  __value  An element to copy.
 284:/opt/gcc/4.9.2/include/c++/4.9.2/bits/stl_vector.h ****        *  @param  __a  An allocator.
 285:/opt/gcc/4.9.2/include/c++/4.9.2/bits/stl_vector.h ****        *
 286:/opt/gcc/4.9.2/include/c++/4.9.2/bits/stl_vector.h ****        *  This constructor fills the %vector with @a __n copies of @a __value.
 287:/opt/gcc/4.9.2/include/c++/4.9.2/bits/stl_vector.h ****        */
 288:/opt/gcc/4.9.2/include/c++/4.9.2/bits/stl_vector.h ****       vector(size_type __n, const value_type& __value,
 289:/opt/gcc/4.9.2/include/c++/4.9.2/bits/stl_vector.h **** 	     const allocator_type& __a = allocator_type())
 290:/opt/gcc/4.9.2/include/c++/4.9.2/bits/stl_vector.h ****       : _Base(__n, __a)
GAS LISTING /tmp/ccJkRw2J.s 			page 49


 291:/opt/gcc/4.9.2/include/c++/4.9.2/bits/stl_vector.h ****       { _M_fill_initialize(__n, __value); }
 292:/opt/gcc/4.9.2/include/c++/4.9.2/bits/stl_vector.h **** #else
 293:/opt/gcc/4.9.2/include/c++/4.9.2/bits/stl_vector.h ****       /**
 294:/opt/gcc/4.9.2/include/c++/4.9.2/bits/stl_vector.h ****        *  @brief  Creates a %vector with copies of an exemplar element.
 295:/opt/gcc/4.9.2/include/c++/4.9.2/bits/stl_vector.h ****        *  @param  __n  The number of elements to initially create.
 296:/opt/gcc/4.9.2/include/c++/4.9.2/bits/stl_vector.h ****        *  @param  __value  An element to copy.
 297:/opt/gcc/4.9.2/include/c++/4.9.2/bits/stl_vector.h ****        *  @param  __a  An allocator.
 298:/opt/gcc/4.9.2/include/c++/4.9.2/bits/stl_vector.h ****        *
 299:/opt/gcc/4.9.2/include/c++/4.9.2/bits/stl_vector.h ****        *  This constructor fills the %vector with @a __n copies of @a __value.
 300:/opt/gcc/4.9.2/include/c++/4.9.2/bits/stl_vector.h ****        */
 301:/opt/gcc/4.9.2/include/c++/4.9.2/bits/stl_vector.h ****       explicit
 302:/opt/gcc/4.9.2/include/c++/4.9.2/bits/stl_vector.h ****       vector(size_type __n, const value_type& __value = value_type(),
 303:/opt/gcc/4.9.2/include/c++/4.9.2/bits/stl_vector.h **** 	     const allocator_type& __a = allocator_type())
 304:/opt/gcc/4.9.2/include/c++/4.9.2/bits/stl_vector.h ****       : _Base(__n, __a)
 305:/opt/gcc/4.9.2/include/c++/4.9.2/bits/stl_vector.h ****       { _M_fill_initialize(__n, __value); }
 306:/opt/gcc/4.9.2/include/c++/4.9.2/bits/stl_vector.h **** #endif
 307:/opt/gcc/4.9.2/include/c++/4.9.2/bits/stl_vector.h **** 
 308:/opt/gcc/4.9.2/include/c++/4.9.2/bits/stl_vector.h ****       /**
 309:/opt/gcc/4.9.2/include/c++/4.9.2/bits/stl_vector.h ****        *  @brief  %Vector copy constructor.
 310:/opt/gcc/4.9.2/include/c++/4.9.2/bits/stl_vector.h ****        *  @param  __x  A %vector of identical element and allocator types.
 311:/opt/gcc/4.9.2/include/c++/4.9.2/bits/stl_vector.h ****        *
 312:/opt/gcc/4.9.2/include/c++/4.9.2/bits/stl_vector.h ****        *  The newly-created %vector uses a copy of the allocation
 313:/opt/gcc/4.9.2/include/c++/4.9.2/bits/stl_vector.h ****        *  object used by @a __x.  All the elements of @a __x are copied,
 314:/opt/gcc/4.9.2/include/c++/4.9.2/bits/stl_vector.h ****        *  but any extra memory in
 315:/opt/gcc/4.9.2/include/c++/4.9.2/bits/stl_vector.h ****        *  @a __x (for fast expansion) will not be copied.
 316:/opt/gcc/4.9.2/include/c++/4.9.2/bits/stl_vector.h ****        */
 317:/opt/gcc/4.9.2/include/c++/4.9.2/bits/stl_vector.h ****       vector(const vector& __x)
 318:/opt/gcc/4.9.2/include/c++/4.9.2/bits/stl_vector.h ****       : _Base(__x.size(),
 319:/opt/gcc/4.9.2/include/c++/4.9.2/bits/stl_vector.h ****         _Alloc_traits::_S_select_on_copy(__x._M_get_Tp_allocator()))
 320:/opt/gcc/4.9.2/include/c++/4.9.2/bits/stl_vector.h ****       { this->_M_impl._M_finish =
 321:/opt/gcc/4.9.2/include/c++/4.9.2/bits/stl_vector.h **** 	  std::__uninitialized_copy_a(__x.begin(), __x.end(),
 322:/opt/gcc/4.9.2/include/c++/4.9.2/bits/stl_vector.h **** 				      this->_M_impl._M_start,
 323:/opt/gcc/4.9.2/include/c++/4.9.2/bits/stl_vector.h **** 				      _M_get_Tp_allocator());
 324:/opt/gcc/4.9.2/include/c++/4.9.2/bits/stl_vector.h ****       }
 325:/opt/gcc/4.9.2/include/c++/4.9.2/bits/stl_vector.h **** 
 326:/opt/gcc/4.9.2/include/c++/4.9.2/bits/stl_vector.h **** #if __cplusplus >= 201103L
 327:/opt/gcc/4.9.2/include/c++/4.9.2/bits/stl_vector.h ****       /**
 328:/opt/gcc/4.9.2/include/c++/4.9.2/bits/stl_vector.h ****        *  @brief  %Vector move constructor.
 329:/opt/gcc/4.9.2/include/c++/4.9.2/bits/stl_vector.h ****        *  @param  __x  A %vector of identical element and allocator types.
 330:/opt/gcc/4.9.2/include/c++/4.9.2/bits/stl_vector.h ****        *
 331:/opt/gcc/4.9.2/include/c++/4.9.2/bits/stl_vector.h ****        *  The newly-created %vector contains the exact contents of @a __x.
 332:/opt/gcc/4.9.2/include/c++/4.9.2/bits/stl_vector.h ****        *  The contents of @a __x are a valid, but unspecified %vector.
 333:/opt/gcc/4.9.2/include/c++/4.9.2/bits/stl_vector.h ****        */
 334:/opt/gcc/4.9.2/include/c++/4.9.2/bits/stl_vector.h ****       vector(vector&& __x) noexcept
 335:/opt/gcc/4.9.2/include/c++/4.9.2/bits/stl_vector.h ****       : _Base(std::move(__x)) { }
 336:/opt/gcc/4.9.2/include/c++/4.9.2/bits/stl_vector.h **** 
 337:/opt/gcc/4.9.2/include/c++/4.9.2/bits/stl_vector.h ****       /// Copy constructor with alternative allocator
 338:/opt/gcc/4.9.2/include/c++/4.9.2/bits/stl_vector.h ****       vector(const vector& __x, const allocator_type& __a)
 339:/opt/gcc/4.9.2/include/c++/4.9.2/bits/stl_vector.h ****       : _Base(__x.size(), __a)
 340:/opt/gcc/4.9.2/include/c++/4.9.2/bits/stl_vector.h ****       { this->_M_impl._M_finish =
 341:/opt/gcc/4.9.2/include/c++/4.9.2/bits/stl_vector.h **** 	  std::__uninitialized_copy_a(__x.begin(), __x.end(),
 342:/opt/gcc/4.9.2/include/c++/4.9.2/bits/stl_vector.h **** 				      this->_M_impl._M_start,
 343:/opt/gcc/4.9.2/include/c++/4.9.2/bits/stl_vector.h **** 				      _M_get_Tp_allocator());
 344:/opt/gcc/4.9.2/include/c++/4.9.2/bits/stl_vector.h ****       }
 345:/opt/gcc/4.9.2/include/c++/4.9.2/bits/stl_vector.h **** 
 346:/opt/gcc/4.9.2/include/c++/4.9.2/bits/stl_vector.h ****       /// Move constructor with alternative allocator
 347:/opt/gcc/4.9.2/include/c++/4.9.2/bits/stl_vector.h ****       vector(vector&& __rv, const allocator_type& __m)
GAS LISTING /tmp/ccJkRw2J.s 			page 50


 348:/opt/gcc/4.9.2/include/c++/4.9.2/bits/stl_vector.h ****       noexcept(_Alloc_traits::_S_always_equal())
 349:/opt/gcc/4.9.2/include/c++/4.9.2/bits/stl_vector.h ****       : _Base(std::move(__rv), __m)
 350:/opt/gcc/4.9.2/include/c++/4.9.2/bits/stl_vector.h ****       {
 351:/opt/gcc/4.9.2/include/c++/4.9.2/bits/stl_vector.h **** 	if (__rv.get_allocator() != __m)
 352:/opt/gcc/4.9.2/include/c++/4.9.2/bits/stl_vector.h **** 	  {
 353:/opt/gcc/4.9.2/include/c++/4.9.2/bits/stl_vector.h **** 	    this->_M_impl._M_finish =
 354:/opt/gcc/4.9.2/include/c++/4.9.2/bits/stl_vector.h **** 	      std::__uninitialized_move_a(__rv.begin(), __rv.end(),
 355:/opt/gcc/4.9.2/include/c++/4.9.2/bits/stl_vector.h **** 					  this->_M_impl._M_start,
 356:/opt/gcc/4.9.2/include/c++/4.9.2/bits/stl_vector.h **** 					  _M_get_Tp_allocator());
 357:/opt/gcc/4.9.2/include/c++/4.9.2/bits/stl_vector.h **** 	    __rv.clear();
 358:/opt/gcc/4.9.2/include/c++/4.9.2/bits/stl_vector.h **** 	  }
 359:/opt/gcc/4.9.2/include/c++/4.9.2/bits/stl_vector.h ****       }
 360:/opt/gcc/4.9.2/include/c++/4.9.2/bits/stl_vector.h **** 
 361:/opt/gcc/4.9.2/include/c++/4.9.2/bits/stl_vector.h ****       /**
 362:/opt/gcc/4.9.2/include/c++/4.9.2/bits/stl_vector.h ****        *  @brief  Builds a %vector from an initializer list.
 363:/opt/gcc/4.9.2/include/c++/4.9.2/bits/stl_vector.h ****        *  @param  __l  An initializer_list.
 364:/opt/gcc/4.9.2/include/c++/4.9.2/bits/stl_vector.h ****        *  @param  __a  An allocator.
 365:/opt/gcc/4.9.2/include/c++/4.9.2/bits/stl_vector.h ****        *
 366:/opt/gcc/4.9.2/include/c++/4.9.2/bits/stl_vector.h ****        *  Create a %vector consisting of copies of the elements in the
 367:/opt/gcc/4.9.2/include/c++/4.9.2/bits/stl_vector.h ****        *  initializer_list @a __l.
 368:/opt/gcc/4.9.2/include/c++/4.9.2/bits/stl_vector.h ****        *
 369:/opt/gcc/4.9.2/include/c++/4.9.2/bits/stl_vector.h ****        *  This will call the element type's copy constructor N times
 370:/opt/gcc/4.9.2/include/c++/4.9.2/bits/stl_vector.h ****        *  (where N is @a __l.size()) and do no memory reallocation.
 371:/opt/gcc/4.9.2/include/c++/4.9.2/bits/stl_vector.h ****        */
 372:/opt/gcc/4.9.2/include/c++/4.9.2/bits/stl_vector.h ****       vector(initializer_list<value_type> __l,
 373:/opt/gcc/4.9.2/include/c++/4.9.2/bits/stl_vector.h **** 	     const allocator_type& __a = allocator_type())
 374:/opt/gcc/4.9.2/include/c++/4.9.2/bits/stl_vector.h ****       : _Base(__a)
 375:/opt/gcc/4.9.2/include/c++/4.9.2/bits/stl_vector.h ****       {
 376:/opt/gcc/4.9.2/include/c++/4.9.2/bits/stl_vector.h **** 	_M_range_initialize(__l.begin(), __l.end(),
 377:/opt/gcc/4.9.2/include/c++/4.9.2/bits/stl_vector.h **** 			    random_access_iterator_tag());
 378:/opt/gcc/4.9.2/include/c++/4.9.2/bits/stl_vector.h ****       }
 379:/opt/gcc/4.9.2/include/c++/4.9.2/bits/stl_vector.h **** #endif
 380:/opt/gcc/4.9.2/include/c++/4.9.2/bits/stl_vector.h **** 
 381:/opt/gcc/4.9.2/include/c++/4.9.2/bits/stl_vector.h ****       /**
 382:/opt/gcc/4.9.2/include/c++/4.9.2/bits/stl_vector.h ****        *  @brief  Builds a %vector from a range.
 383:/opt/gcc/4.9.2/include/c++/4.9.2/bits/stl_vector.h ****        *  @param  __first  An input iterator.
 384:/opt/gcc/4.9.2/include/c++/4.9.2/bits/stl_vector.h ****        *  @param  __last  An input iterator.
 385:/opt/gcc/4.9.2/include/c++/4.9.2/bits/stl_vector.h ****        *  @param  __a  An allocator.
 386:/opt/gcc/4.9.2/include/c++/4.9.2/bits/stl_vector.h ****        *
 387:/opt/gcc/4.9.2/include/c++/4.9.2/bits/stl_vector.h ****        *  Create a %vector consisting of copies of the elements from
 388:/opt/gcc/4.9.2/include/c++/4.9.2/bits/stl_vector.h ****        *  [first,last).
 389:/opt/gcc/4.9.2/include/c++/4.9.2/bits/stl_vector.h ****        *
 390:/opt/gcc/4.9.2/include/c++/4.9.2/bits/stl_vector.h ****        *  If the iterators are forward, bidirectional, or
 391:/opt/gcc/4.9.2/include/c++/4.9.2/bits/stl_vector.h ****        *  random-access, then this will call the elements' copy
 392:/opt/gcc/4.9.2/include/c++/4.9.2/bits/stl_vector.h ****        *  constructor N times (where N is distance(first,last)) and do
 393:/opt/gcc/4.9.2/include/c++/4.9.2/bits/stl_vector.h ****        *  no memory reallocation.  But if only input iterators are
 394:/opt/gcc/4.9.2/include/c++/4.9.2/bits/stl_vector.h ****        *  used, then this will do at most 2N calls to the copy
 395:/opt/gcc/4.9.2/include/c++/4.9.2/bits/stl_vector.h ****        *  constructor, and logN memory reallocations.
 396:/opt/gcc/4.9.2/include/c++/4.9.2/bits/stl_vector.h ****        */
 397:/opt/gcc/4.9.2/include/c++/4.9.2/bits/stl_vector.h **** #if __cplusplus >= 201103L
 398:/opt/gcc/4.9.2/include/c++/4.9.2/bits/stl_vector.h ****       template<typename _InputIterator,
 399:/opt/gcc/4.9.2/include/c++/4.9.2/bits/stl_vector.h **** 	       typename = std::_RequireInputIter<_InputIterator>>
 400:/opt/gcc/4.9.2/include/c++/4.9.2/bits/stl_vector.h ****         vector(_InputIterator __first, _InputIterator __last,
 401:/opt/gcc/4.9.2/include/c++/4.9.2/bits/stl_vector.h **** 	       const allocator_type& __a = allocator_type())
 402:/opt/gcc/4.9.2/include/c++/4.9.2/bits/stl_vector.h **** 	: _Base(__a)
 403:/opt/gcc/4.9.2/include/c++/4.9.2/bits/stl_vector.h ****         { _M_initialize_dispatch(__first, __last, __false_type()); }
 404:/opt/gcc/4.9.2/include/c++/4.9.2/bits/stl_vector.h **** #else
GAS LISTING /tmp/ccJkRw2J.s 			page 51


 405:/opt/gcc/4.9.2/include/c++/4.9.2/bits/stl_vector.h ****       template<typename _InputIterator>
 406:/opt/gcc/4.9.2/include/c++/4.9.2/bits/stl_vector.h ****         vector(_InputIterator __first, _InputIterator __last,
 407:/opt/gcc/4.9.2/include/c++/4.9.2/bits/stl_vector.h **** 	       const allocator_type& __a = allocator_type())
 408:/opt/gcc/4.9.2/include/c++/4.9.2/bits/stl_vector.h **** 	: _Base(__a)
 409:/opt/gcc/4.9.2/include/c++/4.9.2/bits/stl_vector.h ****         {
 410:/opt/gcc/4.9.2/include/c++/4.9.2/bits/stl_vector.h **** 	  // Check whether it's an integral type.  If so, it's not an iterator.
 411:/opt/gcc/4.9.2/include/c++/4.9.2/bits/stl_vector.h **** 	  typedef typename std::__is_integer<_InputIterator>::__type _Integral;
 412:/opt/gcc/4.9.2/include/c++/4.9.2/bits/stl_vector.h **** 	  _M_initialize_dispatch(__first, __last, _Integral());
 413:/opt/gcc/4.9.2/include/c++/4.9.2/bits/stl_vector.h **** 	}
 414:/opt/gcc/4.9.2/include/c++/4.9.2/bits/stl_vector.h **** #endif
 415:/opt/gcc/4.9.2/include/c++/4.9.2/bits/stl_vector.h **** 
 416:/opt/gcc/4.9.2/include/c++/4.9.2/bits/stl_vector.h ****       /**
 417:/opt/gcc/4.9.2/include/c++/4.9.2/bits/stl_vector.h ****        *  The dtor only erases the elements, and note that if the
 418:/opt/gcc/4.9.2/include/c++/4.9.2/bits/stl_vector.h ****        *  elements themselves are pointers, the pointed-to memory is
 419:/opt/gcc/4.9.2/include/c++/4.9.2/bits/stl_vector.h ****        *  not touched in any way.  Managing the pointer is the user's
 420:/opt/gcc/4.9.2/include/c++/4.9.2/bits/stl_vector.h ****        *  responsibility.
 421:/opt/gcc/4.9.2/include/c++/4.9.2/bits/stl_vector.h ****        */
 422:/opt/gcc/4.9.2/include/c++/4.9.2/bits/stl_vector.h ****       ~vector() _GLIBCXX_NOEXCEPT
 423:/opt/gcc/4.9.2/include/c++/4.9.2/bits/stl_vector.h ****       { std::_Destroy(this->_M_impl._M_start, this->_M_impl._M_finish,
 424:/opt/gcc/4.9.2/include/c++/4.9.2/bits/stl_vector.h **** 		      _M_get_Tp_allocator()); }
 425:/opt/gcc/4.9.2/include/c++/4.9.2/bits/stl_vector.h **** 
 426:/opt/gcc/4.9.2/include/c++/4.9.2/bits/stl_vector.h ****       /**
 427:/opt/gcc/4.9.2/include/c++/4.9.2/bits/stl_vector.h ****        *  @brief  %Vector assignment operator.
 428:/opt/gcc/4.9.2/include/c++/4.9.2/bits/stl_vector.h ****        *  @param  __x  A %vector of identical element and allocator types.
 429:/opt/gcc/4.9.2/include/c++/4.9.2/bits/stl_vector.h ****        *
 430:/opt/gcc/4.9.2/include/c++/4.9.2/bits/stl_vector.h ****        *  All the elements of @a __x are copied, but any extra memory in
 431:/opt/gcc/4.9.2/include/c++/4.9.2/bits/stl_vector.h ****        *  @a __x (for fast expansion) will not be copied.  Unlike the
 432:/opt/gcc/4.9.2/include/c++/4.9.2/bits/stl_vector.h ****        *  copy constructor, the allocator object is not copied.
 433:/opt/gcc/4.9.2/include/c++/4.9.2/bits/stl_vector.h ****        */
 434:/opt/gcc/4.9.2/include/c++/4.9.2/bits/stl_vector.h ****       vector&
 435:/opt/gcc/4.9.2/include/c++/4.9.2/bits/stl_vector.h ****       operator=(const vector& __x);
 436:/opt/gcc/4.9.2/include/c++/4.9.2/bits/stl_vector.h **** 
 437:/opt/gcc/4.9.2/include/c++/4.9.2/bits/stl_vector.h **** #if __cplusplus >= 201103L
 438:/opt/gcc/4.9.2/include/c++/4.9.2/bits/stl_vector.h ****       /**
 439:/opt/gcc/4.9.2/include/c++/4.9.2/bits/stl_vector.h ****        *  @brief  %Vector move assignment operator.
 440:/opt/gcc/4.9.2/include/c++/4.9.2/bits/stl_vector.h ****        *  @param  __x  A %vector of identical element and allocator types.
 441:/opt/gcc/4.9.2/include/c++/4.9.2/bits/stl_vector.h ****        *
 442:/opt/gcc/4.9.2/include/c++/4.9.2/bits/stl_vector.h ****        *  The contents of @a __x are moved into this %vector (without copying,
 443:/opt/gcc/4.9.2/include/c++/4.9.2/bits/stl_vector.h ****        *  if the allocators permit it).
 444:/opt/gcc/4.9.2/include/c++/4.9.2/bits/stl_vector.h ****        *  @a __x is a valid, but unspecified %vector.
 445:/opt/gcc/4.9.2/include/c++/4.9.2/bits/stl_vector.h ****        */
 446:/opt/gcc/4.9.2/include/c++/4.9.2/bits/stl_vector.h ****       vector&
 447:/opt/gcc/4.9.2/include/c++/4.9.2/bits/stl_vector.h ****       operator=(vector&& __x) noexcept(_Alloc_traits::_S_nothrow_move())
 448:/opt/gcc/4.9.2/include/c++/4.9.2/bits/stl_vector.h ****       {
 449:/opt/gcc/4.9.2/include/c++/4.9.2/bits/stl_vector.h ****         constexpr bool __move_storage =
 450:/opt/gcc/4.9.2/include/c++/4.9.2/bits/stl_vector.h ****           _Alloc_traits::_S_propagate_on_move_assign()
 451:/opt/gcc/4.9.2/include/c++/4.9.2/bits/stl_vector.h ****           || _Alloc_traits::_S_always_equal();
 452:/opt/gcc/4.9.2/include/c++/4.9.2/bits/stl_vector.h ****         _M_move_assign(std::move(__x),
 453:/opt/gcc/4.9.2/include/c++/4.9.2/bits/stl_vector.h ****                        integral_constant<bool, __move_storage>());
 454:/opt/gcc/4.9.2/include/c++/4.9.2/bits/stl_vector.h **** 	return *this;
 455:/opt/gcc/4.9.2/include/c++/4.9.2/bits/stl_vector.h ****       }
 456:/opt/gcc/4.9.2/include/c++/4.9.2/bits/stl_vector.h **** 
 457:/opt/gcc/4.9.2/include/c++/4.9.2/bits/stl_vector.h ****       /**
 458:/opt/gcc/4.9.2/include/c++/4.9.2/bits/stl_vector.h ****        *  @brief  %Vector list assignment operator.
 459:/opt/gcc/4.9.2/include/c++/4.9.2/bits/stl_vector.h ****        *  @param  __l  An initializer_list.
 460:/opt/gcc/4.9.2/include/c++/4.9.2/bits/stl_vector.h ****        *
 461:/opt/gcc/4.9.2/include/c++/4.9.2/bits/stl_vector.h ****        *  This function fills a %vector with copies of the elements in the
GAS LISTING /tmp/ccJkRw2J.s 			page 52


 462:/opt/gcc/4.9.2/include/c++/4.9.2/bits/stl_vector.h ****        *  initializer list @a __l.
 463:/opt/gcc/4.9.2/include/c++/4.9.2/bits/stl_vector.h ****        *
 464:/opt/gcc/4.9.2/include/c++/4.9.2/bits/stl_vector.h ****        *  Note that the assignment completely changes the %vector and
 465:/opt/gcc/4.9.2/include/c++/4.9.2/bits/stl_vector.h ****        *  that the resulting %vector's size is the same as the number
 466:/opt/gcc/4.9.2/include/c++/4.9.2/bits/stl_vector.h ****        *  of elements assigned.  Old data may be lost.
 467:/opt/gcc/4.9.2/include/c++/4.9.2/bits/stl_vector.h ****        */
 468:/opt/gcc/4.9.2/include/c++/4.9.2/bits/stl_vector.h ****       vector&
 469:/opt/gcc/4.9.2/include/c++/4.9.2/bits/stl_vector.h ****       operator=(initializer_list<value_type> __l)
 470:/opt/gcc/4.9.2/include/c++/4.9.2/bits/stl_vector.h ****       {
 471:/opt/gcc/4.9.2/include/c++/4.9.2/bits/stl_vector.h **** 	this->assign(__l.begin(), __l.end());
 472:/opt/gcc/4.9.2/include/c++/4.9.2/bits/stl_vector.h **** 	return *this;
 473:/opt/gcc/4.9.2/include/c++/4.9.2/bits/stl_vector.h ****       }
 474:/opt/gcc/4.9.2/include/c++/4.9.2/bits/stl_vector.h **** #endif
 475:/opt/gcc/4.9.2/include/c++/4.9.2/bits/stl_vector.h **** 
 476:/opt/gcc/4.9.2/include/c++/4.9.2/bits/stl_vector.h ****       /**
 477:/opt/gcc/4.9.2/include/c++/4.9.2/bits/stl_vector.h ****        *  @brief  Assigns a given value to a %vector.
 478:/opt/gcc/4.9.2/include/c++/4.9.2/bits/stl_vector.h ****        *  @param  __n  Number of elements to be assigned.
 479:/opt/gcc/4.9.2/include/c++/4.9.2/bits/stl_vector.h ****        *  @param  __val  Value to be assigned.
 480:/opt/gcc/4.9.2/include/c++/4.9.2/bits/stl_vector.h ****        *
 481:/opt/gcc/4.9.2/include/c++/4.9.2/bits/stl_vector.h ****        *  This function fills a %vector with @a __n copies of the given
 482:/opt/gcc/4.9.2/include/c++/4.9.2/bits/stl_vector.h ****        *  value.  Note that the assignment completely changes the
 483:/opt/gcc/4.9.2/include/c++/4.9.2/bits/stl_vector.h ****        *  %vector and that the resulting %vector's size is the same as
 484:/opt/gcc/4.9.2/include/c++/4.9.2/bits/stl_vector.h ****        *  the number of elements assigned.  Old data may be lost.
 485:/opt/gcc/4.9.2/include/c++/4.9.2/bits/stl_vector.h ****        */
 486:/opt/gcc/4.9.2/include/c++/4.9.2/bits/stl_vector.h ****       void
 487:/opt/gcc/4.9.2/include/c++/4.9.2/bits/stl_vector.h ****       assign(size_type __n, const value_type& __val)
 488:/opt/gcc/4.9.2/include/c++/4.9.2/bits/stl_vector.h ****       { _M_fill_assign(__n, __val); }
 489:/opt/gcc/4.9.2/include/c++/4.9.2/bits/stl_vector.h **** 
 490:/opt/gcc/4.9.2/include/c++/4.9.2/bits/stl_vector.h ****       /**
 491:/opt/gcc/4.9.2/include/c++/4.9.2/bits/stl_vector.h ****        *  @brief  Assigns a range to a %vector.
 492:/opt/gcc/4.9.2/include/c++/4.9.2/bits/stl_vector.h ****        *  @param  __first  An input iterator.
 493:/opt/gcc/4.9.2/include/c++/4.9.2/bits/stl_vector.h ****        *  @param  __last   An input iterator.
 494:/opt/gcc/4.9.2/include/c++/4.9.2/bits/stl_vector.h ****        *
 495:/opt/gcc/4.9.2/include/c++/4.9.2/bits/stl_vector.h ****        *  This function fills a %vector with copies of the elements in the
 496:/opt/gcc/4.9.2/include/c++/4.9.2/bits/stl_vector.h ****        *  range [__first,__last).
 497:/opt/gcc/4.9.2/include/c++/4.9.2/bits/stl_vector.h ****        *
 498:/opt/gcc/4.9.2/include/c++/4.9.2/bits/stl_vector.h ****        *  Note that the assignment completely changes the %vector and
 499:/opt/gcc/4.9.2/include/c++/4.9.2/bits/stl_vector.h ****        *  that the resulting %vector's size is the same as the number
 500:/opt/gcc/4.9.2/include/c++/4.9.2/bits/stl_vector.h ****        *  of elements assigned.  Old data may be lost.
 501:/opt/gcc/4.9.2/include/c++/4.9.2/bits/stl_vector.h ****        */
 502:/opt/gcc/4.9.2/include/c++/4.9.2/bits/stl_vector.h **** #if __cplusplus >= 201103L
 503:/opt/gcc/4.9.2/include/c++/4.9.2/bits/stl_vector.h ****       template<typename _InputIterator,
 504:/opt/gcc/4.9.2/include/c++/4.9.2/bits/stl_vector.h **** 	       typename = std::_RequireInputIter<_InputIterator>>
 505:/opt/gcc/4.9.2/include/c++/4.9.2/bits/stl_vector.h ****         void
 506:/opt/gcc/4.9.2/include/c++/4.9.2/bits/stl_vector.h ****         assign(_InputIterator __first, _InputIterator __last)
 507:/opt/gcc/4.9.2/include/c++/4.9.2/bits/stl_vector.h ****         { _M_assign_dispatch(__first, __last, __false_type()); }
 508:/opt/gcc/4.9.2/include/c++/4.9.2/bits/stl_vector.h **** #else
 509:/opt/gcc/4.9.2/include/c++/4.9.2/bits/stl_vector.h ****       template<typename _InputIterator>
 510:/opt/gcc/4.9.2/include/c++/4.9.2/bits/stl_vector.h ****         void
 511:/opt/gcc/4.9.2/include/c++/4.9.2/bits/stl_vector.h ****         assign(_InputIterator __first, _InputIterator __last)
 512:/opt/gcc/4.9.2/include/c++/4.9.2/bits/stl_vector.h ****         {
 513:/opt/gcc/4.9.2/include/c++/4.9.2/bits/stl_vector.h **** 	  // Check whether it's an integral type.  If so, it's not an iterator.
 514:/opt/gcc/4.9.2/include/c++/4.9.2/bits/stl_vector.h **** 	  typedef typename std::__is_integer<_InputIterator>::__type _Integral;
 515:/opt/gcc/4.9.2/include/c++/4.9.2/bits/stl_vector.h **** 	  _M_assign_dispatch(__first, __last, _Integral());
 516:/opt/gcc/4.9.2/include/c++/4.9.2/bits/stl_vector.h **** 	}
 517:/opt/gcc/4.9.2/include/c++/4.9.2/bits/stl_vector.h **** #endif
 518:/opt/gcc/4.9.2/include/c++/4.9.2/bits/stl_vector.h **** 
GAS LISTING /tmp/ccJkRw2J.s 			page 53


 519:/opt/gcc/4.9.2/include/c++/4.9.2/bits/stl_vector.h **** #if __cplusplus >= 201103L
 520:/opt/gcc/4.9.2/include/c++/4.9.2/bits/stl_vector.h ****       /**
 521:/opt/gcc/4.9.2/include/c++/4.9.2/bits/stl_vector.h ****        *  @brief  Assigns an initializer list to a %vector.
 522:/opt/gcc/4.9.2/include/c++/4.9.2/bits/stl_vector.h ****        *  @param  __l  An initializer_list.
 523:/opt/gcc/4.9.2/include/c++/4.9.2/bits/stl_vector.h ****        *
 524:/opt/gcc/4.9.2/include/c++/4.9.2/bits/stl_vector.h ****        *  This function fills a %vector with copies of the elements in the
 525:/opt/gcc/4.9.2/include/c++/4.9.2/bits/stl_vector.h ****        *  initializer list @a __l.
 526:/opt/gcc/4.9.2/include/c++/4.9.2/bits/stl_vector.h ****        *
 527:/opt/gcc/4.9.2/include/c++/4.9.2/bits/stl_vector.h ****        *  Note that the assignment completely changes the %vector and
 528:/opt/gcc/4.9.2/include/c++/4.9.2/bits/stl_vector.h ****        *  that the resulting %vector's size is the same as the number
 529:/opt/gcc/4.9.2/include/c++/4.9.2/bits/stl_vector.h ****        *  of elements assigned.  Old data may be lost.
 530:/opt/gcc/4.9.2/include/c++/4.9.2/bits/stl_vector.h ****        */
 531:/opt/gcc/4.9.2/include/c++/4.9.2/bits/stl_vector.h ****       void
 532:/opt/gcc/4.9.2/include/c++/4.9.2/bits/stl_vector.h ****       assign(initializer_list<value_type> __l)
 533:/opt/gcc/4.9.2/include/c++/4.9.2/bits/stl_vector.h ****       { this->assign(__l.begin(), __l.end()); }
 534:/opt/gcc/4.9.2/include/c++/4.9.2/bits/stl_vector.h **** #endif
 535:/opt/gcc/4.9.2/include/c++/4.9.2/bits/stl_vector.h **** 
 536:/opt/gcc/4.9.2/include/c++/4.9.2/bits/stl_vector.h ****       /// Get a copy of the memory allocation object.
 537:/opt/gcc/4.9.2/include/c++/4.9.2/bits/stl_vector.h ****       using _Base::get_allocator;
 538:/opt/gcc/4.9.2/include/c++/4.9.2/bits/stl_vector.h **** 
 539:/opt/gcc/4.9.2/include/c++/4.9.2/bits/stl_vector.h ****       // iterators
 540:/opt/gcc/4.9.2/include/c++/4.9.2/bits/stl_vector.h ****       /**
 541:/opt/gcc/4.9.2/include/c++/4.9.2/bits/stl_vector.h ****        *  Returns a read/write iterator that points to the first
 542:/opt/gcc/4.9.2/include/c++/4.9.2/bits/stl_vector.h ****        *  element in the %vector.  Iteration is done in ordinary
 543:/opt/gcc/4.9.2/include/c++/4.9.2/bits/stl_vector.h ****        *  element order.
 544:/opt/gcc/4.9.2/include/c++/4.9.2/bits/stl_vector.h ****        */
 545:/opt/gcc/4.9.2/include/c++/4.9.2/bits/stl_vector.h ****       iterator
 546:/opt/gcc/4.9.2/include/c++/4.9.2/bits/stl_vector.h ****       begin() _GLIBCXX_NOEXCEPT
 547:/opt/gcc/4.9.2/include/c++/4.9.2/bits/stl_vector.h ****       { return iterator(this->_M_impl._M_start); }
 548:/opt/gcc/4.9.2/include/c++/4.9.2/bits/stl_vector.h **** 
 549:/opt/gcc/4.9.2/include/c++/4.9.2/bits/stl_vector.h ****       /**
 550:/opt/gcc/4.9.2/include/c++/4.9.2/bits/stl_vector.h ****        *  Returns a read-only (constant) iterator that points to the
 551:/opt/gcc/4.9.2/include/c++/4.9.2/bits/stl_vector.h ****        *  first element in the %vector.  Iteration is done in ordinary
 552:/opt/gcc/4.9.2/include/c++/4.9.2/bits/stl_vector.h ****        *  element order.
 553:/opt/gcc/4.9.2/include/c++/4.9.2/bits/stl_vector.h ****        */
 554:/opt/gcc/4.9.2/include/c++/4.9.2/bits/stl_vector.h ****       const_iterator
 555:/opt/gcc/4.9.2/include/c++/4.9.2/bits/stl_vector.h ****       begin() const _GLIBCXX_NOEXCEPT
 556:/opt/gcc/4.9.2/include/c++/4.9.2/bits/stl_vector.h ****       { return const_iterator(this->_M_impl._M_start); }
 557:/opt/gcc/4.9.2/include/c++/4.9.2/bits/stl_vector.h **** 
 558:/opt/gcc/4.9.2/include/c++/4.9.2/bits/stl_vector.h ****       /**
 559:/opt/gcc/4.9.2/include/c++/4.9.2/bits/stl_vector.h ****        *  Returns a read/write iterator that points one past the last
 560:/opt/gcc/4.9.2/include/c++/4.9.2/bits/stl_vector.h ****        *  element in the %vector.  Iteration is done in ordinary
 561:/opt/gcc/4.9.2/include/c++/4.9.2/bits/stl_vector.h ****        *  element order.
 562:/opt/gcc/4.9.2/include/c++/4.9.2/bits/stl_vector.h ****        */
 563:/opt/gcc/4.9.2/include/c++/4.9.2/bits/stl_vector.h ****       iterator
 564:/opt/gcc/4.9.2/include/c++/4.9.2/bits/stl_vector.h ****       end() _GLIBCXX_NOEXCEPT
 565:/opt/gcc/4.9.2/include/c++/4.9.2/bits/stl_vector.h ****       { return iterator(this->_M_impl._M_finish); }
 566:/opt/gcc/4.9.2/include/c++/4.9.2/bits/stl_vector.h **** 
 567:/opt/gcc/4.9.2/include/c++/4.9.2/bits/stl_vector.h ****       /**
 568:/opt/gcc/4.9.2/include/c++/4.9.2/bits/stl_vector.h ****        *  Returns a read-only (constant) iterator that points one past
 569:/opt/gcc/4.9.2/include/c++/4.9.2/bits/stl_vector.h ****        *  the last element in the %vector.  Iteration is done in
 570:/opt/gcc/4.9.2/include/c++/4.9.2/bits/stl_vector.h ****        *  ordinary element order.
 571:/opt/gcc/4.9.2/include/c++/4.9.2/bits/stl_vector.h ****        */
 572:/opt/gcc/4.9.2/include/c++/4.9.2/bits/stl_vector.h ****       const_iterator
 573:/opt/gcc/4.9.2/include/c++/4.9.2/bits/stl_vector.h ****       end() const _GLIBCXX_NOEXCEPT
 574:/opt/gcc/4.9.2/include/c++/4.9.2/bits/stl_vector.h ****       { return const_iterator(this->_M_impl._M_finish); }
 575:/opt/gcc/4.9.2/include/c++/4.9.2/bits/stl_vector.h **** 
GAS LISTING /tmp/ccJkRw2J.s 			page 54


 576:/opt/gcc/4.9.2/include/c++/4.9.2/bits/stl_vector.h ****       /**
 577:/opt/gcc/4.9.2/include/c++/4.9.2/bits/stl_vector.h ****        *  Returns a read/write reverse iterator that points to the
 578:/opt/gcc/4.9.2/include/c++/4.9.2/bits/stl_vector.h ****        *  last element in the %vector.  Iteration is done in reverse
 579:/opt/gcc/4.9.2/include/c++/4.9.2/bits/stl_vector.h ****        *  element order.
 580:/opt/gcc/4.9.2/include/c++/4.9.2/bits/stl_vector.h ****        */
 581:/opt/gcc/4.9.2/include/c++/4.9.2/bits/stl_vector.h ****       reverse_iterator
 582:/opt/gcc/4.9.2/include/c++/4.9.2/bits/stl_vector.h ****       rbegin() _GLIBCXX_NOEXCEPT
 583:/opt/gcc/4.9.2/include/c++/4.9.2/bits/stl_vector.h ****       { return reverse_iterator(end()); }
 584:/opt/gcc/4.9.2/include/c++/4.9.2/bits/stl_vector.h **** 
 585:/opt/gcc/4.9.2/include/c++/4.9.2/bits/stl_vector.h ****       /**
 586:/opt/gcc/4.9.2/include/c++/4.9.2/bits/stl_vector.h ****        *  Returns a read-only (constant) reverse iterator that points
 587:/opt/gcc/4.9.2/include/c++/4.9.2/bits/stl_vector.h ****        *  to the last element in the %vector.  Iteration is done in
 588:/opt/gcc/4.9.2/include/c++/4.9.2/bits/stl_vector.h ****        *  reverse element order.
 589:/opt/gcc/4.9.2/include/c++/4.9.2/bits/stl_vector.h ****        */
 590:/opt/gcc/4.9.2/include/c++/4.9.2/bits/stl_vector.h ****       const_reverse_iterator
 591:/opt/gcc/4.9.2/include/c++/4.9.2/bits/stl_vector.h ****       rbegin() const _GLIBCXX_NOEXCEPT
 592:/opt/gcc/4.9.2/include/c++/4.9.2/bits/stl_vector.h ****       { return const_reverse_iterator(end()); }
 593:/opt/gcc/4.9.2/include/c++/4.9.2/bits/stl_vector.h **** 
 594:/opt/gcc/4.9.2/include/c++/4.9.2/bits/stl_vector.h ****       /**
 595:/opt/gcc/4.9.2/include/c++/4.9.2/bits/stl_vector.h ****        *  Returns a read/write reverse iterator that points to one
 596:/opt/gcc/4.9.2/include/c++/4.9.2/bits/stl_vector.h ****        *  before the first element in the %vector.  Iteration is done
 597:/opt/gcc/4.9.2/include/c++/4.9.2/bits/stl_vector.h ****        *  in reverse element order.
 598:/opt/gcc/4.9.2/include/c++/4.9.2/bits/stl_vector.h ****        */
 599:/opt/gcc/4.9.2/include/c++/4.9.2/bits/stl_vector.h ****       reverse_iterator
 600:/opt/gcc/4.9.2/include/c++/4.9.2/bits/stl_vector.h ****       rend() _GLIBCXX_NOEXCEPT
 601:/opt/gcc/4.9.2/include/c++/4.9.2/bits/stl_vector.h ****       { return reverse_iterator(begin()); }
 602:/opt/gcc/4.9.2/include/c++/4.9.2/bits/stl_vector.h **** 
 603:/opt/gcc/4.9.2/include/c++/4.9.2/bits/stl_vector.h ****       /**
 604:/opt/gcc/4.9.2/include/c++/4.9.2/bits/stl_vector.h ****        *  Returns a read-only (constant) reverse iterator that points
 605:/opt/gcc/4.9.2/include/c++/4.9.2/bits/stl_vector.h ****        *  to one before the first element in the %vector.  Iteration
 606:/opt/gcc/4.9.2/include/c++/4.9.2/bits/stl_vector.h ****        *  is done in reverse element order.
 607:/opt/gcc/4.9.2/include/c++/4.9.2/bits/stl_vector.h ****        */
 608:/opt/gcc/4.9.2/include/c++/4.9.2/bits/stl_vector.h ****       const_reverse_iterator
 609:/opt/gcc/4.9.2/include/c++/4.9.2/bits/stl_vector.h ****       rend() const _GLIBCXX_NOEXCEPT
 610:/opt/gcc/4.9.2/include/c++/4.9.2/bits/stl_vector.h ****       { return const_reverse_iterator(begin()); }
 611:/opt/gcc/4.9.2/include/c++/4.9.2/bits/stl_vector.h **** 
 612:/opt/gcc/4.9.2/include/c++/4.9.2/bits/stl_vector.h **** #if __cplusplus >= 201103L
 613:/opt/gcc/4.9.2/include/c++/4.9.2/bits/stl_vector.h ****       /**
 614:/opt/gcc/4.9.2/include/c++/4.9.2/bits/stl_vector.h ****        *  Returns a read-only (constant) iterator that points to the
 615:/opt/gcc/4.9.2/include/c++/4.9.2/bits/stl_vector.h ****        *  first element in the %vector.  Iteration is done in ordinary
 616:/opt/gcc/4.9.2/include/c++/4.9.2/bits/stl_vector.h ****        *  element order.
 617:/opt/gcc/4.9.2/include/c++/4.9.2/bits/stl_vector.h ****        */
 618:/opt/gcc/4.9.2/include/c++/4.9.2/bits/stl_vector.h ****       const_iterator
 619:/opt/gcc/4.9.2/include/c++/4.9.2/bits/stl_vector.h ****       cbegin() const noexcept
 620:/opt/gcc/4.9.2/include/c++/4.9.2/bits/stl_vector.h ****       { return const_iterator(this->_M_impl._M_start); }
 621:/opt/gcc/4.9.2/include/c++/4.9.2/bits/stl_vector.h **** 
 622:/opt/gcc/4.9.2/include/c++/4.9.2/bits/stl_vector.h ****       /**
 623:/opt/gcc/4.9.2/include/c++/4.9.2/bits/stl_vector.h ****        *  Returns a read-only (constant) iterator that points one past
 624:/opt/gcc/4.9.2/include/c++/4.9.2/bits/stl_vector.h ****        *  the last element in the %vector.  Iteration is done in
 625:/opt/gcc/4.9.2/include/c++/4.9.2/bits/stl_vector.h ****        *  ordinary element order.
 626:/opt/gcc/4.9.2/include/c++/4.9.2/bits/stl_vector.h ****        */
 627:/opt/gcc/4.9.2/include/c++/4.9.2/bits/stl_vector.h ****       const_iterator
 628:/opt/gcc/4.9.2/include/c++/4.9.2/bits/stl_vector.h ****       cend() const noexcept
 629:/opt/gcc/4.9.2/include/c++/4.9.2/bits/stl_vector.h ****       { return const_iterator(this->_M_impl._M_finish); }
 630:/opt/gcc/4.9.2/include/c++/4.9.2/bits/stl_vector.h **** 
 631:/opt/gcc/4.9.2/include/c++/4.9.2/bits/stl_vector.h ****       /**
 632:/opt/gcc/4.9.2/include/c++/4.9.2/bits/stl_vector.h ****        *  Returns a read-only (constant) reverse iterator that points
GAS LISTING /tmp/ccJkRw2J.s 			page 55


 633:/opt/gcc/4.9.2/include/c++/4.9.2/bits/stl_vector.h ****        *  to the last element in the %vector.  Iteration is done in
 634:/opt/gcc/4.9.2/include/c++/4.9.2/bits/stl_vector.h ****        *  reverse element order.
 635:/opt/gcc/4.9.2/include/c++/4.9.2/bits/stl_vector.h ****        */
 636:/opt/gcc/4.9.2/include/c++/4.9.2/bits/stl_vector.h ****       const_reverse_iterator
 637:/opt/gcc/4.9.2/include/c++/4.9.2/bits/stl_vector.h ****       crbegin() const noexcept
 638:/opt/gcc/4.9.2/include/c++/4.9.2/bits/stl_vector.h ****       { return const_reverse_iterator(end()); }
 639:/opt/gcc/4.9.2/include/c++/4.9.2/bits/stl_vector.h **** 
 640:/opt/gcc/4.9.2/include/c++/4.9.2/bits/stl_vector.h ****       /**
 641:/opt/gcc/4.9.2/include/c++/4.9.2/bits/stl_vector.h ****        *  Returns a read-only (constant) reverse iterator that points
 642:/opt/gcc/4.9.2/include/c++/4.9.2/bits/stl_vector.h ****        *  to one before the first element in the %vector.  Iteration
 643:/opt/gcc/4.9.2/include/c++/4.9.2/bits/stl_vector.h ****        *  is done in reverse element order.
 644:/opt/gcc/4.9.2/include/c++/4.9.2/bits/stl_vector.h ****        */
 645:/opt/gcc/4.9.2/include/c++/4.9.2/bits/stl_vector.h ****       const_reverse_iterator
 646:/opt/gcc/4.9.2/include/c++/4.9.2/bits/stl_vector.h ****       crend() const noexcept
 647:/opt/gcc/4.9.2/include/c++/4.9.2/bits/stl_vector.h ****       { return const_reverse_iterator(begin()); }
 648:/opt/gcc/4.9.2/include/c++/4.9.2/bits/stl_vector.h **** #endif
 649:/opt/gcc/4.9.2/include/c++/4.9.2/bits/stl_vector.h **** 
 650:/opt/gcc/4.9.2/include/c++/4.9.2/bits/stl_vector.h ****       // [23.2.4.2] capacity
 651:/opt/gcc/4.9.2/include/c++/4.9.2/bits/stl_vector.h ****       /**  Returns the number of elements in the %vector.  */
 652:/opt/gcc/4.9.2/include/c++/4.9.2/bits/stl_vector.h ****       size_type
 653:/opt/gcc/4.9.2/include/c++/4.9.2/bits/stl_vector.h ****       size() const _GLIBCXX_NOEXCEPT
 654:/opt/gcc/4.9.2/include/c++/4.9.2/bits/stl_vector.h ****       { return size_type(this->_M_impl._M_finish - this->_M_impl._M_start); }
 655:/opt/gcc/4.9.2/include/c++/4.9.2/bits/stl_vector.h **** 
 656:/opt/gcc/4.9.2/include/c++/4.9.2/bits/stl_vector.h ****       /**  Returns the size() of the largest possible %vector.  */
 657:/opt/gcc/4.9.2/include/c++/4.9.2/bits/stl_vector.h ****       size_type
 658:/opt/gcc/4.9.2/include/c++/4.9.2/bits/stl_vector.h ****       max_size() const _GLIBCXX_NOEXCEPT
 659:/opt/gcc/4.9.2/include/c++/4.9.2/bits/stl_vector.h ****       { return _Alloc_traits::max_size(_M_get_Tp_allocator()); }
 660:/opt/gcc/4.9.2/include/c++/4.9.2/bits/stl_vector.h **** 
 661:/opt/gcc/4.9.2/include/c++/4.9.2/bits/stl_vector.h **** #if __cplusplus >= 201103L
 662:/opt/gcc/4.9.2/include/c++/4.9.2/bits/stl_vector.h ****       /**
 663:/opt/gcc/4.9.2/include/c++/4.9.2/bits/stl_vector.h ****        *  @brief  Resizes the %vector to the specified number of elements.
 664:/opt/gcc/4.9.2/include/c++/4.9.2/bits/stl_vector.h ****        *  @param  __new_size  Number of elements the %vector should contain.
 665:/opt/gcc/4.9.2/include/c++/4.9.2/bits/stl_vector.h ****        *
 666:/opt/gcc/4.9.2/include/c++/4.9.2/bits/stl_vector.h ****        *  This function will %resize the %vector to the specified
 667:/opt/gcc/4.9.2/include/c++/4.9.2/bits/stl_vector.h ****        *  number of elements.  If the number is smaller than the
 668:/opt/gcc/4.9.2/include/c++/4.9.2/bits/stl_vector.h ****        *  %vector's current size the %vector is truncated, otherwise
 669:/opt/gcc/4.9.2/include/c++/4.9.2/bits/stl_vector.h ****        *  default constructed elements are appended.
 670:/opt/gcc/4.9.2/include/c++/4.9.2/bits/stl_vector.h ****        */
 671:/opt/gcc/4.9.2/include/c++/4.9.2/bits/stl_vector.h ****       void
 672:/opt/gcc/4.9.2/include/c++/4.9.2/bits/stl_vector.h ****       resize(size_type __new_size)
 673:/opt/gcc/4.9.2/include/c++/4.9.2/bits/stl_vector.h ****       {
 674:/opt/gcc/4.9.2/include/c++/4.9.2/bits/stl_vector.h **** 	if (__new_size > size())
 675:/opt/gcc/4.9.2/include/c++/4.9.2/bits/stl_vector.h **** 	  _M_default_append(__new_size - size());
 676:/opt/gcc/4.9.2/include/c++/4.9.2/bits/stl_vector.h **** 	else if (__new_size < size())
 677:/opt/gcc/4.9.2/include/c++/4.9.2/bits/stl_vector.h **** 	  _M_erase_at_end(this->_M_impl._M_start + __new_size);
 678:/opt/gcc/4.9.2/include/c++/4.9.2/bits/stl_vector.h ****       }
 679:/opt/gcc/4.9.2/include/c++/4.9.2/bits/stl_vector.h **** 
 680:/opt/gcc/4.9.2/include/c++/4.9.2/bits/stl_vector.h ****       /**
 681:/opt/gcc/4.9.2/include/c++/4.9.2/bits/stl_vector.h ****        *  @brief  Resizes the %vector to the specified number of elements.
 682:/opt/gcc/4.9.2/include/c++/4.9.2/bits/stl_vector.h ****        *  @param  __new_size  Number of elements the %vector should contain.
 683:/opt/gcc/4.9.2/include/c++/4.9.2/bits/stl_vector.h ****        *  @param  __x  Data with which new elements should be populated.
 684:/opt/gcc/4.9.2/include/c++/4.9.2/bits/stl_vector.h ****        *
 685:/opt/gcc/4.9.2/include/c++/4.9.2/bits/stl_vector.h ****        *  This function will %resize the %vector to the specified
 686:/opt/gcc/4.9.2/include/c++/4.9.2/bits/stl_vector.h ****        *  number of elements.  If the number is smaller than the
 687:/opt/gcc/4.9.2/include/c++/4.9.2/bits/stl_vector.h ****        *  %vector's current size the %vector is truncated, otherwise
 688:/opt/gcc/4.9.2/include/c++/4.9.2/bits/stl_vector.h ****        *  the %vector is extended and new elements are populated with
 689:/opt/gcc/4.9.2/include/c++/4.9.2/bits/stl_vector.h ****        *  given data.
GAS LISTING /tmp/ccJkRw2J.s 			page 56


 690:/opt/gcc/4.9.2/include/c++/4.9.2/bits/stl_vector.h ****        */
 691:/opt/gcc/4.9.2/include/c++/4.9.2/bits/stl_vector.h ****       void
 692:/opt/gcc/4.9.2/include/c++/4.9.2/bits/stl_vector.h ****       resize(size_type __new_size, const value_type& __x)
 693:/opt/gcc/4.9.2/include/c++/4.9.2/bits/stl_vector.h ****       {
 694:/opt/gcc/4.9.2/include/c++/4.9.2/bits/stl_vector.h **** 	if (__new_size > size())
 695:/opt/gcc/4.9.2/include/c++/4.9.2/bits/stl_vector.h **** 	  insert(end(), __new_size - size(), __x);
 696:/opt/gcc/4.9.2/include/c++/4.9.2/bits/stl_vector.h **** 	else if (__new_size < size())
 697:/opt/gcc/4.9.2/include/c++/4.9.2/bits/stl_vector.h **** 	  _M_erase_at_end(this->_M_impl._M_start + __new_size);
 698:/opt/gcc/4.9.2/include/c++/4.9.2/bits/stl_vector.h ****       }
 699:/opt/gcc/4.9.2/include/c++/4.9.2/bits/stl_vector.h **** #else
 700:/opt/gcc/4.9.2/include/c++/4.9.2/bits/stl_vector.h ****       /**
 701:/opt/gcc/4.9.2/include/c++/4.9.2/bits/stl_vector.h ****        *  @brief  Resizes the %vector to the specified number of elements.
 702:/opt/gcc/4.9.2/include/c++/4.9.2/bits/stl_vector.h ****        *  @param  __new_size  Number of elements the %vector should contain.
 703:/opt/gcc/4.9.2/include/c++/4.9.2/bits/stl_vector.h ****        *  @param  __x  Data with which new elements should be populated.
 704:/opt/gcc/4.9.2/include/c++/4.9.2/bits/stl_vector.h ****        *
 705:/opt/gcc/4.9.2/include/c++/4.9.2/bits/stl_vector.h ****        *  This function will %resize the %vector to the specified
 706:/opt/gcc/4.9.2/include/c++/4.9.2/bits/stl_vector.h ****        *  number of elements.  If the number is smaller than the
 707:/opt/gcc/4.9.2/include/c++/4.9.2/bits/stl_vector.h ****        *  %vector's current size the %vector is truncated, otherwise
 708:/opt/gcc/4.9.2/include/c++/4.9.2/bits/stl_vector.h ****        *  the %vector is extended and new elements are populated with
 709:/opt/gcc/4.9.2/include/c++/4.9.2/bits/stl_vector.h ****        *  given data.
 710:/opt/gcc/4.9.2/include/c++/4.9.2/bits/stl_vector.h ****        */
 711:/opt/gcc/4.9.2/include/c++/4.9.2/bits/stl_vector.h ****       void
 712:/opt/gcc/4.9.2/include/c++/4.9.2/bits/stl_vector.h ****       resize(size_type __new_size, value_type __x = value_type())
 713:/opt/gcc/4.9.2/include/c++/4.9.2/bits/stl_vector.h ****       {
 714:/opt/gcc/4.9.2/include/c++/4.9.2/bits/stl_vector.h **** 	if (__new_size > size())
 715:/opt/gcc/4.9.2/include/c++/4.9.2/bits/stl_vector.h **** 	  insert(end(), __new_size - size(), __x);
 716:/opt/gcc/4.9.2/include/c++/4.9.2/bits/stl_vector.h **** 	else if (__new_size < size())
 717:/opt/gcc/4.9.2/include/c++/4.9.2/bits/stl_vector.h **** 	  _M_erase_at_end(this->_M_impl._M_start + __new_size);
 718:/opt/gcc/4.9.2/include/c++/4.9.2/bits/stl_vector.h ****       }
 719:/opt/gcc/4.9.2/include/c++/4.9.2/bits/stl_vector.h **** #endif
 720:/opt/gcc/4.9.2/include/c++/4.9.2/bits/stl_vector.h **** 
 721:/opt/gcc/4.9.2/include/c++/4.9.2/bits/stl_vector.h **** #if __cplusplus >= 201103L
 722:/opt/gcc/4.9.2/include/c++/4.9.2/bits/stl_vector.h ****       /**  A non-binding request to reduce capacity() to size().  */
 723:/opt/gcc/4.9.2/include/c++/4.9.2/bits/stl_vector.h ****       void
 724:/opt/gcc/4.9.2/include/c++/4.9.2/bits/stl_vector.h ****       shrink_to_fit()
 725:/opt/gcc/4.9.2/include/c++/4.9.2/bits/stl_vector.h ****       { _M_shrink_to_fit(); }
 726:/opt/gcc/4.9.2/include/c++/4.9.2/bits/stl_vector.h **** #endif
 727:/opt/gcc/4.9.2/include/c++/4.9.2/bits/stl_vector.h **** 
 728:/opt/gcc/4.9.2/include/c++/4.9.2/bits/stl_vector.h ****       /**
 729:/opt/gcc/4.9.2/include/c++/4.9.2/bits/stl_vector.h ****        *  Returns the total number of elements that the %vector can
 730:/opt/gcc/4.9.2/include/c++/4.9.2/bits/stl_vector.h ****        *  hold before needing to allocate more memory.
 731:/opt/gcc/4.9.2/include/c++/4.9.2/bits/stl_vector.h ****        */
 732:/opt/gcc/4.9.2/include/c++/4.9.2/bits/stl_vector.h ****       size_type
 733:/opt/gcc/4.9.2/include/c++/4.9.2/bits/stl_vector.h ****       capacity() const _GLIBCXX_NOEXCEPT
 734:/opt/gcc/4.9.2/include/c++/4.9.2/bits/stl_vector.h ****       { return size_type(this->_M_impl._M_end_of_storage
 735:/opt/gcc/4.9.2/include/c++/4.9.2/bits/stl_vector.h **** 			 - this->_M_impl._M_start); }
 736:/opt/gcc/4.9.2/include/c++/4.9.2/bits/stl_vector.h **** 
 737:/opt/gcc/4.9.2/include/c++/4.9.2/bits/stl_vector.h ****       /**
 738:/opt/gcc/4.9.2/include/c++/4.9.2/bits/stl_vector.h ****        *  Returns true if the %vector is empty.  (Thus begin() would
 739:/opt/gcc/4.9.2/include/c++/4.9.2/bits/stl_vector.h ****        *  equal end().)
 740:/opt/gcc/4.9.2/include/c++/4.9.2/bits/stl_vector.h ****        */
 741:/opt/gcc/4.9.2/include/c++/4.9.2/bits/stl_vector.h ****       bool
 742:/opt/gcc/4.9.2/include/c++/4.9.2/bits/stl_vector.h ****       empty() const _GLIBCXX_NOEXCEPT
 743:/opt/gcc/4.9.2/include/c++/4.9.2/bits/stl_vector.h ****       { return begin() == end(); }
 744:/opt/gcc/4.9.2/include/c++/4.9.2/bits/stl_vector.h **** 
 745:/opt/gcc/4.9.2/include/c++/4.9.2/bits/stl_vector.h ****       /**
 746:/opt/gcc/4.9.2/include/c++/4.9.2/bits/stl_vector.h ****        *  @brief  Attempt to preallocate enough memory for specified number of
GAS LISTING /tmp/ccJkRw2J.s 			page 57


 747:/opt/gcc/4.9.2/include/c++/4.9.2/bits/stl_vector.h ****        *          elements.
 748:/opt/gcc/4.9.2/include/c++/4.9.2/bits/stl_vector.h ****        *  @param  __n  Number of elements required.
 749:/opt/gcc/4.9.2/include/c++/4.9.2/bits/stl_vector.h ****        *  @throw  std::length_error  If @a n exceeds @c max_size().
 750:/opt/gcc/4.9.2/include/c++/4.9.2/bits/stl_vector.h ****        *
 751:/opt/gcc/4.9.2/include/c++/4.9.2/bits/stl_vector.h ****        *  This function attempts to reserve enough memory for the
 752:/opt/gcc/4.9.2/include/c++/4.9.2/bits/stl_vector.h ****        *  %vector to hold the specified number of elements.  If the
