GAS LISTING /tmp/ccKUqHDa.s 			page 1


   1              		.file	"customstamp_heatmaps.cpp"
   2              		.text
   3              	.Ltext0:
   4              		.section	.text.unlikely,"ax",@progbits
   5              		.align 2
   6              	.LCOLDB0:
   7              		.text
   8              	.LHOTB0:
   9              		.align 2
  10              		.p2align 4,,15
  11              		.section	.text.unlikely
  12              	.Ltext_cold0:
  13              		.text
  14              		.type	_ZZ4mainENUlfE_4_FUNEf, @function
  15              	_ZZ4mainENUlfE_4_FUNEf:
  16              	.LFB5507:
  17              		.file 1 "examples/customstamp_heatmaps.cpp"
   0:examples/customstamp_heatmaps.cpp **** /* heatmap - High performance heatmap creation in C.
   1:examples/customstamp_heatmaps.cpp ****  *
   2:examples/customstamp_heatmaps.cpp ****  * The MIT License (MIT)
   3:examples/customstamp_heatmaps.cpp ****  *
   4:examples/customstamp_heatmaps.cpp ****  * Copyright (c) 2013 Lucas Beyer
   5:examples/customstamp_heatmaps.cpp ****  *
   6:examples/customstamp_heatmaps.cpp ****  * Permission is hereby granted, free of charge, to any person obtaining a copy of
   7:examples/customstamp_heatmaps.cpp ****  * this software and associated documentation files (the "Software"), to deal in
   8:examples/customstamp_heatmaps.cpp ****  * the Software without restriction, including without limitation the rights to
   9:examples/customstamp_heatmaps.cpp ****  * use, copy, modify, merge, publish, distribute, sublicense, and/or sell copies of
  10:examples/customstamp_heatmaps.cpp ****  * the Software, and to permit persons to whom the Software is furnished to do so,
  11:examples/customstamp_heatmaps.cpp ****  * subject to the following conditions:
  12:examples/customstamp_heatmaps.cpp ****  *
  13:examples/customstamp_heatmaps.cpp ****  * The above copyright notice and this permission notice shall be included in all
  14:examples/customstamp_heatmaps.cpp ****  * copies or substantial portions of the Software.
  15:examples/customstamp_heatmaps.cpp ****  *
  16:examples/customstamp_heatmaps.cpp ****  * THE SOFTWARE IS PROVIDED "AS IS", WITHOUT WARRANTY OF ANY KIND, EXPRESS OR
  17:examples/customstamp_heatmaps.cpp ****  * IMPLIED, INCLUDING BUT NOT LIMITED TO THE WARRANTIES OF MERCHANTABILITY, FITNESS
  18:examples/customstamp_heatmaps.cpp ****  * FOR A PARTICULAR PURPOSE AND NONINFRINGEMENT. IN NO EVENT SHALL THE AUTHORS OR
  19:examples/customstamp_heatmaps.cpp ****  * COPYRIGHT HOLDERS BE LIABLE FOR ANY CLAIM, DAMAGES OR OTHER LIABILITY, WHETHER
  20:examples/customstamp_heatmaps.cpp ****  * IN AN ACTION OF CONTRACT, TORT OR OTHERWISE, ARISING FROM, OUT OF OR IN
  21:examples/customstamp_heatmaps.cpp ****  * CONNECTION WITH THE SOFTWARE OR THE USE OR OTHER DEALINGS IN THE SOFTWARE.
  22:examples/customstamp_heatmaps.cpp ****  */
  23:examples/customstamp_heatmaps.cpp **** 
  24:examples/customstamp_heatmaps.cpp **** #include <algorithm>
  25:examples/customstamp_heatmaps.cpp **** #include <iostream>
  26:examples/customstamp_heatmaps.cpp **** #include <iomanip>
  27:examples/customstamp_heatmaps.cpp **** #include <random>
  28:examples/customstamp_heatmaps.cpp **** #include <vector>
  29:examples/customstamp_heatmaps.cpp **** #include <cmath>
  30:examples/customstamp_heatmaps.cpp **** #include <array>
  31:examples/customstamp_heatmaps.cpp **** 
  32:examples/customstamp_heatmaps.cpp **** #include "lodepng.h"
  33:examples/customstamp_heatmaps.cpp **** #include "heatmap.h"
  34:examples/customstamp_heatmaps.cpp **** #include "colorschemes/gray.h"
  35:examples/customstamp_heatmaps.cpp **** 
  36:examples/customstamp_heatmaps.cpp **** using namespace std;
  37:examples/customstamp_heatmaps.cpp **** 
  38:examples/customstamp_heatmaps.cpp **** int main(int argc, char* argv[])
  39:examples/customstamp_heatmaps.cpp **** {
GAS LISTING /tmp/ccKUqHDa.s 			page 2


  40:examples/customstamp_heatmaps.cpp ****     if(argc != 2) {
  41:examples/customstamp_heatmaps.cpp ****         cerr << "Invalid number of arguments!" << endl;
  42:examples/customstamp_heatmaps.cpp ****         cout << "Usage:" << endl;
  43:examples/customstamp_heatmaps.cpp ****         cout << "  " << argv[0] << " RADIUS" << endl;
  44:examples/customstamp_heatmaps.cpp ****         cout << endl;
  45:examples/customstamp_heatmaps.cpp ****         cout << "  Will generate some stamps of given RADIUS and render" << endl;
  46:examples/customstamp_heatmaps.cpp ****         cout << "  them next to eachother into `stamps.png`." << endl;
  47:examples/customstamp_heatmaps.cpp **** 
  48:examples/customstamp_heatmaps.cpp ****         return 1;
  49:examples/customstamp_heatmaps.cpp ****     }
  50:examples/customstamp_heatmaps.cpp **** 
  51:examples/customstamp_heatmaps.cpp ****     const size_t r = atoi(argv[1]), d = 2*r+1;
  52:examples/customstamp_heatmaps.cpp **** 
  53:examples/customstamp_heatmaps.cpp ****     vector<float> rhomboidal(d*d, 0.0f);
  54:examples/customstamp_heatmaps.cpp ****     for(long y = 0 ; y < (int)d ; ++y) {
  55:examples/customstamp_heatmaps.cpp ****         for(long x = 0 ; x < (int)d ; ++x) {
  56:examples/customstamp_heatmaps.cpp ****             rhomboidal[y*d+x] = 1.0f - min(1.0f, (float)(abs(x-(long)r)+abs(y-(long)r))/(r+1));
  57:examples/customstamp_heatmaps.cpp ****         }
  58:examples/customstamp_heatmaps.cpp ****     }
  59:examples/customstamp_heatmaps.cpp **** 
  60:examples/customstamp_heatmaps.cpp ****     heatmap_stamp_t* stamps[] = {
  61:examples/customstamp_heatmaps.cpp ****         heatmap_stamp_gen(r),
  62:examples/customstamp_heatmaps.cpp ****         heatmap_stamp_gen_nonlinear(r, [](float d){return d*d*d*d*d*d;}),
  18              		.loc 1 63 0
  19              		.cfi_startproc
  20              	.LVL0:
  21              	.LBB1820:
  22              	.LBB1821:
  23              		.loc 1 63 0
  24 0000 0F28C8   		movaps	%xmm0, %xmm1
  25 0003 F30F59C8 		mulss	%xmm0, %xmm1
  26 0007 F30F59C8 		mulss	%xmm0, %xmm1
  27 000b F30F59C8 		mulss	%xmm0, %xmm1
  28 000f F30F59C8 		mulss	%xmm0, %xmm1
  29 0013 F30F59C1 		mulss	%xmm1, %xmm0
  30              	.LVL1:
  31              	.LBE1821:
  32              	.LBE1820:
  33 0017 C3       		ret
  34              		.cfi_endproc
  35              	.LFE5507:
  36              		.size	_ZZ4mainENUlfE_4_FUNEf, .-_ZZ4mainENUlfE_4_FUNEf
  37              		.section	.text.unlikely
  38              	.LCOLDE0:
  39              		.text
  40              	.LHOTE0:
  41              		.section	.text.unlikely
  42              		.align 2
  43              	.LCOLDB1:
  44              		.text
  45              	.LHOTB1:
  46              		.align 2
  47 0018 0F1F8400 		.p2align 4,,15
  47      00000000 
  48              		.type	_ZZ4mainENUlfE1_4_FUNEf, @function
  49              	_ZZ4mainENUlfE1_4_FUNEf:
  50              	.LFB5513:
GAS LISTING /tmp/ccKUqHDa.s 			page 3


  63:examples/customstamp_heatmaps.cpp ****         heatmap_stamp_gen_nonlinear(r, [](float d){return sqrtf(d);}),
  64:examples/customstamp_heatmaps.cpp ****         heatmap_stamp_gen_nonlinear(r, [](float d){return sqrtf(sqrtf(sqrtf(d)));}),
  51              		.loc 1 65 0
  52              		.cfi_startproc
  53              	.LVL2:
  54 0020 4883EC08 		subq	$8, %rsp
  55              		.cfi_def_cfa_offset 16
  56              	.LBB1822:
  57              	.LBB1823:
  58              		.loc 1 65 0
  59 0024 F30F51D0 		sqrtss	%xmm0, %xmm2
  60 0028 0F2ED2   		ucomiss	%xmm2, %xmm2
  61 002b 7A17     		jp	.L11
  62              	.LVL3:
  63              	.L3:
  64 002d F30F51CA 		sqrtss	%xmm2, %xmm1
  65 0031 0F2EC9   		ucomiss	%xmm1, %xmm1
  66 0034 7A22     		jp	.L12
  67              	.L5:
  68 0036 F30F51C1 		sqrtss	%xmm1, %xmm0
  69 003a 0F2EC0   		ucomiss	%xmm0, %xmm0
  70 003d 7A0F     		jp	.L13
  71              	.L7:
  72              	.LBE1823:
  73              	.LBE1822:
  74 003f 4883C408 		addq	$8, %rsp
  75              		.cfi_remember_state
  76              		.cfi_def_cfa_offset 8
  77 0043 C3       		ret
  78              	.LVL4:
  79              	.L11:
  80              		.cfi_restore_state
  81              	.LBB1825:
  82              	.LBB1824:
  83 0044 E8000000 		call	sqrtf@PLT
  83      00
  84              	.LVL5:
  85 0049 0F28D0   		movaps	%xmm0, %xmm2
  86 004c EBDF     		jmp	.L3
  87              	.L13:
  88 004e 0F28C1   		movaps	%xmm1, %xmm0
  89 0051 E8000000 		call	sqrtf@PLT
  89      00
  90              	.LVL6:
  91 0056 EBE7     		jmp	.L7
  92              	.L12:
  93 0058 0F28C2   		movaps	%xmm2, %xmm0
  94 005b E8000000 		call	sqrtf@PLT
  94      00
  95              	.LVL7:
  96 0060 0F28C8   		movaps	%xmm0, %xmm1
  97 0063 EBD1     		jmp	.L5
  98              	.LBE1824:
  99              	.LBE1825:
 100              		.cfi_endproc
 101              	.LFE5513:
 102              		.size	_ZZ4mainENUlfE1_4_FUNEf, .-_ZZ4mainENUlfE1_4_FUNEf
GAS LISTING /tmp/ccKUqHDa.s 			page 4


 103              		.section	.text.unlikely
 104              	.LCOLDE1:
 105              		.text
 106              	.LHOTE1:
 107              		.section	.text.unlikely
 108              		.align 2
 109              	.LCOLDB2:
 110              		.text
 111              	.LHOTB2:
 112 0065 90       		.align 2
 113 0066 662E0F1F 		.p2align 4,,15
 113      84000000 
 113      0000
 114              		.type	_ZZ4mainENUlfE0_4_FUNEf, @function
 115              	_ZZ4mainENUlfE0_4_FUNEf:
 116              	.LFB5510:
  64:examples/customstamp_heatmaps.cpp ****         heatmap_stamp_gen_nonlinear(r, [](float d){return sqrtf(sqrtf(sqrtf(d)));}),
 117              		.loc 1 64 0
 118              		.cfi_startproc
 119              	.LVL8:
 120              	.LBB1826:
 121              	.LBB1827:
 122 0070 F30F51C8 		sqrtss	%xmm0, %xmm1
 123 0074 0F2EC9   		ucomiss	%xmm1, %xmm1
 124 0077 7A04     		jp	.L19
 125              	.LBE1827:
 126              	.LBE1826:
 127 0079 0F28C1   		movaps	%xmm1, %xmm0
 128              	.LVL9:
 129 007c C3       		ret
 130              	.LVL10:
 131              	.L19:
 132 007d 4883EC08 		subq	$8, %rsp
 133              		.cfi_def_cfa_offset 16
 134              	.LBB1829:
 135              	.LBB1828:
  64:examples/customstamp_heatmaps.cpp ****         heatmap_stamp_gen_nonlinear(r, [](float d){return sqrtf(sqrtf(sqrtf(d)));}),
 136              		.loc 1 64 0
 137 0081 E8000000 		call	sqrtf@PLT
 137      00
 138              	.LVL11:
 139              	.LBE1828:
 140              	.LBE1829:
 141 0086 4883C408 		addq	$8, %rsp
 142              		.cfi_def_cfa_offset 8
 143 008a C3       		ret
 144              		.cfi_endproc
 145              	.LFE5510:
 146              		.size	_ZZ4mainENUlfE0_4_FUNEf, .-_ZZ4mainENUlfE0_4_FUNEf
 147              		.section	.text.unlikely
 148              	.LCOLDE2:
 149              		.text
 150              	.LHOTE2:
 151              		.section	.text.unlikely
 152              		.align 2
 153              	.LCOLDB3:
 154              		.text
GAS LISTING /tmp/ccKUqHDa.s 			page 5


 155              	.LHOTB3:
 156 008b 90       		.align 2
 157 008c 0F1F4000 		.p2align 4,,15
 158              		.type	_ZNSs4_Rep10_M_disposeERKSaIcE.part.7, @function
 159              	_ZNSs4_Rep10_M_disposeERKSaIcE.part.7:
 160              	.LFB5946:
 161              		.file 2 "/opt/gcc/4.9.2/include/c++/4.9.2/bits/basic_string.h"
   0:/opt/gcc/4.9.2/include/c++/4.9.2/bits/basic_string.h **** // Components for manipulating sequences of characters -*- C++ -*-
   1:/opt/gcc/4.9.2/include/c++/4.9.2/bits/basic_string.h **** 
   2:/opt/gcc/4.9.2/include/c++/4.9.2/bits/basic_string.h **** // Copyright (C) 1997-2014 Free Software Foundation, Inc.
   3:/opt/gcc/4.9.2/include/c++/4.9.2/bits/basic_string.h **** //
   4:/opt/gcc/4.9.2/include/c++/4.9.2/bits/basic_string.h **** // This file is part of the GNU ISO C++ Library.  This library is free
   5:/opt/gcc/4.9.2/include/c++/4.9.2/bits/basic_string.h **** // software; you can redistribute it and/or modify it under the
   6:/opt/gcc/4.9.2/include/c++/4.9.2/bits/basic_string.h **** // terms of the GNU General Public License as published by the
   7:/opt/gcc/4.9.2/include/c++/4.9.2/bits/basic_string.h **** // Free Software Foundation; either version 3, or (at your option)
   8:/opt/gcc/4.9.2/include/c++/4.9.2/bits/basic_string.h **** // any later version.
   9:/opt/gcc/4.9.2/include/c++/4.9.2/bits/basic_string.h **** 
  10:/opt/gcc/4.9.2/include/c++/4.9.2/bits/basic_string.h **** // This library is distributed in the hope that it will be useful,
  11:/opt/gcc/4.9.2/include/c++/4.9.2/bits/basic_string.h **** // but WITHOUT ANY WARRANTY; without even the implied warranty of
  12:/opt/gcc/4.9.2/include/c++/4.9.2/bits/basic_string.h **** // MERCHANTABILITY or FITNESS FOR A PARTICULAR PURPOSE.  See the
  13:/opt/gcc/4.9.2/include/c++/4.9.2/bits/basic_string.h **** // GNU General Public License for more details.
  14:/opt/gcc/4.9.2/include/c++/4.9.2/bits/basic_string.h **** 
  15:/opt/gcc/4.9.2/include/c++/4.9.2/bits/basic_string.h **** // Under Section 7 of GPL version 3, you are granted additional
  16:/opt/gcc/4.9.2/include/c++/4.9.2/bits/basic_string.h **** // permissions described in the GCC Runtime Library Exception, version
  17:/opt/gcc/4.9.2/include/c++/4.9.2/bits/basic_string.h **** // 3.1, as published by the Free Software Foundation.
  18:/opt/gcc/4.9.2/include/c++/4.9.2/bits/basic_string.h **** 
  19:/opt/gcc/4.9.2/include/c++/4.9.2/bits/basic_string.h **** // You should have received a copy of the GNU General Public License and
  20:/opt/gcc/4.9.2/include/c++/4.9.2/bits/basic_string.h **** // a copy of the GCC Runtime Library Exception along with this program;
  21:/opt/gcc/4.9.2/include/c++/4.9.2/bits/basic_string.h **** // see the files COPYING3 and COPYING.RUNTIME respectively.  If not, see
  22:/opt/gcc/4.9.2/include/c++/4.9.2/bits/basic_string.h **** // <http://www.gnu.org/licenses/>.
  23:/opt/gcc/4.9.2/include/c++/4.9.2/bits/basic_string.h **** 
  24:/opt/gcc/4.9.2/include/c++/4.9.2/bits/basic_string.h **** /** @file bits/basic_string.h
  25:/opt/gcc/4.9.2/include/c++/4.9.2/bits/basic_string.h ****  *  This is an internal header file, included by other library headers.
  26:/opt/gcc/4.9.2/include/c++/4.9.2/bits/basic_string.h ****  *  Do not attempt to use it directly. @headername{string}
  27:/opt/gcc/4.9.2/include/c++/4.9.2/bits/basic_string.h ****  */
  28:/opt/gcc/4.9.2/include/c++/4.9.2/bits/basic_string.h **** 
  29:/opt/gcc/4.9.2/include/c++/4.9.2/bits/basic_string.h **** //
  30:/opt/gcc/4.9.2/include/c++/4.9.2/bits/basic_string.h **** // ISO C++ 14882: 21 Strings library
  31:/opt/gcc/4.9.2/include/c++/4.9.2/bits/basic_string.h **** //
  32:/opt/gcc/4.9.2/include/c++/4.9.2/bits/basic_string.h **** 
  33:/opt/gcc/4.9.2/include/c++/4.9.2/bits/basic_string.h **** #ifndef _BASIC_STRING_H
  34:/opt/gcc/4.9.2/include/c++/4.9.2/bits/basic_string.h **** #define _BASIC_STRING_H 1
  35:/opt/gcc/4.9.2/include/c++/4.9.2/bits/basic_string.h **** 
  36:/opt/gcc/4.9.2/include/c++/4.9.2/bits/basic_string.h **** #pragma GCC system_header
  37:/opt/gcc/4.9.2/include/c++/4.9.2/bits/basic_string.h **** 
  38:/opt/gcc/4.9.2/include/c++/4.9.2/bits/basic_string.h **** #include <ext/atomicity.h>
  39:/opt/gcc/4.9.2/include/c++/4.9.2/bits/basic_string.h **** #include <debug/debug.h>
  40:/opt/gcc/4.9.2/include/c++/4.9.2/bits/basic_string.h **** #if __cplusplus >= 201103L
  41:/opt/gcc/4.9.2/include/c++/4.9.2/bits/basic_string.h **** #include <initializer_list>
  42:/opt/gcc/4.9.2/include/c++/4.9.2/bits/basic_string.h **** #endif
  43:/opt/gcc/4.9.2/include/c++/4.9.2/bits/basic_string.h **** 
  44:/opt/gcc/4.9.2/include/c++/4.9.2/bits/basic_string.h **** namespace std _GLIBCXX_VISIBILITY(default)
  45:/opt/gcc/4.9.2/include/c++/4.9.2/bits/basic_string.h **** {
  46:/opt/gcc/4.9.2/include/c++/4.9.2/bits/basic_string.h **** _GLIBCXX_BEGIN_NAMESPACE_VERSION
  47:/opt/gcc/4.9.2/include/c++/4.9.2/bits/basic_string.h **** 
  48:/opt/gcc/4.9.2/include/c++/4.9.2/bits/basic_string.h ****   /**
  49:/opt/gcc/4.9.2/include/c++/4.9.2/bits/basic_string.h ****    *  @class basic_string basic_string.h <string>
GAS LISTING /tmp/ccKUqHDa.s 			page 6


  50:/opt/gcc/4.9.2/include/c++/4.9.2/bits/basic_string.h ****    *  @brief  Managing sequences of characters and character-like objects.
  51:/opt/gcc/4.9.2/include/c++/4.9.2/bits/basic_string.h ****    *
  52:/opt/gcc/4.9.2/include/c++/4.9.2/bits/basic_string.h ****    *  @ingroup strings
  53:/opt/gcc/4.9.2/include/c++/4.9.2/bits/basic_string.h ****    *  @ingroup sequences
  54:/opt/gcc/4.9.2/include/c++/4.9.2/bits/basic_string.h ****    *
  55:/opt/gcc/4.9.2/include/c++/4.9.2/bits/basic_string.h ****    *  @tparam _CharT  Type of character
  56:/opt/gcc/4.9.2/include/c++/4.9.2/bits/basic_string.h ****    *  @tparam _Traits  Traits for character type, defaults to
  57:/opt/gcc/4.9.2/include/c++/4.9.2/bits/basic_string.h ****    *                   char_traits<_CharT>.
  58:/opt/gcc/4.9.2/include/c++/4.9.2/bits/basic_string.h ****    *  @tparam _Alloc  Allocator type, defaults to allocator<_CharT>.
  59:/opt/gcc/4.9.2/include/c++/4.9.2/bits/basic_string.h ****    *
  60:/opt/gcc/4.9.2/include/c++/4.9.2/bits/basic_string.h ****    *  Meets the requirements of a <a href="tables.html#65">container</a>, a
  61:/opt/gcc/4.9.2/include/c++/4.9.2/bits/basic_string.h ****    *  <a href="tables.html#66">reversible container</a>, and a
  62:/opt/gcc/4.9.2/include/c++/4.9.2/bits/basic_string.h ****    *  <a href="tables.html#67">sequence</a>.  Of the
  63:/opt/gcc/4.9.2/include/c++/4.9.2/bits/basic_string.h ****    *  <a href="tables.html#68">optional sequence requirements</a>, only
  64:/opt/gcc/4.9.2/include/c++/4.9.2/bits/basic_string.h ****    *  @c push_back, @c at, and @c %array access are supported.
  65:/opt/gcc/4.9.2/include/c++/4.9.2/bits/basic_string.h ****    *
  66:/opt/gcc/4.9.2/include/c++/4.9.2/bits/basic_string.h ****    *  @doctodo
  67:/opt/gcc/4.9.2/include/c++/4.9.2/bits/basic_string.h ****    *
  68:/opt/gcc/4.9.2/include/c++/4.9.2/bits/basic_string.h ****    *
  69:/opt/gcc/4.9.2/include/c++/4.9.2/bits/basic_string.h ****    *  Documentation?  What's that?
  70:/opt/gcc/4.9.2/include/c++/4.9.2/bits/basic_string.h ****    *  Nathan Myers <ncm@cantrip.org>.
  71:/opt/gcc/4.9.2/include/c++/4.9.2/bits/basic_string.h ****    *
  72:/opt/gcc/4.9.2/include/c++/4.9.2/bits/basic_string.h ****    *  A string looks like this:
  73:/opt/gcc/4.9.2/include/c++/4.9.2/bits/basic_string.h ****    *
  74:/opt/gcc/4.9.2/include/c++/4.9.2/bits/basic_string.h ****    *  @code
  75:/opt/gcc/4.9.2/include/c++/4.9.2/bits/basic_string.h ****    *                                        [_Rep]
  76:/opt/gcc/4.9.2/include/c++/4.9.2/bits/basic_string.h ****    *                                        _M_length
  77:/opt/gcc/4.9.2/include/c++/4.9.2/bits/basic_string.h ****    *   [basic_string<char_type>]            _M_capacity
  78:/opt/gcc/4.9.2/include/c++/4.9.2/bits/basic_string.h ****    *   _M_dataplus                          _M_refcount
  79:/opt/gcc/4.9.2/include/c++/4.9.2/bits/basic_string.h ****    *   _M_p ---------------->               unnamed array of char_type
  80:/opt/gcc/4.9.2/include/c++/4.9.2/bits/basic_string.h ****    *  @endcode
  81:/opt/gcc/4.9.2/include/c++/4.9.2/bits/basic_string.h ****    *
  82:/opt/gcc/4.9.2/include/c++/4.9.2/bits/basic_string.h ****    *  Where the _M_p points to the first character in the string, and
  83:/opt/gcc/4.9.2/include/c++/4.9.2/bits/basic_string.h ****    *  you cast it to a pointer-to-_Rep and subtract 1 to get a
  84:/opt/gcc/4.9.2/include/c++/4.9.2/bits/basic_string.h ****    *  pointer to the header.
  85:/opt/gcc/4.9.2/include/c++/4.9.2/bits/basic_string.h ****    *
  86:/opt/gcc/4.9.2/include/c++/4.9.2/bits/basic_string.h ****    *  This approach has the enormous advantage that a string object
  87:/opt/gcc/4.9.2/include/c++/4.9.2/bits/basic_string.h ****    *  requires only one allocation.  All the ugliness is confined
  88:/opt/gcc/4.9.2/include/c++/4.9.2/bits/basic_string.h ****    *  within a single %pair of inline functions, which each compile to
  89:/opt/gcc/4.9.2/include/c++/4.9.2/bits/basic_string.h ****    *  a single @a add instruction: _Rep::_M_data(), and
  90:/opt/gcc/4.9.2/include/c++/4.9.2/bits/basic_string.h ****    *  string::_M_rep(); and the allocation function which gets a
  91:/opt/gcc/4.9.2/include/c++/4.9.2/bits/basic_string.h ****    *  block of raw bytes and with room enough and constructs a _Rep
  92:/opt/gcc/4.9.2/include/c++/4.9.2/bits/basic_string.h ****    *  object at the front.
  93:/opt/gcc/4.9.2/include/c++/4.9.2/bits/basic_string.h ****    *
  94:/opt/gcc/4.9.2/include/c++/4.9.2/bits/basic_string.h ****    *  The reason you want _M_data pointing to the character %array and
  95:/opt/gcc/4.9.2/include/c++/4.9.2/bits/basic_string.h ****    *  not the _Rep is so that the debugger can see the string
  96:/opt/gcc/4.9.2/include/c++/4.9.2/bits/basic_string.h ****    *  contents. (Probably we should add a non-inline member to get
  97:/opt/gcc/4.9.2/include/c++/4.9.2/bits/basic_string.h ****    *  the _Rep for the debugger to use, so users can check the actual
  98:/opt/gcc/4.9.2/include/c++/4.9.2/bits/basic_string.h ****    *  string length.)
  99:/opt/gcc/4.9.2/include/c++/4.9.2/bits/basic_string.h ****    *
 100:/opt/gcc/4.9.2/include/c++/4.9.2/bits/basic_string.h ****    *  Note that the _Rep object is a POD so that you can have a
 101:/opt/gcc/4.9.2/include/c++/4.9.2/bits/basic_string.h ****    *  static <em>empty string</em> _Rep object already @a constructed before
 102:/opt/gcc/4.9.2/include/c++/4.9.2/bits/basic_string.h ****    *  static constructors have run.  The reference-count encoding is
 103:/opt/gcc/4.9.2/include/c++/4.9.2/bits/basic_string.h ****    *  chosen so that a 0 indicates one reference, so you never try to
 104:/opt/gcc/4.9.2/include/c++/4.9.2/bits/basic_string.h ****    *  destroy the empty-string _Rep object.
 105:/opt/gcc/4.9.2/include/c++/4.9.2/bits/basic_string.h ****    *
 106:/opt/gcc/4.9.2/include/c++/4.9.2/bits/basic_string.h ****    *  All but the last paragraph is considered pretty conventional
GAS LISTING /tmp/ccKUqHDa.s 			page 7


 107:/opt/gcc/4.9.2/include/c++/4.9.2/bits/basic_string.h ****    *  for a C++ string implementation.
 108:/opt/gcc/4.9.2/include/c++/4.9.2/bits/basic_string.h ****   */
 109:/opt/gcc/4.9.2/include/c++/4.9.2/bits/basic_string.h ****   // 21.3  Template class basic_string
 110:/opt/gcc/4.9.2/include/c++/4.9.2/bits/basic_string.h ****   template<typename _CharT, typename _Traits, typename _Alloc>
 111:/opt/gcc/4.9.2/include/c++/4.9.2/bits/basic_string.h ****     class basic_string
 112:/opt/gcc/4.9.2/include/c++/4.9.2/bits/basic_string.h ****     {
 113:/opt/gcc/4.9.2/include/c++/4.9.2/bits/basic_string.h ****       typedef typename _Alloc::template rebind<_CharT>::other _CharT_alloc_type;
 114:/opt/gcc/4.9.2/include/c++/4.9.2/bits/basic_string.h **** 
 115:/opt/gcc/4.9.2/include/c++/4.9.2/bits/basic_string.h ****       // Types:
 116:/opt/gcc/4.9.2/include/c++/4.9.2/bits/basic_string.h ****     public:
 117:/opt/gcc/4.9.2/include/c++/4.9.2/bits/basic_string.h ****       typedef _Traits					    traits_type;
 118:/opt/gcc/4.9.2/include/c++/4.9.2/bits/basic_string.h ****       typedef typename _Traits::char_type		    value_type;
 119:/opt/gcc/4.9.2/include/c++/4.9.2/bits/basic_string.h ****       typedef _Alloc					    allocator_type;
 120:/opt/gcc/4.9.2/include/c++/4.9.2/bits/basic_string.h ****       typedef typename _CharT_alloc_type::size_type	    size_type;
 121:/opt/gcc/4.9.2/include/c++/4.9.2/bits/basic_string.h ****       typedef typename _CharT_alloc_type::difference_type   difference_type;
 122:/opt/gcc/4.9.2/include/c++/4.9.2/bits/basic_string.h ****       typedef typename _CharT_alloc_type::reference	    reference;
 123:/opt/gcc/4.9.2/include/c++/4.9.2/bits/basic_string.h ****       typedef typename _CharT_alloc_type::const_reference   const_reference;
 124:/opt/gcc/4.9.2/include/c++/4.9.2/bits/basic_string.h ****       typedef typename _CharT_alloc_type::pointer	    pointer;
 125:/opt/gcc/4.9.2/include/c++/4.9.2/bits/basic_string.h ****       typedef typename _CharT_alloc_type::const_pointer	    const_pointer;
 126:/opt/gcc/4.9.2/include/c++/4.9.2/bits/basic_string.h ****       typedef __gnu_cxx::__normal_iterator<pointer, basic_string>  iterator;
 127:/opt/gcc/4.9.2/include/c++/4.9.2/bits/basic_string.h ****       typedef __gnu_cxx::__normal_iterator<const_pointer, basic_string>
 128:/opt/gcc/4.9.2/include/c++/4.9.2/bits/basic_string.h ****                                                             const_iterator;
 129:/opt/gcc/4.9.2/include/c++/4.9.2/bits/basic_string.h ****       typedef std::reverse_iterator<const_iterator>	const_reverse_iterator;
 130:/opt/gcc/4.9.2/include/c++/4.9.2/bits/basic_string.h ****       typedef std::reverse_iterator<iterator>		    reverse_iterator;
 131:/opt/gcc/4.9.2/include/c++/4.9.2/bits/basic_string.h **** 
 132:/opt/gcc/4.9.2/include/c++/4.9.2/bits/basic_string.h ****     private:
 133:/opt/gcc/4.9.2/include/c++/4.9.2/bits/basic_string.h ****       // _Rep: string representation
 134:/opt/gcc/4.9.2/include/c++/4.9.2/bits/basic_string.h ****       //   Invariants:
 135:/opt/gcc/4.9.2/include/c++/4.9.2/bits/basic_string.h ****       //   1. String really contains _M_length + 1 characters: due to 21.3.4
 136:/opt/gcc/4.9.2/include/c++/4.9.2/bits/basic_string.h ****       //      must be kept null-terminated.
 137:/opt/gcc/4.9.2/include/c++/4.9.2/bits/basic_string.h ****       //   2. _M_capacity >= _M_length
 138:/opt/gcc/4.9.2/include/c++/4.9.2/bits/basic_string.h ****       //      Allocated memory is always (_M_capacity + 1) * sizeof(_CharT).
 139:/opt/gcc/4.9.2/include/c++/4.9.2/bits/basic_string.h ****       //   3. _M_refcount has three states:
 140:/opt/gcc/4.9.2/include/c++/4.9.2/bits/basic_string.h ****       //      -1: leaked, one reference, no ref-copies allowed, non-const.
 141:/opt/gcc/4.9.2/include/c++/4.9.2/bits/basic_string.h ****       //       0: one reference, non-const.
 142:/opt/gcc/4.9.2/include/c++/4.9.2/bits/basic_string.h ****       //     n>0: n + 1 references, operations require a lock, const.
 143:/opt/gcc/4.9.2/include/c++/4.9.2/bits/basic_string.h ****       //   4. All fields==0 is an empty string, given the extra storage
 144:/opt/gcc/4.9.2/include/c++/4.9.2/bits/basic_string.h ****       //      beyond-the-end for a null terminator; thus, the shared
 145:/opt/gcc/4.9.2/include/c++/4.9.2/bits/basic_string.h ****       //      empty string representation needs no constructor.
 146:/opt/gcc/4.9.2/include/c++/4.9.2/bits/basic_string.h **** 
 147:/opt/gcc/4.9.2/include/c++/4.9.2/bits/basic_string.h ****       struct _Rep_base
 148:/opt/gcc/4.9.2/include/c++/4.9.2/bits/basic_string.h ****       {
 149:/opt/gcc/4.9.2/include/c++/4.9.2/bits/basic_string.h **** 	size_type		_M_length;
 150:/opt/gcc/4.9.2/include/c++/4.9.2/bits/basic_string.h **** 	size_type		_M_capacity;
 151:/opt/gcc/4.9.2/include/c++/4.9.2/bits/basic_string.h **** 	_Atomic_word		_M_refcount;
 152:/opt/gcc/4.9.2/include/c++/4.9.2/bits/basic_string.h ****       };
 153:/opt/gcc/4.9.2/include/c++/4.9.2/bits/basic_string.h **** 
 154:/opt/gcc/4.9.2/include/c++/4.9.2/bits/basic_string.h ****       struct _Rep : _Rep_base
 155:/opt/gcc/4.9.2/include/c++/4.9.2/bits/basic_string.h ****       {
 156:/opt/gcc/4.9.2/include/c++/4.9.2/bits/basic_string.h **** 	// Types:
 157:/opt/gcc/4.9.2/include/c++/4.9.2/bits/basic_string.h **** 	typedef typename _Alloc::template rebind<char>::other _Raw_bytes_alloc;
 158:/opt/gcc/4.9.2/include/c++/4.9.2/bits/basic_string.h **** 
 159:/opt/gcc/4.9.2/include/c++/4.9.2/bits/basic_string.h **** 	// (Public) Data members:
 160:/opt/gcc/4.9.2/include/c++/4.9.2/bits/basic_string.h **** 
 161:/opt/gcc/4.9.2/include/c++/4.9.2/bits/basic_string.h **** 	// The maximum number of individual char_type elements of an
 162:/opt/gcc/4.9.2/include/c++/4.9.2/bits/basic_string.h **** 	// individual string is determined by _S_max_size. This is the
 163:/opt/gcc/4.9.2/include/c++/4.9.2/bits/basic_string.h **** 	// value that will be returned by max_size().  (Whereas npos
GAS LISTING /tmp/ccKUqHDa.s 			page 8


 164:/opt/gcc/4.9.2/include/c++/4.9.2/bits/basic_string.h **** 	// is the maximum number of bytes the allocator can allocate.)
 165:/opt/gcc/4.9.2/include/c++/4.9.2/bits/basic_string.h **** 	// If one was to divvy up the theoretical largest size string,
 166:/opt/gcc/4.9.2/include/c++/4.9.2/bits/basic_string.h **** 	// with a terminating character and m _CharT elements, it'd
 167:/opt/gcc/4.9.2/include/c++/4.9.2/bits/basic_string.h **** 	// look like this:
 168:/opt/gcc/4.9.2/include/c++/4.9.2/bits/basic_string.h **** 	// npos = sizeof(_Rep) + (m * sizeof(_CharT)) + sizeof(_CharT)
 169:/opt/gcc/4.9.2/include/c++/4.9.2/bits/basic_string.h **** 	// Solving for m:
 170:/opt/gcc/4.9.2/include/c++/4.9.2/bits/basic_string.h **** 	// m = ((npos - sizeof(_Rep))/sizeof(CharT)) - 1
 171:/opt/gcc/4.9.2/include/c++/4.9.2/bits/basic_string.h **** 	// In addition, this implementation quarters this amount.
 172:/opt/gcc/4.9.2/include/c++/4.9.2/bits/basic_string.h **** 	static const size_type	_S_max_size;
 173:/opt/gcc/4.9.2/include/c++/4.9.2/bits/basic_string.h **** 	static const _CharT	_S_terminal;
 174:/opt/gcc/4.9.2/include/c++/4.9.2/bits/basic_string.h **** 
 175:/opt/gcc/4.9.2/include/c++/4.9.2/bits/basic_string.h **** 	// The following storage is init'd to 0 by the linker, resulting
 176:/opt/gcc/4.9.2/include/c++/4.9.2/bits/basic_string.h ****         // (carefully) in an empty string with one reference.
 177:/opt/gcc/4.9.2/include/c++/4.9.2/bits/basic_string.h ****         static size_type _S_empty_rep_storage[];
 178:/opt/gcc/4.9.2/include/c++/4.9.2/bits/basic_string.h **** 
 179:/opt/gcc/4.9.2/include/c++/4.9.2/bits/basic_string.h ****         static _Rep&
 180:/opt/gcc/4.9.2/include/c++/4.9.2/bits/basic_string.h ****         _S_empty_rep() _GLIBCXX_NOEXCEPT
 181:/opt/gcc/4.9.2/include/c++/4.9.2/bits/basic_string.h ****         { 
 182:/opt/gcc/4.9.2/include/c++/4.9.2/bits/basic_string.h **** 	  // NB: Mild hack to avoid strict-aliasing warnings.  Note that
 183:/opt/gcc/4.9.2/include/c++/4.9.2/bits/basic_string.h **** 	  // _S_empty_rep_storage is never modified and the punning should
 184:/opt/gcc/4.9.2/include/c++/4.9.2/bits/basic_string.h **** 	  // be reasonably safe in this case.
 185:/opt/gcc/4.9.2/include/c++/4.9.2/bits/basic_string.h **** 	  void* __p = reinterpret_cast<void*>(&_S_empty_rep_storage);
 186:/opt/gcc/4.9.2/include/c++/4.9.2/bits/basic_string.h **** 	  return *reinterpret_cast<_Rep*>(__p);
 187:/opt/gcc/4.9.2/include/c++/4.9.2/bits/basic_string.h **** 	}
 188:/opt/gcc/4.9.2/include/c++/4.9.2/bits/basic_string.h **** 
 189:/opt/gcc/4.9.2/include/c++/4.9.2/bits/basic_string.h ****         bool
 190:/opt/gcc/4.9.2/include/c++/4.9.2/bits/basic_string.h **** 	_M_is_leaked() const _GLIBCXX_NOEXCEPT
 191:/opt/gcc/4.9.2/include/c++/4.9.2/bits/basic_string.h ****         { return this->_M_refcount < 0; }
 192:/opt/gcc/4.9.2/include/c++/4.9.2/bits/basic_string.h **** 
 193:/opt/gcc/4.9.2/include/c++/4.9.2/bits/basic_string.h ****         bool
 194:/opt/gcc/4.9.2/include/c++/4.9.2/bits/basic_string.h **** 	_M_is_shared() const _GLIBCXX_NOEXCEPT
 195:/opt/gcc/4.9.2/include/c++/4.9.2/bits/basic_string.h ****         { return this->_M_refcount > 0; }
 196:/opt/gcc/4.9.2/include/c++/4.9.2/bits/basic_string.h **** 
 197:/opt/gcc/4.9.2/include/c++/4.9.2/bits/basic_string.h ****         void
 198:/opt/gcc/4.9.2/include/c++/4.9.2/bits/basic_string.h **** 	_M_set_leaked() _GLIBCXX_NOEXCEPT
 199:/opt/gcc/4.9.2/include/c++/4.9.2/bits/basic_string.h ****         { this->_M_refcount = -1; }
 200:/opt/gcc/4.9.2/include/c++/4.9.2/bits/basic_string.h **** 
 201:/opt/gcc/4.9.2/include/c++/4.9.2/bits/basic_string.h ****         void
 202:/opt/gcc/4.9.2/include/c++/4.9.2/bits/basic_string.h **** 	_M_set_sharable() _GLIBCXX_NOEXCEPT
 203:/opt/gcc/4.9.2/include/c++/4.9.2/bits/basic_string.h ****         { this->_M_refcount = 0; }
 204:/opt/gcc/4.9.2/include/c++/4.9.2/bits/basic_string.h **** 
 205:/opt/gcc/4.9.2/include/c++/4.9.2/bits/basic_string.h **** 	void
 206:/opt/gcc/4.9.2/include/c++/4.9.2/bits/basic_string.h **** 	_M_set_length_and_sharable(size_type __n) _GLIBCXX_NOEXCEPT
 207:/opt/gcc/4.9.2/include/c++/4.9.2/bits/basic_string.h **** 	{
 208:/opt/gcc/4.9.2/include/c++/4.9.2/bits/basic_string.h **** #if _GLIBCXX_FULLY_DYNAMIC_STRING == 0
 209:/opt/gcc/4.9.2/include/c++/4.9.2/bits/basic_string.h **** 	  if (__builtin_expect(this != &_S_empty_rep(), false))
 210:/opt/gcc/4.9.2/include/c++/4.9.2/bits/basic_string.h **** #endif
 211:/opt/gcc/4.9.2/include/c++/4.9.2/bits/basic_string.h **** 	    {
 212:/opt/gcc/4.9.2/include/c++/4.9.2/bits/basic_string.h **** 	      this->_M_set_sharable();  // One reference.
 213:/opt/gcc/4.9.2/include/c++/4.9.2/bits/basic_string.h **** 	      this->_M_length = __n;
 214:/opt/gcc/4.9.2/include/c++/4.9.2/bits/basic_string.h **** 	      traits_type::assign(this->_M_refdata()[__n], _S_terminal);
 215:/opt/gcc/4.9.2/include/c++/4.9.2/bits/basic_string.h **** 	      // grrr. (per 21.3.4)
 216:/opt/gcc/4.9.2/include/c++/4.9.2/bits/basic_string.h **** 	      // You cannot leave those LWG people alone for a second.
 217:/opt/gcc/4.9.2/include/c++/4.9.2/bits/basic_string.h **** 	    }
 218:/opt/gcc/4.9.2/include/c++/4.9.2/bits/basic_string.h **** 	}
 219:/opt/gcc/4.9.2/include/c++/4.9.2/bits/basic_string.h **** 
 220:/opt/gcc/4.9.2/include/c++/4.9.2/bits/basic_string.h **** 	_CharT*
GAS LISTING /tmp/ccKUqHDa.s 			page 9


 221:/opt/gcc/4.9.2/include/c++/4.9.2/bits/basic_string.h **** 	_M_refdata() throw()
 222:/opt/gcc/4.9.2/include/c++/4.9.2/bits/basic_string.h **** 	{ return reinterpret_cast<_CharT*>(this + 1); }
 223:/opt/gcc/4.9.2/include/c++/4.9.2/bits/basic_string.h **** 
 224:/opt/gcc/4.9.2/include/c++/4.9.2/bits/basic_string.h **** 	_CharT*
 225:/opt/gcc/4.9.2/include/c++/4.9.2/bits/basic_string.h **** 	_M_grab(const _Alloc& __alloc1, const _Alloc& __alloc2)
 226:/opt/gcc/4.9.2/include/c++/4.9.2/bits/basic_string.h **** 	{
 227:/opt/gcc/4.9.2/include/c++/4.9.2/bits/basic_string.h **** 	  return (!_M_is_leaked() && __alloc1 == __alloc2)
 228:/opt/gcc/4.9.2/include/c++/4.9.2/bits/basic_string.h **** 	          ? _M_refcopy() : _M_clone(__alloc1);
 229:/opt/gcc/4.9.2/include/c++/4.9.2/bits/basic_string.h **** 	}
 230:/opt/gcc/4.9.2/include/c++/4.9.2/bits/basic_string.h **** 
 231:/opt/gcc/4.9.2/include/c++/4.9.2/bits/basic_string.h **** 	// Create & Destroy
 232:/opt/gcc/4.9.2/include/c++/4.9.2/bits/basic_string.h **** 	static _Rep*
 233:/opt/gcc/4.9.2/include/c++/4.9.2/bits/basic_string.h **** 	_S_create(size_type, size_type, const _Alloc&);
 234:/opt/gcc/4.9.2/include/c++/4.9.2/bits/basic_string.h **** 
 235:/opt/gcc/4.9.2/include/c++/4.9.2/bits/basic_string.h **** 	void
 236:/opt/gcc/4.9.2/include/c++/4.9.2/bits/basic_string.h **** 	_M_dispose(const _Alloc& __a) _GLIBCXX_NOEXCEPT
 162              		.loc 2 237 0
 163              		.cfi_startproc
 164              	.LVL12:
 165              	.LBB1830:
 166              	.LBB1831:
 167              		.file 3 "/opt/gcc/4.9.2/include/c++/4.9.2/ext/atomicity.h"
   0:/opt/gcc/4.9.2/include/c++/4.9.2/ext/atomicity.h **** // Support for atomic operations -*- C++ -*-
   1:/opt/gcc/4.9.2/include/c++/4.9.2/ext/atomicity.h **** 
   2:/opt/gcc/4.9.2/include/c++/4.9.2/ext/atomicity.h **** // Copyright (C) 2004-2014 Free Software Foundation, Inc.
   3:/opt/gcc/4.9.2/include/c++/4.9.2/ext/atomicity.h **** //
   4:/opt/gcc/4.9.2/include/c++/4.9.2/ext/atomicity.h **** // This file is part of the GNU ISO C++ Library.  This library is free
   5:/opt/gcc/4.9.2/include/c++/4.9.2/ext/atomicity.h **** // software; you can redistribute it and/or modify it under the
   6:/opt/gcc/4.9.2/include/c++/4.9.2/ext/atomicity.h **** // terms of the GNU General Public License as published by the
   7:/opt/gcc/4.9.2/include/c++/4.9.2/ext/atomicity.h **** // Free Software Foundation; either version 3, or (at your option)
   8:/opt/gcc/4.9.2/include/c++/4.9.2/ext/atomicity.h **** // any later version.
   9:/opt/gcc/4.9.2/include/c++/4.9.2/ext/atomicity.h **** 
  10:/opt/gcc/4.9.2/include/c++/4.9.2/ext/atomicity.h **** // This library is distributed in the hope that it will be useful,
  11:/opt/gcc/4.9.2/include/c++/4.9.2/ext/atomicity.h **** // but WITHOUT ANY WARRANTY; without even the implied warranty of
  12:/opt/gcc/4.9.2/include/c++/4.9.2/ext/atomicity.h **** // MERCHANTABILITY or FITNESS FOR A PARTICULAR PURPOSE.  See the
  13:/opt/gcc/4.9.2/include/c++/4.9.2/ext/atomicity.h **** // GNU General Public License for more details.
  14:/opt/gcc/4.9.2/include/c++/4.9.2/ext/atomicity.h **** 
  15:/opt/gcc/4.9.2/include/c++/4.9.2/ext/atomicity.h **** // Under Section 7 of GPL version 3, you are granted additional
  16:/opt/gcc/4.9.2/include/c++/4.9.2/ext/atomicity.h **** // permissions described in the GCC Runtime Library Exception, version
  17:/opt/gcc/4.9.2/include/c++/4.9.2/ext/atomicity.h **** // 3.1, as published by the Free Software Foundation.
  18:/opt/gcc/4.9.2/include/c++/4.9.2/ext/atomicity.h **** 
  19:/opt/gcc/4.9.2/include/c++/4.9.2/ext/atomicity.h **** // You should have received a copy of the GNU General Public License and
  20:/opt/gcc/4.9.2/include/c++/4.9.2/ext/atomicity.h **** // a copy of the GCC Runtime Library Exception along with this program;
  21:/opt/gcc/4.9.2/include/c++/4.9.2/ext/atomicity.h **** // see the files COPYING3 and COPYING.RUNTIME respectively.  If not, see
  22:/opt/gcc/4.9.2/include/c++/4.9.2/ext/atomicity.h **** // <http://www.gnu.org/licenses/>.
  23:/opt/gcc/4.9.2/include/c++/4.9.2/ext/atomicity.h **** 
  24:/opt/gcc/4.9.2/include/c++/4.9.2/ext/atomicity.h **** /** @file ext/atomicity.h
  25:/opt/gcc/4.9.2/include/c++/4.9.2/ext/atomicity.h ****  *  This file is a GNU extension to the Standard C++ Library.
  26:/opt/gcc/4.9.2/include/c++/4.9.2/ext/atomicity.h ****  */
  27:/opt/gcc/4.9.2/include/c++/4.9.2/ext/atomicity.h **** 
  28:/opt/gcc/4.9.2/include/c++/4.9.2/ext/atomicity.h **** #ifndef _GLIBCXX_ATOMICITY_H
  29:/opt/gcc/4.9.2/include/c++/4.9.2/ext/atomicity.h **** #define _GLIBCXX_ATOMICITY_H	1
  30:/opt/gcc/4.9.2/include/c++/4.9.2/ext/atomicity.h **** 
  31:/opt/gcc/4.9.2/include/c++/4.9.2/ext/atomicity.h **** #pragma GCC system_header
  32:/opt/gcc/4.9.2/include/c++/4.9.2/ext/atomicity.h **** 
  33:/opt/gcc/4.9.2/include/c++/4.9.2/ext/atomicity.h **** #include <bits/c++config.h>
  34:/opt/gcc/4.9.2/include/c++/4.9.2/ext/atomicity.h **** #include <bits/gthr.h>
GAS LISTING /tmp/ccKUqHDa.s 			page 10


  35:/opt/gcc/4.9.2/include/c++/4.9.2/ext/atomicity.h **** #include <bits/atomic_word.h>
  36:/opt/gcc/4.9.2/include/c++/4.9.2/ext/atomicity.h **** 
  37:/opt/gcc/4.9.2/include/c++/4.9.2/ext/atomicity.h **** namespace __gnu_cxx _GLIBCXX_VISIBILITY(default)
  38:/opt/gcc/4.9.2/include/c++/4.9.2/ext/atomicity.h **** {
  39:/opt/gcc/4.9.2/include/c++/4.9.2/ext/atomicity.h **** _GLIBCXX_BEGIN_NAMESPACE_VERSION
  40:/opt/gcc/4.9.2/include/c++/4.9.2/ext/atomicity.h **** 
  41:/opt/gcc/4.9.2/include/c++/4.9.2/ext/atomicity.h ****   // Functions for portable atomic access.
  42:/opt/gcc/4.9.2/include/c++/4.9.2/ext/atomicity.h ****   // To abstract locking primitives across all thread policies, use:
  43:/opt/gcc/4.9.2/include/c++/4.9.2/ext/atomicity.h ****   // __exchange_and_add_dispatch
  44:/opt/gcc/4.9.2/include/c++/4.9.2/ext/atomicity.h ****   // __atomic_add_dispatch
  45:/opt/gcc/4.9.2/include/c++/4.9.2/ext/atomicity.h **** #ifdef _GLIBCXX_ATOMIC_BUILTINS
  46:/opt/gcc/4.9.2/include/c++/4.9.2/ext/atomicity.h ****   static inline _Atomic_word 
  47:/opt/gcc/4.9.2/include/c++/4.9.2/ext/atomicity.h ****   __exchange_and_add(volatile _Atomic_word* __mem, int __val)
  48:/opt/gcc/4.9.2/include/c++/4.9.2/ext/atomicity.h ****   { return __atomic_fetch_add(__mem, __val, __ATOMIC_ACQ_REL); }
  49:/opt/gcc/4.9.2/include/c++/4.9.2/ext/atomicity.h **** 
  50:/opt/gcc/4.9.2/include/c++/4.9.2/ext/atomicity.h ****   static inline void
  51:/opt/gcc/4.9.2/include/c++/4.9.2/ext/atomicity.h ****   __atomic_add(volatile _Atomic_word* __mem, int __val)
  52:/opt/gcc/4.9.2/include/c++/4.9.2/ext/atomicity.h ****   { __atomic_fetch_add(__mem, __val, __ATOMIC_ACQ_REL); }
  53:/opt/gcc/4.9.2/include/c++/4.9.2/ext/atomicity.h **** #else
  54:/opt/gcc/4.9.2/include/c++/4.9.2/ext/atomicity.h ****   _Atomic_word
  55:/opt/gcc/4.9.2/include/c++/4.9.2/ext/atomicity.h ****   __attribute__ ((__unused__))
  56:/opt/gcc/4.9.2/include/c++/4.9.2/ext/atomicity.h ****   __exchange_and_add(volatile _Atomic_word*, int) throw ();
  57:/opt/gcc/4.9.2/include/c++/4.9.2/ext/atomicity.h **** 
  58:/opt/gcc/4.9.2/include/c++/4.9.2/ext/atomicity.h ****   void
  59:/opt/gcc/4.9.2/include/c++/4.9.2/ext/atomicity.h ****   __attribute__ ((__unused__))
  60:/opt/gcc/4.9.2/include/c++/4.9.2/ext/atomicity.h ****   __atomic_add(volatile _Atomic_word*, int) throw ();
  61:/opt/gcc/4.9.2/include/c++/4.9.2/ext/atomicity.h **** #endif
  62:/opt/gcc/4.9.2/include/c++/4.9.2/ext/atomicity.h **** 
  63:/opt/gcc/4.9.2/include/c++/4.9.2/ext/atomicity.h ****   static inline _Atomic_word
  64:/opt/gcc/4.9.2/include/c++/4.9.2/ext/atomicity.h ****   __exchange_and_add_single(_Atomic_word* __mem, int __val)
  65:/opt/gcc/4.9.2/include/c++/4.9.2/ext/atomicity.h ****   {
  66:/opt/gcc/4.9.2/include/c++/4.9.2/ext/atomicity.h ****     _Atomic_word __result = *__mem;
  67:/opt/gcc/4.9.2/include/c++/4.9.2/ext/atomicity.h ****     *__mem += __val;
  68:/opt/gcc/4.9.2/include/c++/4.9.2/ext/atomicity.h ****     return __result;
  69:/opt/gcc/4.9.2/include/c++/4.9.2/ext/atomicity.h ****   }
  70:/opt/gcc/4.9.2/include/c++/4.9.2/ext/atomicity.h **** 
  71:/opt/gcc/4.9.2/include/c++/4.9.2/ext/atomicity.h ****   static inline void
  72:/opt/gcc/4.9.2/include/c++/4.9.2/ext/atomicity.h ****   __atomic_add_single(_Atomic_word* __mem, int __val)
  73:/opt/gcc/4.9.2/include/c++/4.9.2/ext/atomicity.h ****   { *__mem += __val; }
  74:/opt/gcc/4.9.2/include/c++/4.9.2/ext/atomicity.h **** 
  75:/opt/gcc/4.9.2/include/c++/4.9.2/ext/atomicity.h ****   static inline _Atomic_word
  76:/opt/gcc/4.9.2/include/c++/4.9.2/ext/atomicity.h ****   __attribute__ ((__unused__))
  77:/opt/gcc/4.9.2/include/c++/4.9.2/ext/atomicity.h ****   __exchange_and_add_dispatch(_Atomic_word* __mem, int __val)
  78:/opt/gcc/4.9.2/include/c++/4.9.2/ext/atomicity.h ****   {
  79:/opt/gcc/4.9.2/include/c++/4.9.2/ext/atomicity.h **** #ifdef __GTHREADS
  80:/opt/gcc/4.9.2/include/c++/4.9.2/ext/atomicity.h ****     if (__gthread_active_p())
 168              		.loc 3 81 0
 169 0090 48833D00 		cmpq	$0, _ZL28__gthrw___pthread_key_createPjPFvPvE@GOTPCREL(%rip)
 169      00000000 
 170 0098 7416     		je	.L21
 171              	.LVL13:
 172              	.LBB1832:
 173              	.LBB1833:
  49:/opt/gcc/4.9.2/include/c++/4.9.2/ext/atomicity.h ****   { return __atomic_fetch_add(__mem, __val, __ATOMIC_ACQ_REL); }
 174              		.loc 3 49 0
 175 009a B8FFFFFF 		movl	$-1, %eax
 175      FF
GAS LISTING /tmp/ccKUqHDa.s 			page 11


 176 009f F00FC147 		lock; xaddl	%eax, 16(%rdi)
 176      10
 177              	.LBE1833:
 178              	.LBE1832:
 179              	.LBE1831:
 180              	.LBE1830:
 237:/opt/gcc/4.9.2/include/c++/4.9.2/bits/basic_string.h **** 	{
 238:/opt/gcc/4.9.2/include/c++/4.9.2/bits/basic_string.h **** #if _GLIBCXX_FULLY_DYNAMIC_STRING == 0
 239:/opt/gcc/4.9.2/include/c++/4.9.2/bits/basic_string.h **** 	  if (__builtin_expect(this != &_S_empty_rep(), false))
 240:/opt/gcc/4.9.2/include/c++/4.9.2/bits/basic_string.h **** #endif
 241:/opt/gcc/4.9.2/include/c++/4.9.2/bits/basic_string.h **** 	    {
 242:/opt/gcc/4.9.2/include/c++/4.9.2/bits/basic_string.h **** 	      // Be race-detector-friendly.  For more info see bits/c++config.
 243:/opt/gcc/4.9.2/include/c++/4.9.2/bits/basic_string.h **** 	      _GLIBCXX_SYNCHRONIZATION_HAPPENS_BEFORE(&this->_M_refcount);
 244:/opt/gcc/4.9.2/include/c++/4.9.2/bits/basic_string.h **** 	      if (__gnu_cxx::__exchange_and_add_dispatch(&this->_M_refcount,
 181              		.loc 2 245 0
 182 00a4 85C0     		testl	%eax, %eax
 183 00a6 7E15     		jle	.L24
 184              	.LVL14:
 185              	.L20:
 186 00a8 F3C3     		rep; ret
 187 00aa 660F1F44 		.p2align 4,,10
 187      0000
 188              		.p2align 3
 189              	.L21:
 190              	.LVL15:
 191              	.LBB1840:
 192              	.LBB1838:
 193              	.LBB1834:
 194              	.LBB1835:
  67:/opt/gcc/4.9.2/include/c++/4.9.2/ext/atomicity.h ****     _Atomic_word __result = *__mem;
 195              		.loc 3 67 0
 196 00b0 8B4710   		movl	16(%rdi), %eax
 197              	.LVL16:
  68:/opt/gcc/4.9.2/include/c++/4.9.2/ext/atomicity.h ****     *__mem += __val;
 198              		.loc 3 68 0
 199 00b3 8D50FF   		leal	-1(%rax), %edx
 200              	.LBE1835:
 201              	.LBE1834:
 202              	.LBE1838:
 203              	.LBE1840:
 204              		.loc 2 245 0
 205 00b6 85C0     		testl	%eax, %eax
 206              	.LBB1841:
 207              	.LBB1839:
 208              	.LBB1837:
 209              	.LBB1836:
  68:/opt/gcc/4.9.2/include/c++/4.9.2/ext/atomicity.h ****     *__mem += __val;
 210              		.loc 3 68 0
 211 00b8 895710   		movl	%edx, 16(%rdi)
 212              	.LBE1836:
 213              	.LBE1837:
 214              	.LBE1839:
 215              	.LBE1841:
 216              		.loc 2 245 0
 217 00bb 7FEB     		jg	.L20
 218              	.LVL17:
 219              	.L24:
GAS LISTING /tmp/ccKUqHDa.s 			page 12


 245:/opt/gcc/4.9.2/include/c++/4.9.2/bits/basic_string.h **** 							 -1) <= 0)
 246:/opt/gcc/4.9.2/include/c++/4.9.2/bits/basic_string.h **** 		{
 247:/opt/gcc/4.9.2/include/c++/4.9.2/bits/basic_string.h **** 		  _GLIBCXX_SYNCHRONIZATION_HAPPENS_AFTER(&this->_M_refcount);
 248:/opt/gcc/4.9.2/include/c++/4.9.2/bits/basic_string.h **** 		  _M_destroy(__a);
 220              		.loc 2 249 0
 221 00bd E9000000 		jmp	_ZNSs4_Rep10_M_destroyERKSaIcE@PLT
 221      00
 222              	.LVL18:
 223              		.cfi_endproc
 224              	.LFE5946:
 225              		.size	_ZNSs4_Rep10_M_disposeERKSaIcE.part.7, .-_ZNSs4_Rep10_M_disposeERKSaIcE.part.7
 226              		.section	.text.unlikely
 227              	.LCOLDE3:
 228              		.text
 229              	.LHOTE3:
 230              		.section	.text.unlikely._ZNSt6vectorIhSaIhEEC2EmRKS0_,"axG",@progbits,_ZNSt6vectorIhSaIhEEC5EmRKS0
 231              		.align 2
 232              	.LCOLDB4:
 233              		.section	.text._ZNSt6vectorIhSaIhEEC2EmRKS0_,"axG",@progbits,_ZNSt6vectorIhSaIhEEC5EmRKS0_,comdat
 234              	.LHOTB4:
 235              		.align 2
 236              		.p2align 4,,15
 237              		.weak	_ZNSt6vectorIhSaIhEEC2EmRKS0_
 238              		.type	_ZNSt6vectorIhSaIhEEC2EmRKS0_, @function
 239              	_ZNSt6vectorIhSaIhEEC2EmRKS0_:
 240              	.LFB5607:
 241              		.file 4 "/opt/gcc/4.9.2/include/c++/4.9.2/bits/stl_vector.h"
   0:/opt/gcc/4.9.2/include/c++/4.9.2/bits/stl_vector.h **** // Vector implementation -*- C++ -*-
   1:/opt/gcc/4.9.2/include/c++/4.9.2/bits/stl_vector.h **** 
   2:/opt/gcc/4.9.2/include/c++/4.9.2/bits/stl_vector.h **** // Copyright (C) 2001-2014 Free Software Foundation, Inc.
   3:/opt/gcc/4.9.2/include/c++/4.9.2/bits/stl_vector.h **** //
   4:/opt/gcc/4.9.2/include/c++/4.9.2/bits/stl_vector.h **** // This file is part of the GNU ISO C++ Library.  This library is free
   5:/opt/gcc/4.9.2/include/c++/4.9.2/bits/stl_vector.h **** // software; you can redistribute it and/or modify it under the
   6:/opt/gcc/4.9.2/include/c++/4.9.2/bits/stl_vector.h **** // terms of the GNU General Public License as published by the
   7:/opt/gcc/4.9.2/include/c++/4.9.2/bits/stl_vector.h **** // Free Software Foundation; either version 3, or (at your option)
   8:/opt/gcc/4.9.2/include/c++/4.9.2/bits/stl_vector.h **** // any later version.
   9:/opt/gcc/4.9.2/include/c++/4.9.2/bits/stl_vector.h **** 
  10:/opt/gcc/4.9.2/include/c++/4.9.2/bits/stl_vector.h **** // This library is distributed in the hope that it will be useful,
  11:/opt/gcc/4.9.2/include/c++/4.9.2/bits/stl_vector.h **** // but WITHOUT ANY WARRANTY; without even the implied warranty of
  12:/opt/gcc/4.9.2/include/c++/4.9.2/bits/stl_vector.h **** // MERCHANTABILITY or FITNESS FOR A PARTICULAR PURPOSE.  See the
  13:/opt/gcc/4.9.2/include/c++/4.9.2/bits/stl_vector.h **** // GNU General Public License for more details.
  14:/opt/gcc/4.9.2/include/c++/4.9.2/bits/stl_vector.h **** 
  15:/opt/gcc/4.9.2/include/c++/4.9.2/bits/stl_vector.h **** // Under Section 7 of GPL version 3, you are granted additional
  16:/opt/gcc/4.9.2/include/c++/4.9.2/bits/stl_vector.h **** // permissions described in the GCC Runtime Library Exception, version
  17:/opt/gcc/4.9.2/include/c++/4.9.2/bits/stl_vector.h **** // 3.1, as published by the Free Software Foundation.
  18:/opt/gcc/4.9.2/include/c++/4.9.2/bits/stl_vector.h **** 
  19:/opt/gcc/4.9.2/include/c++/4.9.2/bits/stl_vector.h **** // You should have received a copy of the GNU General Public License and
  20:/opt/gcc/4.9.2/include/c++/4.9.2/bits/stl_vector.h **** // a copy of the GCC Runtime Library Exception along with this program;
  21:/opt/gcc/4.9.2/include/c++/4.9.2/bits/stl_vector.h **** // see the files COPYING3 and COPYING.RUNTIME respectively.  If not, see
  22:/opt/gcc/4.9.2/include/c++/4.9.2/bits/stl_vector.h **** // <http://www.gnu.org/licenses/>.
  23:/opt/gcc/4.9.2/include/c++/4.9.2/bits/stl_vector.h **** 
  24:/opt/gcc/4.9.2/include/c++/4.9.2/bits/stl_vector.h **** /*
  25:/opt/gcc/4.9.2/include/c++/4.9.2/bits/stl_vector.h ****  *
  26:/opt/gcc/4.9.2/include/c++/4.9.2/bits/stl_vector.h ****  * Copyright (c) 1994
  27:/opt/gcc/4.9.2/include/c++/4.9.2/bits/stl_vector.h ****  * Hewlett-Packard Company
  28:/opt/gcc/4.9.2/include/c++/4.9.2/bits/stl_vector.h ****  *
  29:/opt/gcc/4.9.2/include/c++/4.9.2/bits/stl_vector.h ****  * Permission to use, copy, modify, distribute and sell this software
GAS LISTING /tmp/ccKUqHDa.s 			page 13


  30:/opt/gcc/4.9.2/include/c++/4.9.2/bits/stl_vector.h ****  * and its documentation for any purpose is hereby granted without fee,
  31:/opt/gcc/4.9.2/include/c++/4.9.2/bits/stl_vector.h ****  * provided that the above copyright notice appear in all copies and
  32:/opt/gcc/4.9.2/include/c++/4.9.2/bits/stl_vector.h ****  * that both that copyright notice and this permission notice appear
  33:/opt/gcc/4.9.2/include/c++/4.9.2/bits/stl_vector.h ****  * in supporting documentation.  Hewlett-Packard Company makes no
  34:/opt/gcc/4.9.2/include/c++/4.9.2/bits/stl_vector.h ****  * representations about the suitability of this software for any
  35:/opt/gcc/4.9.2/include/c++/4.9.2/bits/stl_vector.h ****  * purpose.  It is provided "as is" without express or implied warranty.
  36:/opt/gcc/4.9.2/include/c++/4.9.2/bits/stl_vector.h ****  *
  37:/opt/gcc/4.9.2/include/c++/4.9.2/bits/stl_vector.h ****  *
  38:/opt/gcc/4.9.2/include/c++/4.9.2/bits/stl_vector.h ****  * Copyright (c) 1996
  39:/opt/gcc/4.9.2/include/c++/4.9.2/bits/stl_vector.h ****  * Silicon Graphics Computer Systems, Inc.
  40:/opt/gcc/4.9.2/include/c++/4.9.2/bits/stl_vector.h ****  *
  41:/opt/gcc/4.9.2/include/c++/4.9.2/bits/stl_vector.h ****  * Permission to use, copy, modify, distribute and sell this software
  42:/opt/gcc/4.9.2/include/c++/4.9.2/bits/stl_vector.h ****  * and its documentation for any purpose is hereby granted without fee,
  43:/opt/gcc/4.9.2/include/c++/4.9.2/bits/stl_vector.h ****  * provided that the above copyright notice appear in all copies and
  44:/opt/gcc/4.9.2/include/c++/4.9.2/bits/stl_vector.h ****  * that both that copyright notice and this permission notice appear
  45:/opt/gcc/4.9.2/include/c++/4.9.2/bits/stl_vector.h ****  * in supporting documentation.  Silicon Graphics makes no
  46:/opt/gcc/4.9.2/include/c++/4.9.2/bits/stl_vector.h ****  * representations about the suitability of this  software for any
  47:/opt/gcc/4.9.2/include/c++/4.9.2/bits/stl_vector.h ****  * purpose.  It is provided "as is" without express or implied warranty.
  48:/opt/gcc/4.9.2/include/c++/4.9.2/bits/stl_vector.h ****  */
  49:/opt/gcc/4.9.2/include/c++/4.9.2/bits/stl_vector.h **** 
  50:/opt/gcc/4.9.2/include/c++/4.9.2/bits/stl_vector.h **** /** @file bits/stl_vector.h
  51:/opt/gcc/4.9.2/include/c++/4.9.2/bits/stl_vector.h ****  *  This is an internal header file, included by other library headers.
  52:/opt/gcc/4.9.2/include/c++/4.9.2/bits/stl_vector.h ****  *  Do not attempt to use it directly. @headername{vector}
  53:/opt/gcc/4.9.2/include/c++/4.9.2/bits/stl_vector.h ****  */
  54:/opt/gcc/4.9.2/include/c++/4.9.2/bits/stl_vector.h **** 
  55:/opt/gcc/4.9.2/include/c++/4.9.2/bits/stl_vector.h **** #ifndef _STL_VECTOR_H
  56:/opt/gcc/4.9.2/include/c++/4.9.2/bits/stl_vector.h **** #define _STL_VECTOR_H 1
  57:/opt/gcc/4.9.2/include/c++/4.9.2/bits/stl_vector.h **** 
  58:/opt/gcc/4.9.2/include/c++/4.9.2/bits/stl_vector.h **** #include <bits/stl_iterator_base_funcs.h>
  59:/opt/gcc/4.9.2/include/c++/4.9.2/bits/stl_vector.h **** #include <bits/functexcept.h>
  60:/opt/gcc/4.9.2/include/c++/4.9.2/bits/stl_vector.h **** #include <bits/concept_check.h>
  61:/opt/gcc/4.9.2/include/c++/4.9.2/bits/stl_vector.h **** #if __cplusplus >= 201103L
  62:/opt/gcc/4.9.2/include/c++/4.9.2/bits/stl_vector.h **** #include <initializer_list>
  63:/opt/gcc/4.9.2/include/c++/4.9.2/bits/stl_vector.h **** #endif
  64:/opt/gcc/4.9.2/include/c++/4.9.2/bits/stl_vector.h **** 
  65:/opt/gcc/4.9.2/include/c++/4.9.2/bits/stl_vector.h **** namespace std _GLIBCXX_VISIBILITY(default)
  66:/opt/gcc/4.9.2/include/c++/4.9.2/bits/stl_vector.h **** {
  67:/opt/gcc/4.9.2/include/c++/4.9.2/bits/stl_vector.h **** _GLIBCXX_BEGIN_NAMESPACE_CONTAINER
  68:/opt/gcc/4.9.2/include/c++/4.9.2/bits/stl_vector.h **** 
  69:/opt/gcc/4.9.2/include/c++/4.9.2/bits/stl_vector.h ****   /// See bits/stl_deque.h's _Deque_base for an explanation.
  70:/opt/gcc/4.9.2/include/c++/4.9.2/bits/stl_vector.h ****   template<typename _Tp, typename _Alloc>
  71:/opt/gcc/4.9.2/include/c++/4.9.2/bits/stl_vector.h ****     struct _Vector_base
  72:/opt/gcc/4.9.2/include/c++/4.9.2/bits/stl_vector.h ****     {
  73:/opt/gcc/4.9.2/include/c++/4.9.2/bits/stl_vector.h ****       typedef typename __gnu_cxx::__alloc_traits<_Alloc>::template
  74:/opt/gcc/4.9.2/include/c++/4.9.2/bits/stl_vector.h ****         rebind<_Tp>::other _Tp_alloc_type;
  75:/opt/gcc/4.9.2/include/c++/4.9.2/bits/stl_vector.h ****       typedef typename __gnu_cxx::__alloc_traits<_Tp_alloc_type>::pointer
  76:/opt/gcc/4.9.2/include/c++/4.9.2/bits/stl_vector.h ****        	pointer;
  77:/opt/gcc/4.9.2/include/c++/4.9.2/bits/stl_vector.h **** 
  78:/opt/gcc/4.9.2/include/c++/4.9.2/bits/stl_vector.h ****       struct _Vector_impl 
  79:/opt/gcc/4.9.2/include/c++/4.9.2/bits/stl_vector.h ****       : public _Tp_alloc_type
  80:/opt/gcc/4.9.2/include/c++/4.9.2/bits/stl_vector.h ****       {
  81:/opt/gcc/4.9.2/include/c++/4.9.2/bits/stl_vector.h **** 	pointer _M_start;
  82:/opt/gcc/4.9.2/include/c++/4.9.2/bits/stl_vector.h **** 	pointer _M_finish;
  83:/opt/gcc/4.9.2/include/c++/4.9.2/bits/stl_vector.h **** 	pointer _M_end_of_storage;
  84:/opt/gcc/4.9.2/include/c++/4.9.2/bits/stl_vector.h **** 
  85:/opt/gcc/4.9.2/include/c++/4.9.2/bits/stl_vector.h **** 	_Vector_impl()
  86:/opt/gcc/4.9.2/include/c++/4.9.2/bits/stl_vector.h **** 	: _Tp_alloc_type(), _M_start(0), _M_finish(0), _M_end_of_storage(0)
GAS LISTING /tmp/ccKUqHDa.s 			page 14


  87:/opt/gcc/4.9.2/include/c++/4.9.2/bits/stl_vector.h **** 	{ }
  88:/opt/gcc/4.9.2/include/c++/4.9.2/bits/stl_vector.h **** 
  89:/opt/gcc/4.9.2/include/c++/4.9.2/bits/stl_vector.h **** 	_Vector_impl(_Tp_alloc_type const& __a) _GLIBCXX_NOEXCEPT
  90:/opt/gcc/4.9.2/include/c++/4.9.2/bits/stl_vector.h **** 	: _Tp_alloc_type(__a), _M_start(0), _M_finish(0), _M_end_of_storage(0)
  91:/opt/gcc/4.9.2/include/c++/4.9.2/bits/stl_vector.h **** 	{ }
  92:/opt/gcc/4.9.2/include/c++/4.9.2/bits/stl_vector.h **** 
  93:/opt/gcc/4.9.2/include/c++/4.9.2/bits/stl_vector.h **** #if __cplusplus >= 201103L
  94:/opt/gcc/4.9.2/include/c++/4.9.2/bits/stl_vector.h **** 	_Vector_impl(_Tp_alloc_type&& __a) noexcept
  95:/opt/gcc/4.9.2/include/c++/4.9.2/bits/stl_vector.h **** 	: _Tp_alloc_type(std::move(__a)),
  96:/opt/gcc/4.9.2/include/c++/4.9.2/bits/stl_vector.h **** 	  _M_start(0), _M_finish(0), _M_end_of_storage(0)
  97:/opt/gcc/4.9.2/include/c++/4.9.2/bits/stl_vector.h **** 	{ }
  98:/opt/gcc/4.9.2/include/c++/4.9.2/bits/stl_vector.h **** #endif
  99:/opt/gcc/4.9.2/include/c++/4.9.2/bits/stl_vector.h **** 
 100:/opt/gcc/4.9.2/include/c++/4.9.2/bits/stl_vector.h **** 	void _M_swap_data(_Vector_impl& __x) _GLIBCXX_NOEXCEPT
 101:/opt/gcc/4.9.2/include/c++/4.9.2/bits/stl_vector.h **** 	{
 102:/opt/gcc/4.9.2/include/c++/4.9.2/bits/stl_vector.h **** 	  std::swap(_M_start, __x._M_start);
 103:/opt/gcc/4.9.2/include/c++/4.9.2/bits/stl_vector.h **** 	  std::swap(_M_finish, __x._M_finish);
 104:/opt/gcc/4.9.2/include/c++/4.9.2/bits/stl_vector.h **** 	  std::swap(_M_end_of_storage, __x._M_end_of_storage);
 105:/opt/gcc/4.9.2/include/c++/4.9.2/bits/stl_vector.h **** 	}
 106:/opt/gcc/4.9.2/include/c++/4.9.2/bits/stl_vector.h ****       };
 107:/opt/gcc/4.9.2/include/c++/4.9.2/bits/stl_vector.h ****       
 108:/opt/gcc/4.9.2/include/c++/4.9.2/bits/stl_vector.h ****     public:
 109:/opt/gcc/4.9.2/include/c++/4.9.2/bits/stl_vector.h ****       typedef _Alloc allocator_type;
 110:/opt/gcc/4.9.2/include/c++/4.9.2/bits/stl_vector.h **** 
 111:/opt/gcc/4.9.2/include/c++/4.9.2/bits/stl_vector.h ****       _Tp_alloc_type&
 112:/opt/gcc/4.9.2/include/c++/4.9.2/bits/stl_vector.h ****       _M_get_Tp_allocator() _GLIBCXX_NOEXCEPT
 113:/opt/gcc/4.9.2/include/c++/4.9.2/bits/stl_vector.h ****       { return *static_cast<_Tp_alloc_type*>(&this->_M_impl); }
 114:/opt/gcc/4.9.2/include/c++/4.9.2/bits/stl_vector.h **** 
 115:/opt/gcc/4.9.2/include/c++/4.9.2/bits/stl_vector.h ****       const _Tp_alloc_type&
 116:/opt/gcc/4.9.2/include/c++/4.9.2/bits/stl_vector.h ****       _M_get_Tp_allocator() const _GLIBCXX_NOEXCEPT
 117:/opt/gcc/4.9.2/include/c++/4.9.2/bits/stl_vector.h ****       { return *static_cast<const _Tp_alloc_type*>(&this->_M_impl); }
 118:/opt/gcc/4.9.2/include/c++/4.9.2/bits/stl_vector.h **** 
 119:/opt/gcc/4.9.2/include/c++/4.9.2/bits/stl_vector.h ****       allocator_type
 120:/opt/gcc/4.9.2/include/c++/4.9.2/bits/stl_vector.h ****       get_allocator() const _GLIBCXX_NOEXCEPT
 121:/opt/gcc/4.9.2/include/c++/4.9.2/bits/stl_vector.h ****       { return allocator_type(_M_get_Tp_allocator()); }
 122:/opt/gcc/4.9.2/include/c++/4.9.2/bits/stl_vector.h **** 
 123:/opt/gcc/4.9.2/include/c++/4.9.2/bits/stl_vector.h ****       _Vector_base()
 124:/opt/gcc/4.9.2/include/c++/4.9.2/bits/stl_vector.h ****       : _M_impl() { }
 125:/opt/gcc/4.9.2/include/c++/4.9.2/bits/stl_vector.h **** 
 126:/opt/gcc/4.9.2/include/c++/4.9.2/bits/stl_vector.h ****       _Vector_base(const allocator_type& __a) _GLIBCXX_NOEXCEPT
 127:/opt/gcc/4.9.2/include/c++/4.9.2/bits/stl_vector.h ****       : _M_impl(__a) { }
 128:/opt/gcc/4.9.2/include/c++/4.9.2/bits/stl_vector.h **** 
 129:/opt/gcc/4.9.2/include/c++/4.9.2/bits/stl_vector.h ****       _Vector_base(size_t __n)
 130:/opt/gcc/4.9.2/include/c++/4.9.2/bits/stl_vector.h ****       : _M_impl()
 131:/opt/gcc/4.9.2/include/c++/4.9.2/bits/stl_vector.h ****       { _M_create_storage(__n); }
 132:/opt/gcc/4.9.2/include/c++/4.9.2/bits/stl_vector.h **** 
 133:/opt/gcc/4.9.2/include/c++/4.9.2/bits/stl_vector.h ****       _Vector_base(size_t __n, const allocator_type& __a)
 134:/opt/gcc/4.9.2/include/c++/4.9.2/bits/stl_vector.h ****       : _M_impl(__a)
 135:/opt/gcc/4.9.2/include/c++/4.9.2/bits/stl_vector.h ****       { _M_create_storage(__n); }
 136:/opt/gcc/4.9.2/include/c++/4.9.2/bits/stl_vector.h **** 
 137:/opt/gcc/4.9.2/include/c++/4.9.2/bits/stl_vector.h **** #if __cplusplus >= 201103L
 138:/opt/gcc/4.9.2/include/c++/4.9.2/bits/stl_vector.h ****       _Vector_base(_Tp_alloc_type&& __a) noexcept
 139:/opt/gcc/4.9.2/include/c++/4.9.2/bits/stl_vector.h ****       : _M_impl(std::move(__a)) { }
 140:/opt/gcc/4.9.2/include/c++/4.9.2/bits/stl_vector.h **** 
 141:/opt/gcc/4.9.2/include/c++/4.9.2/bits/stl_vector.h ****       _Vector_base(_Vector_base&& __x) noexcept
 142:/opt/gcc/4.9.2/include/c++/4.9.2/bits/stl_vector.h ****       : _M_impl(std::move(__x._M_get_Tp_allocator()))
 143:/opt/gcc/4.9.2/include/c++/4.9.2/bits/stl_vector.h ****       { this->_M_impl._M_swap_data(__x._M_impl); }
GAS LISTING /tmp/ccKUqHDa.s 			page 15


 144:/opt/gcc/4.9.2/include/c++/4.9.2/bits/stl_vector.h **** 
 145:/opt/gcc/4.9.2/include/c++/4.9.2/bits/stl_vector.h ****       _Vector_base(_Vector_base&& __x, const allocator_type& __a)
 146:/opt/gcc/4.9.2/include/c++/4.9.2/bits/stl_vector.h ****       : _M_impl(__a)
 147:/opt/gcc/4.9.2/include/c++/4.9.2/bits/stl_vector.h ****       {
 148:/opt/gcc/4.9.2/include/c++/4.9.2/bits/stl_vector.h **** 	if (__x.get_allocator() == __a)
 149:/opt/gcc/4.9.2/include/c++/4.9.2/bits/stl_vector.h **** 	  this->_M_impl._M_swap_data(__x._M_impl);
 150:/opt/gcc/4.9.2/include/c++/4.9.2/bits/stl_vector.h **** 	else
 151:/opt/gcc/4.9.2/include/c++/4.9.2/bits/stl_vector.h **** 	  {
 152:/opt/gcc/4.9.2/include/c++/4.9.2/bits/stl_vector.h **** 	    size_t __n = __x._M_impl._M_finish - __x._M_impl._M_start;
 153:/opt/gcc/4.9.2/include/c++/4.9.2/bits/stl_vector.h **** 	    _M_create_storage(__n);
 154:/opt/gcc/4.9.2/include/c++/4.9.2/bits/stl_vector.h **** 	  }
 155:/opt/gcc/4.9.2/include/c++/4.9.2/bits/stl_vector.h ****       }
 156:/opt/gcc/4.9.2/include/c++/4.9.2/bits/stl_vector.h **** #endif
 157:/opt/gcc/4.9.2/include/c++/4.9.2/bits/stl_vector.h **** 
 158:/opt/gcc/4.9.2/include/c++/4.9.2/bits/stl_vector.h ****       ~_Vector_base() _GLIBCXX_NOEXCEPT
 159:/opt/gcc/4.9.2/include/c++/4.9.2/bits/stl_vector.h ****       { _M_deallocate(this->_M_impl._M_start, this->_M_impl._M_end_of_storage
 160:/opt/gcc/4.9.2/include/c++/4.9.2/bits/stl_vector.h **** 		      - this->_M_impl._M_start); }
 161:/opt/gcc/4.9.2/include/c++/4.9.2/bits/stl_vector.h **** 
 162:/opt/gcc/4.9.2/include/c++/4.9.2/bits/stl_vector.h ****     public:
 163:/opt/gcc/4.9.2/include/c++/4.9.2/bits/stl_vector.h ****       _Vector_impl _M_impl;
 164:/opt/gcc/4.9.2/include/c++/4.9.2/bits/stl_vector.h **** 
 165:/opt/gcc/4.9.2/include/c++/4.9.2/bits/stl_vector.h ****       pointer
 166:/opt/gcc/4.9.2/include/c++/4.9.2/bits/stl_vector.h ****       _M_allocate(size_t __n)
 167:/opt/gcc/4.9.2/include/c++/4.9.2/bits/stl_vector.h ****       {
 168:/opt/gcc/4.9.2/include/c++/4.9.2/bits/stl_vector.h **** 	typedef __gnu_cxx::__alloc_traits<_Tp_alloc_type> _Tr;
 169:/opt/gcc/4.9.2/include/c++/4.9.2/bits/stl_vector.h **** 	return __n != 0 ? _Tr::allocate(_M_impl, __n) : 0;
 170:/opt/gcc/4.9.2/include/c++/4.9.2/bits/stl_vector.h ****       }
 171:/opt/gcc/4.9.2/include/c++/4.9.2/bits/stl_vector.h **** 
 172:/opt/gcc/4.9.2/include/c++/4.9.2/bits/stl_vector.h ****       void
 173:/opt/gcc/4.9.2/include/c++/4.9.2/bits/stl_vector.h ****       _M_deallocate(pointer __p, size_t __n)
 174:/opt/gcc/4.9.2/include/c++/4.9.2/bits/stl_vector.h ****       {
 175:/opt/gcc/4.9.2/include/c++/4.9.2/bits/stl_vector.h **** 	typedef __gnu_cxx::__alloc_traits<_Tp_alloc_type> _Tr;
 176:/opt/gcc/4.9.2/include/c++/4.9.2/bits/stl_vector.h **** 	if (__p)
 177:/opt/gcc/4.9.2/include/c++/4.9.2/bits/stl_vector.h **** 	  _Tr::deallocate(_M_impl, __p, __n);
 178:/opt/gcc/4.9.2/include/c++/4.9.2/bits/stl_vector.h ****       }
 179:/opt/gcc/4.9.2/include/c++/4.9.2/bits/stl_vector.h **** 
 180:/opt/gcc/4.9.2/include/c++/4.9.2/bits/stl_vector.h ****     private:
 181:/opt/gcc/4.9.2/include/c++/4.9.2/bits/stl_vector.h ****       void
 182:/opt/gcc/4.9.2/include/c++/4.9.2/bits/stl_vector.h ****       _M_create_storage(size_t __n)
 183:/opt/gcc/4.9.2/include/c++/4.9.2/bits/stl_vector.h ****       {
 184:/opt/gcc/4.9.2/include/c++/4.9.2/bits/stl_vector.h **** 	this->_M_impl._M_start = this->_M_allocate(__n);
 185:/opt/gcc/4.9.2/include/c++/4.9.2/bits/stl_vector.h **** 	this->_M_impl._M_finish = this->_M_impl._M_start;
 186:/opt/gcc/4.9.2/include/c++/4.9.2/bits/stl_vector.h **** 	this->_M_impl._M_end_of_storage = this->_M_impl._M_start + __n;
 187:/opt/gcc/4.9.2/include/c++/4.9.2/bits/stl_vector.h ****       }
 188:/opt/gcc/4.9.2/include/c++/4.9.2/bits/stl_vector.h ****     };
 189:/opt/gcc/4.9.2/include/c++/4.9.2/bits/stl_vector.h **** 
 190:/opt/gcc/4.9.2/include/c++/4.9.2/bits/stl_vector.h **** 
 191:/opt/gcc/4.9.2/include/c++/4.9.2/bits/stl_vector.h ****   /**
 192:/opt/gcc/4.9.2/include/c++/4.9.2/bits/stl_vector.h ****    *  @brief A standard container which offers fixed time access to
 193:/opt/gcc/4.9.2/include/c++/4.9.2/bits/stl_vector.h ****    *  individual elements in any order.
 194:/opt/gcc/4.9.2/include/c++/4.9.2/bits/stl_vector.h ****    *
 195:/opt/gcc/4.9.2/include/c++/4.9.2/bits/stl_vector.h ****    *  @ingroup sequences
 196:/opt/gcc/4.9.2/include/c++/4.9.2/bits/stl_vector.h ****    *
 197:/opt/gcc/4.9.2/include/c++/4.9.2/bits/stl_vector.h ****    *  @tparam _Tp  Type of element.
 198:/opt/gcc/4.9.2/include/c++/4.9.2/bits/stl_vector.h ****    *  @tparam _Alloc  Allocator type, defaults to allocator<_Tp>.
 199:/opt/gcc/4.9.2/include/c++/4.9.2/bits/stl_vector.h ****    *
 200:/opt/gcc/4.9.2/include/c++/4.9.2/bits/stl_vector.h ****    *  Meets the requirements of a <a href="tables.html#65">container</a>, a
GAS LISTING /tmp/ccKUqHDa.s 			page 16


 201:/opt/gcc/4.9.2/include/c++/4.9.2/bits/stl_vector.h ****    *  <a href="tables.html#66">reversible container</a>, and a
 202:/opt/gcc/4.9.2/include/c++/4.9.2/bits/stl_vector.h ****    *  <a href="tables.html#67">sequence</a>, including the
 203:/opt/gcc/4.9.2/include/c++/4.9.2/bits/stl_vector.h ****    *  <a href="tables.html#68">optional sequence requirements</a> with the
 204:/opt/gcc/4.9.2/include/c++/4.9.2/bits/stl_vector.h ****    *  %exception of @c push_front and @c pop_front.
 205:/opt/gcc/4.9.2/include/c++/4.9.2/bits/stl_vector.h ****    *
 206:/opt/gcc/4.9.2/include/c++/4.9.2/bits/stl_vector.h ****    *  In some terminology a %vector can be described as a dynamic
 207:/opt/gcc/4.9.2/include/c++/4.9.2/bits/stl_vector.h ****    *  C-style array, it offers fast and efficient access to individual
 208:/opt/gcc/4.9.2/include/c++/4.9.2/bits/stl_vector.h ****    *  elements in any order and saves the user from worrying about
 209:/opt/gcc/4.9.2/include/c++/4.9.2/bits/stl_vector.h ****    *  memory and size allocation.  Subscripting ( @c [] ) access is
 210:/opt/gcc/4.9.2/include/c++/4.9.2/bits/stl_vector.h ****    *  also provided as with C-style arrays.
 211:/opt/gcc/4.9.2/include/c++/4.9.2/bits/stl_vector.h ****   */
 212:/opt/gcc/4.9.2/include/c++/4.9.2/bits/stl_vector.h ****   template<typename _Tp, typename _Alloc = std::allocator<_Tp> >
 213:/opt/gcc/4.9.2/include/c++/4.9.2/bits/stl_vector.h ****     class vector : protected _Vector_base<_Tp, _Alloc>
 214:/opt/gcc/4.9.2/include/c++/4.9.2/bits/stl_vector.h ****     {
 215:/opt/gcc/4.9.2/include/c++/4.9.2/bits/stl_vector.h ****       // Concept requirements.
 216:/opt/gcc/4.9.2/include/c++/4.9.2/bits/stl_vector.h ****       typedef typename _Alloc::value_type                _Alloc_value_type;
 217:/opt/gcc/4.9.2/include/c++/4.9.2/bits/stl_vector.h ****       __glibcxx_class_requires(_Tp, _SGIAssignableConcept)
 218:/opt/gcc/4.9.2/include/c++/4.9.2/bits/stl_vector.h ****       __glibcxx_class_requires2(_Tp, _Alloc_value_type, _SameTypeConcept)
 219:/opt/gcc/4.9.2/include/c++/4.9.2/bits/stl_vector.h ****       
 220:/opt/gcc/4.9.2/include/c++/4.9.2/bits/stl_vector.h ****       typedef _Vector_base<_Tp, _Alloc>			 _Base;
 221:/opt/gcc/4.9.2/include/c++/4.9.2/bits/stl_vector.h ****       typedef typename _Base::_Tp_alloc_type		 _Tp_alloc_type;
 222:/opt/gcc/4.9.2/include/c++/4.9.2/bits/stl_vector.h ****       typedef __gnu_cxx::__alloc_traits<_Tp_alloc_type>  _Alloc_traits;
 223:/opt/gcc/4.9.2/include/c++/4.9.2/bits/stl_vector.h **** 
 224:/opt/gcc/4.9.2/include/c++/4.9.2/bits/stl_vector.h ****     public:
 225:/opt/gcc/4.9.2/include/c++/4.9.2/bits/stl_vector.h ****       typedef _Tp					 value_type;
 226:/opt/gcc/4.9.2/include/c++/4.9.2/bits/stl_vector.h ****       typedef typename _Base::pointer                    pointer;
 227:/opt/gcc/4.9.2/include/c++/4.9.2/bits/stl_vector.h ****       typedef typename _Alloc_traits::const_pointer      const_pointer;
 228:/opt/gcc/4.9.2/include/c++/4.9.2/bits/stl_vector.h ****       typedef typename _Alloc_traits::reference          reference;
 229:/opt/gcc/4.9.2/include/c++/4.9.2/bits/stl_vector.h ****       typedef typename _Alloc_traits::const_reference    const_reference;
 230:/opt/gcc/4.9.2/include/c++/4.9.2/bits/stl_vector.h ****       typedef __gnu_cxx::__normal_iterator<pointer, vector> iterator;
 231:/opt/gcc/4.9.2/include/c++/4.9.2/bits/stl_vector.h ****       typedef __gnu_cxx::__normal_iterator<const_pointer, vector>
 232:/opt/gcc/4.9.2/include/c++/4.9.2/bits/stl_vector.h ****       const_iterator;
 233:/opt/gcc/4.9.2/include/c++/4.9.2/bits/stl_vector.h ****       typedef std::reverse_iterator<const_iterator>  const_reverse_iterator;
 234:/opt/gcc/4.9.2/include/c++/4.9.2/bits/stl_vector.h ****       typedef std::reverse_iterator<iterator>		 reverse_iterator;
 235:/opt/gcc/4.9.2/include/c++/4.9.2/bits/stl_vector.h ****       typedef size_t					 size_type;
 236:/opt/gcc/4.9.2/include/c++/4.9.2/bits/stl_vector.h ****       typedef ptrdiff_t					 difference_type;
 237:/opt/gcc/4.9.2/include/c++/4.9.2/bits/stl_vector.h ****       typedef _Alloc                        		 allocator_type;
 238:/opt/gcc/4.9.2/include/c++/4.9.2/bits/stl_vector.h **** 
 239:/opt/gcc/4.9.2/include/c++/4.9.2/bits/stl_vector.h ****     protected:
 240:/opt/gcc/4.9.2/include/c++/4.9.2/bits/stl_vector.h ****       using _Base::_M_allocate;
 241:/opt/gcc/4.9.2/include/c++/4.9.2/bits/stl_vector.h ****       using _Base::_M_deallocate;
 242:/opt/gcc/4.9.2/include/c++/4.9.2/bits/stl_vector.h ****       using _Base::_M_impl;
 243:/opt/gcc/4.9.2/include/c++/4.9.2/bits/stl_vector.h ****       using _Base::_M_get_Tp_allocator;
 244:/opt/gcc/4.9.2/include/c++/4.9.2/bits/stl_vector.h **** 
 245:/opt/gcc/4.9.2/include/c++/4.9.2/bits/stl_vector.h ****     public:
 246:/opt/gcc/4.9.2/include/c++/4.9.2/bits/stl_vector.h ****       // [23.2.4.1] construct/copy/destroy
 247:/opt/gcc/4.9.2/include/c++/4.9.2/bits/stl_vector.h ****       // (assign() and get_allocator() are also listed in this section)
 248:/opt/gcc/4.9.2/include/c++/4.9.2/bits/stl_vector.h **** 
 249:/opt/gcc/4.9.2/include/c++/4.9.2/bits/stl_vector.h ****       /**
 250:/opt/gcc/4.9.2/include/c++/4.9.2/bits/stl_vector.h ****        *  @brief  Creates a %vector with no elements.
 251:/opt/gcc/4.9.2/include/c++/4.9.2/bits/stl_vector.h ****        */
 252:/opt/gcc/4.9.2/include/c++/4.9.2/bits/stl_vector.h ****       vector()
 253:/opt/gcc/4.9.2/include/c++/4.9.2/bits/stl_vector.h **** #if __cplusplus >= 201103L
 254:/opt/gcc/4.9.2/include/c++/4.9.2/bits/stl_vector.h ****       noexcept(is_nothrow_default_constructible<_Alloc>::value)
 255:/opt/gcc/4.9.2/include/c++/4.9.2/bits/stl_vector.h **** #endif
 256:/opt/gcc/4.9.2/include/c++/4.9.2/bits/stl_vector.h ****       : _Base() { }
 257:/opt/gcc/4.9.2/include/c++/4.9.2/bits/stl_vector.h **** 
GAS LISTING /tmp/ccKUqHDa.s 			page 17


 258:/opt/gcc/4.9.2/include/c++/4.9.2/bits/stl_vector.h ****       /**
 259:/opt/gcc/4.9.2/include/c++/4.9.2/bits/stl_vector.h ****        *  @brief  Creates a %vector with no elements.
 260:/opt/gcc/4.9.2/include/c++/4.9.2/bits/stl_vector.h ****        *  @param  __a  An allocator object.
 261:/opt/gcc/4.9.2/include/c++/4.9.2/bits/stl_vector.h ****        */
 262:/opt/gcc/4.9.2/include/c++/4.9.2/bits/stl_vector.h ****       explicit
 263:/opt/gcc/4.9.2/include/c++/4.9.2/bits/stl_vector.h ****       vector(const allocator_type& __a) _GLIBCXX_NOEXCEPT
 264:/opt/gcc/4.9.2/include/c++/4.9.2/bits/stl_vector.h ****       : _Base(__a) { }
 265:/opt/gcc/4.9.2/include/c++/4.9.2/bits/stl_vector.h **** 
 266:/opt/gcc/4.9.2/include/c++/4.9.2/bits/stl_vector.h **** #if __cplusplus >= 201103L
 267:/opt/gcc/4.9.2/include/c++/4.9.2/bits/stl_vector.h ****       /**
 268:/opt/gcc/4.9.2/include/c++/4.9.2/bits/stl_vector.h ****        *  @brief  Creates a %vector with default constructed elements.
 269:/opt/gcc/4.9.2/include/c++/4.9.2/bits/stl_vector.h ****        *  @param  __n  The number of elements to initially create.
 270:/opt/gcc/4.9.2/include/c++/4.9.2/bits/stl_vector.h ****        *  @param  __a  An allocator.
 271:/opt/gcc/4.9.2/include/c++/4.9.2/bits/stl_vector.h ****        *
 272:/opt/gcc/4.9.2/include/c++/4.9.2/bits/stl_vector.h ****        *  This constructor fills the %vector with @a __n default
 273:/opt/gcc/4.9.2/include/c++/4.9.2/bits/stl_vector.h ****        *  constructed elements.
 274:/opt/gcc/4.9.2/include/c++/4.9.2/bits/stl_vector.h ****        */
 275:/opt/gcc/4.9.2/include/c++/4.9.2/bits/stl_vector.h ****       explicit
 276:/opt/gcc/4.9.2/include/c++/4.9.2/bits/stl_vector.h ****       vector(size_type __n, const allocator_type& __a = allocator_type())
 242              		.loc 4 277 0
 243              		.cfi_startproc
 244              	.LVL19:
 245 0000 55       		pushq	%rbp
 246              		.cfi_def_cfa_offset 16
 247              		.cfi_offset 6, -16
 248 0001 53       		pushq	%rbx
 249              		.cfi_def_cfa_offset 24
 250              		.cfi_offset 3, -24
 251 0002 4889FB   		movq	%rdi, %rbx
 252 0005 4889F5   		movq	%rsi, %rbp
 253 0008 4883EC08 		subq	$8, %rsp
 254              		.cfi_def_cfa_offset 32
 255              	.LBB1842:
 256              	.LBB1843:
 257              	.LBB1844:
  91:/opt/gcc/4.9.2/include/c++/4.9.2/bits/stl_vector.h **** 	: _Tp_alloc_type(__a), _M_start(0), _M_finish(0), _M_end_of_storage(0)
 258              		.loc 4 91 0
 259 000c 48C70700 		movq	$0, (%rdi)
 259      000000
 260 0013 48C74708 		movq	$0, 8(%rdi)
 260      00000000 
 261 001b 48C74710 		movq	$0, 16(%rdi)
 261      00000000 
 262              	.LVL20:
 263              	.LBE1844:
 264              	.LBE1843:
 265              	.LBB1845:
 266              	.LBB1846:
 267              	.LBB1847:
 268              	.LBB1848:
 170:/opt/gcc/4.9.2/include/c++/4.9.2/bits/stl_vector.h **** 	return __n != 0 ? _Tr::allocate(_M_impl, __n) : 0;
 269              		.loc 4 170 0
 270 0023 31FF     		xorl	%edi, %edi
 271              	.LVL21:
 272 0025 4885F6   		testq	%rsi, %rsi
 273 0028 740B     		je	.L26
 274              	.LVL22:
GAS LISTING /tmp/ccKUqHDa.s 			page 18


 275              	.LBB1849:
 276              	.LBB1850:
 277              	.LBB1851:
 278              		.file 5 "/opt/gcc/4.9.2/include/c++/4.9.2/ext/new_allocator.h"
   0:/opt/gcc/4.9.2/include/c++/4.9.2/ext/new_allocator.h **** // Allocator that wraps operator new -*- C++ -*-
   1:/opt/gcc/4.9.2/include/c++/4.9.2/ext/new_allocator.h **** 
   2:/opt/gcc/4.9.2/include/c++/4.9.2/ext/new_allocator.h **** // Copyright (C) 2001-2014 Free Software Foundation, Inc.
   3:/opt/gcc/4.9.2/include/c++/4.9.2/ext/new_allocator.h **** //
   4:/opt/gcc/4.9.2/include/c++/4.9.2/ext/new_allocator.h **** // This file is part of the GNU ISO C++ Library.  This library is free
   5:/opt/gcc/4.9.2/include/c++/4.9.2/ext/new_allocator.h **** // software; you can redistribute it and/or modify it under the
   6:/opt/gcc/4.9.2/include/c++/4.9.2/ext/new_allocator.h **** // terms of the GNU General Public License as published by the
   7:/opt/gcc/4.9.2/include/c++/4.9.2/ext/new_allocator.h **** // Free Software Foundation; either version 3, or (at your option)
   8:/opt/gcc/4.9.2/include/c++/4.9.2/ext/new_allocator.h **** // any later version.
   9:/opt/gcc/4.9.2/include/c++/4.9.2/ext/new_allocator.h **** 
  10:/opt/gcc/4.9.2/include/c++/4.9.2/ext/new_allocator.h **** // This library is distributed in the hope that it will be useful,
  11:/opt/gcc/4.9.2/include/c++/4.9.2/ext/new_allocator.h **** // but WITHOUT ANY WARRANTY; without even the implied warranty of
  12:/opt/gcc/4.9.2/include/c++/4.9.2/ext/new_allocator.h **** // MERCHANTABILITY or FITNESS FOR A PARTICULAR PURPOSE.  See the
  13:/opt/gcc/4.9.2/include/c++/4.9.2/ext/new_allocator.h **** // GNU General Public License for more details.
  14:/opt/gcc/4.9.2/include/c++/4.9.2/ext/new_allocator.h **** 
  15:/opt/gcc/4.9.2/include/c++/4.9.2/ext/new_allocator.h **** // Under Section 7 of GPL version 3, you are granted additional
  16:/opt/gcc/4.9.2/include/c++/4.9.2/ext/new_allocator.h **** // permissions described in the GCC Runtime Library Exception, version
  17:/opt/gcc/4.9.2/include/c++/4.9.2/ext/new_allocator.h **** // 3.1, as published by the Free Software Foundation.
  18:/opt/gcc/4.9.2/include/c++/4.9.2/ext/new_allocator.h **** 
  19:/opt/gcc/4.9.2/include/c++/4.9.2/ext/new_allocator.h **** // You should have received a copy of the GNU General Public License and
  20:/opt/gcc/4.9.2/include/c++/4.9.2/ext/new_allocator.h **** // a copy of the GCC Runtime Library Exception along with this program;
  21:/opt/gcc/4.9.2/include/c++/4.9.2/ext/new_allocator.h **** // see the files COPYING3 and COPYING.RUNTIME respectively.  If not, see
  22:/opt/gcc/4.9.2/include/c++/4.9.2/ext/new_allocator.h **** // <http://www.gnu.org/licenses/>.
  23:/opt/gcc/4.9.2/include/c++/4.9.2/ext/new_allocator.h **** 
  24:/opt/gcc/4.9.2/include/c++/4.9.2/ext/new_allocator.h **** /** @file ext/new_allocator.h
  25:/opt/gcc/4.9.2/include/c++/4.9.2/ext/new_allocator.h ****  *  This file is a GNU extension to the Standard C++ Library.
  26:/opt/gcc/4.9.2/include/c++/4.9.2/ext/new_allocator.h ****  */
  27:/opt/gcc/4.9.2/include/c++/4.9.2/ext/new_allocator.h **** 
  28:/opt/gcc/4.9.2/include/c++/4.9.2/ext/new_allocator.h **** #ifndef _NEW_ALLOCATOR_H
  29:/opt/gcc/4.9.2/include/c++/4.9.2/ext/new_allocator.h **** #define _NEW_ALLOCATOR_H 1
  30:/opt/gcc/4.9.2/include/c++/4.9.2/ext/new_allocator.h **** 
  31:/opt/gcc/4.9.2/include/c++/4.9.2/ext/new_allocator.h **** #include <bits/c++config.h>
  32:/opt/gcc/4.9.2/include/c++/4.9.2/ext/new_allocator.h **** #include <new>
  33:/opt/gcc/4.9.2/include/c++/4.9.2/ext/new_allocator.h **** #include <bits/functexcept.h>
  34:/opt/gcc/4.9.2/include/c++/4.9.2/ext/new_allocator.h **** #include <bits/move.h>
  35:/opt/gcc/4.9.2/include/c++/4.9.2/ext/new_allocator.h **** #if __cplusplus >= 201103L
  36:/opt/gcc/4.9.2/include/c++/4.9.2/ext/new_allocator.h **** #include <type_traits>
  37:/opt/gcc/4.9.2/include/c++/4.9.2/ext/new_allocator.h **** #endif
  38:/opt/gcc/4.9.2/include/c++/4.9.2/ext/new_allocator.h **** 
  39:/opt/gcc/4.9.2/include/c++/4.9.2/ext/new_allocator.h **** namespace __gnu_cxx _GLIBCXX_VISIBILITY(default)
  40:/opt/gcc/4.9.2/include/c++/4.9.2/ext/new_allocator.h **** {
  41:/opt/gcc/4.9.2/include/c++/4.9.2/ext/new_allocator.h **** _GLIBCXX_BEGIN_NAMESPACE_VERSION
  42:/opt/gcc/4.9.2/include/c++/4.9.2/ext/new_allocator.h **** 
  43:/opt/gcc/4.9.2/include/c++/4.9.2/ext/new_allocator.h ****   using std::size_t;
  44:/opt/gcc/4.9.2/include/c++/4.9.2/ext/new_allocator.h ****   using std::ptrdiff_t;
  45:/opt/gcc/4.9.2/include/c++/4.9.2/ext/new_allocator.h **** 
  46:/opt/gcc/4.9.2/include/c++/4.9.2/ext/new_allocator.h ****   /**
  47:/opt/gcc/4.9.2/include/c++/4.9.2/ext/new_allocator.h ****    *  @brief  An allocator that uses global new, as per [20.4].
  48:/opt/gcc/4.9.2/include/c++/4.9.2/ext/new_allocator.h ****    *  @ingroup allocators
  49:/opt/gcc/4.9.2/include/c++/4.9.2/ext/new_allocator.h ****    *
  50:/opt/gcc/4.9.2/include/c++/4.9.2/ext/new_allocator.h ****    *  This is precisely the allocator defined in the C++ Standard. 
  51:/opt/gcc/4.9.2/include/c++/4.9.2/ext/new_allocator.h ****    *    - all allocation calls operator new
  52:/opt/gcc/4.9.2/include/c++/4.9.2/ext/new_allocator.h ****    *    - all deallocation calls operator delete
GAS LISTING /tmp/ccKUqHDa.s 			page 19


  53:/opt/gcc/4.9.2/include/c++/4.9.2/ext/new_allocator.h ****    *
  54:/opt/gcc/4.9.2/include/c++/4.9.2/ext/new_allocator.h ****    *  @tparam  _Tp  Type of allocated object.
  55:/opt/gcc/4.9.2/include/c++/4.9.2/ext/new_allocator.h ****    */
  56:/opt/gcc/4.9.2/include/c++/4.9.2/ext/new_allocator.h ****   template<typename _Tp>
  57:/opt/gcc/4.9.2/include/c++/4.9.2/ext/new_allocator.h ****     class new_allocator
  58:/opt/gcc/4.9.2/include/c++/4.9.2/ext/new_allocator.h ****     {
  59:/opt/gcc/4.9.2/include/c++/4.9.2/ext/new_allocator.h ****     public:
  60:/opt/gcc/4.9.2/include/c++/4.9.2/ext/new_allocator.h ****       typedef size_t     size_type;
  61:/opt/gcc/4.9.2/include/c++/4.9.2/ext/new_allocator.h ****       typedef ptrdiff_t  difference_type;
  62:/opt/gcc/4.9.2/include/c++/4.9.2/ext/new_allocator.h ****       typedef _Tp*       pointer;
  63:/opt/gcc/4.9.2/include/c++/4.9.2/ext/new_allocator.h ****       typedef const _Tp* const_pointer;
  64:/opt/gcc/4.9.2/include/c++/4.9.2/ext/new_allocator.h ****       typedef _Tp&       reference;
  65:/opt/gcc/4.9.2/include/c++/4.9.2/ext/new_allocator.h ****       typedef const _Tp& const_reference;
  66:/opt/gcc/4.9.2/include/c++/4.9.2/ext/new_allocator.h ****       typedef _Tp        value_type;
  67:/opt/gcc/4.9.2/include/c++/4.9.2/ext/new_allocator.h **** 
  68:/opt/gcc/4.9.2/include/c++/4.9.2/ext/new_allocator.h ****       template<typename _Tp1>
  69:/opt/gcc/4.9.2/include/c++/4.9.2/ext/new_allocator.h ****         struct rebind
  70:/opt/gcc/4.9.2/include/c++/4.9.2/ext/new_allocator.h ****         { typedef new_allocator<_Tp1> other; };
  71:/opt/gcc/4.9.2/include/c++/4.9.2/ext/new_allocator.h **** 
  72:/opt/gcc/4.9.2/include/c++/4.9.2/ext/new_allocator.h **** #if __cplusplus >= 201103L
  73:/opt/gcc/4.9.2/include/c++/4.9.2/ext/new_allocator.h ****       // _GLIBCXX_RESOLVE_LIB_DEFECTS
  74:/opt/gcc/4.9.2/include/c++/4.9.2/ext/new_allocator.h ****       // 2103. propagate_on_container_move_assignment
  75:/opt/gcc/4.9.2/include/c++/4.9.2/ext/new_allocator.h ****       typedef std::true_type propagate_on_container_move_assignment;
  76:/opt/gcc/4.9.2/include/c++/4.9.2/ext/new_allocator.h **** #endif
  77:/opt/gcc/4.9.2/include/c++/4.9.2/ext/new_allocator.h **** 
  78:/opt/gcc/4.9.2/include/c++/4.9.2/ext/new_allocator.h ****       new_allocator() _GLIBCXX_USE_NOEXCEPT { }
  79:/opt/gcc/4.9.2/include/c++/4.9.2/ext/new_allocator.h **** 
  80:/opt/gcc/4.9.2/include/c++/4.9.2/ext/new_allocator.h ****       new_allocator(const new_allocator&) _GLIBCXX_USE_NOEXCEPT { }
  81:/opt/gcc/4.9.2/include/c++/4.9.2/ext/new_allocator.h **** 
  82:/opt/gcc/4.9.2/include/c++/4.9.2/ext/new_allocator.h ****       template<typename _Tp1>
  83:/opt/gcc/4.9.2/include/c++/4.9.2/ext/new_allocator.h ****         new_allocator(const new_allocator<_Tp1>&) _GLIBCXX_USE_NOEXCEPT { }
  84:/opt/gcc/4.9.2/include/c++/4.9.2/ext/new_allocator.h **** 
  85:/opt/gcc/4.9.2/include/c++/4.9.2/ext/new_allocator.h ****       ~new_allocator() _GLIBCXX_USE_NOEXCEPT { }
  86:/opt/gcc/4.9.2/include/c++/4.9.2/ext/new_allocator.h **** 
  87:/opt/gcc/4.9.2/include/c++/4.9.2/ext/new_allocator.h ****       pointer
  88:/opt/gcc/4.9.2/include/c++/4.9.2/ext/new_allocator.h ****       address(reference __x) const _GLIBCXX_NOEXCEPT
  89:/opt/gcc/4.9.2/include/c++/4.9.2/ext/new_allocator.h ****       { return std::__addressof(__x); }
  90:/opt/gcc/4.9.2/include/c++/4.9.2/ext/new_allocator.h **** 
  91:/opt/gcc/4.9.2/include/c++/4.9.2/ext/new_allocator.h ****       const_pointer
  92:/opt/gcc/4.9.2/include/c++/4.9.2/ext/new_allocator.h ****       address(const_reference __x) const _GLIBCXX_NOEXCEPT
  93:/opt/gcc/4.9.2/include/c++/4.9.2/ext/new_allocator.h ****       { return std::__addressof(__x); }
  94:/opt/gcc/4.9.2/include/c++/4.9.2/ext/new_allocator.h **** 
  95:/opt/gcc/4.9.2/include/c++/4.9.2/ext/new_allocator.h ****       // NB: __n is permitted to be 0.  The C++ standard says nothing
  96:/opt/gcc/4.9.2/include/c++/4.9.2/ext/new_allocator.h ****       // about what the return value is when __n == 0.
  97:/opt/gcc/4.9.2/include/c++/4.9.2/ext/new_allocator.h ****       pointer
  98:/opt/gcc/4.9.2/include/c++/4.9.2/ext/new_allocator.h ****       allocate(size_type __n, const void* = 0)
  99:/opt/gcc/4.9.2/include/c++/4.9.2/ext/new_allocator.h ****       { 
 100:/opt/gcc/4.9.2/include/c++/4.9.2/ext/new_allocator.h **** 	if (__n > this->max_size())
 101:/opt/gcc/4.9.2/include/c++/4.9.2/ext/new_allocator.h **** 	  std::__throw_bad_alloc();
 102:/opt/gcc/4.9.2/include/c++/4.9.2/ext/new_allocator.h **** 
 103:/opt/gcc/4.9.2/include/c++/4.9.2/ext/new_allocator.h **** 	return static_cast<_Tp*>(::operator new(__n * sizeof(_Tp)));
 279              		.loc 5 104 0
 280 002a 4889F7   		movq	%rsi, %rdi
 281 002d E8000000 		call	_Znwm@PLT
 281      00
 282              	.LVL23:
 283 0032 4889C7   		movq	%rax, %rdi
GAS LISTING /tmp/ccKUqHDa.s 			page 20


 284              	.LVL24:
 285              	.L26:
 286              	.LBE1851:
 287              	.LBE1850:
 288              	.LBE1849:
 289              	.LBE1848:
 290              	.LBE1847:
 187:/opt/gcc/4.9.2/include/c++/4.9.2/bits/stl_vector.h **** 	this->_M_impl._M_end_of_storage = this->_M_impl._M_start + __n;
 291              		.loc 4 187 0
 292 0035 488D042F 		leaq	(%rdi,%rbp), %rax
 185:/opt/gcc/4.9.2/include/c++/4.9.2/bits/stl_vector.h **** 	this->_M_impl._M_start = this->_M_allocate(__n);
 293              		.loc 4 185 0
 294 0039 48893B   		movq	%rdi, (%rbx)
 186:/opt/gcc/4.9.2/include/c++/4.9.2/bits/stl_vector.h **** 	this->_M_impl._M_finish = this->_M_impl._M_start;
 295              		.loc 4 186 0
 296 003c 48897B08 		movq	%rdi, 8(%rbx)
 297              	.LBE1846:
 298              	.LBE1845:
 299              	.LBE1842:
 300              	.LBB1854:
 301              	.LBB1855:
 302              	.LBB1856:
 303              	.LBB1857:
 304              	.LBB1858:
 305              	.LBB1859:
 306              	.LBB1860:
 307              	.LBB1861:
 308              	.LBB1862:
 309              	.LBB1863:
 310              	.LBB1864:
 311              		.file 6 "/opt/gcc/4.9.2/include/c++/4.9.2/bits/stl_algobase.h"
   0:/opt/gcc/4.9.2/include/c++/4.9.2/bits/stl_algobase.h **** // Core algorithmic facilities -*- C++ -*-
   1:/opt/gcc/4.9.2/include/c++/4.9.2/bits/stl_algobase.h **** 
   2:/opt/gcc/4.9.2/include/c++/4.9.2/bits/stl_algobase.h **** // Copyright (C) 2001-2014 Free Software Foundation, Inc.
   3:/opt/gcc/4.9.2/include/c++/4.9.2/bits/stl_algobase.h **** //
   4:/opt/gcc/4.9.2/include/c++/4.9.2/bits/stl_algobase.h **** // This file is part of the GNU ISO C++ Library.  This library is free
   5:/opt/gcc/4.9.2/include/c++/4.9.2/bits/stl_algobase.h **** // software; you can redistribute it and/or modify it under the
   6:/opt/gcc/4.9.2/include/c++/4.9.2/bits/stl_algobase.h **** // terms of the GNU General Public License as published by the
   7:/opt/gcc/4.9.2/include/c++/4.9.2/bits/stl_algobase.h **** // Free Software Foundation; either version 3, or (at your option)
   8:/opt/gcc/4.9.2/include/c++/4.9.2/bits/stl_algobase.h **** // any later version.
   9:/opt/gcc/4.9.2/include/c++/4.9.2/bits/stl_algobase.h **** 
  10:/opt/gcc/4.9.2/include/c++/4.9.2/bits/stl_algobase.h **** // This library is distributed in the hope that it will be useful,
  11:/opt/gcc/4.9.2/include/c++/4.9.2/bits/stl_algobase.h **** // but WITHOUT ANY WARRANTY; without even the implied warranty of
  12:/opt/gcc/4.9.2/include/c++/4.9.2/bits/stl_algobase.h **** // MERCHANTABILITY or FITNESS FOR A PARTICULAR PURPOSE.  See the
  13:/opt/gcc/4.9.2/include/c++/4.9.2/bits/stl_algobase.h **** // GNU General Public License for more details.
  14:/opt/gcc/4.9.2/include/c++/4.9.2/bits/stl_algobase.h **** 
  15:/opt/gcc/4.9.2/include/c++/4.9.2/bits/stl_algobase.h **** // Under Section 7 of GPL version 3, you are granted additional
  16:/opt/gcc/4.9.2/include/c++/4.9.2/bits/stl_algobase.h **** // permissions described in the GCC Runtime Library Exception, version
  17:/opt/gcc/4.9.2/include/c++/4.9.2/bits/stl_algobase.h **** // 3.1, as published by the Free Software Foundation.
  18:/opt/gcc/4.9.2/include/c++/4.9.2/bits/stl_algobase.h **** 
  19:/opt/gcc/4.9.2/include/c++/4.9.2/bits/stl_algobase.h **** // You should have received a copy of the GNU General Public License and
  20:/opt/gcc/4.9.2/include/c++/4.9.2/bits/stl_algobase.h **** // a copy of the GCC Runtime Library Exception along with this program;
  21:/opt/gcc/4.9.2/include/c++/4.9.2/bits/stl_algobase.h **** // see the files COPYING3 and COPYING.RUNTIME respectively.  If not, see
  22:/opt/gcc/4.9.2/include/c++/4.9.2/bits/stl_algobase.h **** // <http://www.gnu.org/licenses/>.
  23:/opt/gcc/4.9.2/include/c++/4.9.2/bits/stl_algobase.h **** 
  24:/opt/gcc/4.9.2/include/c++/4.9.2/bits/stl_algobase.h **** /*
  25:/opt/gcc/4.9.2/include/c++/4.9.2/bits/stl_algobase.h ****  *
GAS LISTING /tmp/ccKUqHDa.s 			page 21


  26:/opt/gcc/4.9.2/include/c++/4.9.2/bits/stl_algobase.h ****  * Copyright (c) 1994
  27:/opt/gcc/4.9.2/include/c++/4.9.2/bits/stl_algobase.h ****  * Hewlett-Packard Company
  28:/opt/gcc/4.9.2/include/c++/4.9.2/bits/stl_algobase.h ****  *
  29:/opt/gcc/4.9.2/include/c++/4.9.2/bits/stl_algobase.h ****  * Permission to use, copy, modify, distribute and sell this software
  30:/opt/gcc/4.9.2/include/c++/4.9.2/bits/stl_algobase.h ****  * and its documentation for any purpose is hereby granted without fee,
  31:/opt/gcc/4.9.2/include/c++/4.9.2/bits/stl_algobase.h ****  * provided that the above copyright notice appear in all copies and
  32:/opt/gcc/4.9.2/include/c++/4.9.2/bits/stl_algobase.h ****  * that both that copyright notice and this permission notice appear
  33:/opt/gcc/4.9.2/include/c++/4.9.2/bits/stl_algobase.h ****  * in supporting documentation.  Hewlett-Packard Company makes no
  34:/opt/gcc/4.9.2/include/c++/4.9.2/bits/stl_algobase.h ****  * representations about the suitability of this software for any
  35:/opt/gcc/4.9.2/include/c++/4.9.2/bits/stl_algobase.h ****  * purpose.  It is provided "as is" without express or implied warranty.
  36:/opt/gcc/4.9.2/include/c++/4.9.2/bits/stl_algobase.h ****  *
  37:/opt/gcc/4.9.2/include/c++/4.9.2/bits/stl_algobase.h ****  *
  38:/opt/gcc/4.9.2/include/c++/4.9.2/bits/stl_algobase.h ****  * Copyright (c) 1996-1998
  39:/opt/gcc/4.9.2/include/c++/4.9.2/bits/stl_algobase.h ****  * Silicon Graphics Computer Systems, Inc.
  40:/opt/gcc/4.9.2/include/c++/4.9.2/bits/stl_algobase.h ****  *
  41:/opt/gcc/4.9.2/include/c++/4.9.2/bits/stl_algobase.h ****  * Permission to use, copy, modify, distribute and sell this software
  42:/opt/gcc/4.9.2/include/c++/4.9.2/bits/stl_algobase.h ****  * and its documentation for any purpose is hereby granted without fee,
  43:/opt/gcc/4.9.2/include/c++/4.9.2/bits/stl_algobase.h ****  * provided that the above copyright notice appear in all copies and
  44:/opt/gcc/4.9.2/include/c++/4.9.2/bits/stl_algobase.h ****  * that both that copyright notice and this permission notice appear
  45:/opt/gcc/4.9.2/include/c++/4.9.2/bits/stl_algobase.h ****  * in supporting documentation.  Silicon Graphics makes no
  46:/opt/gcc/4.9.2/include/c++/4.9.2/bits/stl_algobase.h ****  * representations about the suitability of this software for any
  47:/opt/gcc/4.9.2/include/c++/4.9.2/bits/stl_algobase.h ****  * purpose.  It is provided "as is" without express or implied warranty.
  48:/opt/gcc/4.9.2/include/c++/4.9.2/bits/stl_algobase.h ****  */
  49:/opt/gcc/4.9.2/include/c++/4.9.2/bits/stl_algobase.h **** 
  50:/opt/gcc/4.9.2/include/c++/4.9.2/bits/stl_algobase.h **** /** @file bits/stl_algobase.h
  51:/opt/gcc/4.9.2/include/c++/4.9.2/bits/stl_algobase.h ****  *  This is an internal header file, included by other library headers.
  52:/opt/gcc/4.9.2/include/c++/4.9.2/bits/stl_algobase.h ****  *  Do not attempt to use it directly. @headername{algorithm}
  53:/opt/gcc/4.9.2/include/c++/4.9.2/bits/stl_algobase.h ****  */
  54:/opt/gcc/4.9.2/include/c++/4.9.2/bits/stl_algobase.h **** 
  55:/opt/gcc/4.9.2/include/c++/4.9.2/bits/stl_algobase.h **** #ifndef _STL_ALGOBASE_H
  56:/opt/gcc/4.9.2/include/c++/4.9.2/bits/stl_algobase.h **** #define _STL_ALGOBASE_H 1
  57:/opt/gcc/4.9.2/include/c++/4.9.2/bits/stl_algobase.h **** 
  58:/opt/gcc/4.9.2/include/c++/4.9.2/bits/stl_algobase.h **** #include <bits/c++config.h>
  59:/opt/gcc/4.9.2/include/c++/4.9.2/bits/stl_algobase.h **** #include <bits/functexcept.h>
  60:/opt/gcc/4.9.2/include/c++/4.9.2/bits/stl_algobase.h **** #include <bits/cpp_type_traits.h>
  61:/opt/gcc/4.9.2/include/c++/4.9.2/bits/stl_algobase.h **** #include <ext/type_traits.h>
  62:/opt/gcc/4.9.2/include/c++/4.9.2/bits/stl_algobase.h **** #include <ext/numeric_traits.h>
  63:/opt/gcc/4.9.2/include/c++/4.9.2/bits/stl_algobase.h **** #include <bits/stl_pair.h>
  64:/opt/gcc/4.9.2/include/c++/4.9.2/bits/stl_algobase.h **** #include <bits/stl_iterator_base_types.h>
  65:/opt/gcc/4.9.2/include/c++/4.9.2/bits/stl_algobase.h **** #include <bits/stl_iterator_base_funcs.h>
  66:/opt/gcc/4.9.2/include/c++/4.9.2/bits/stl_algobase.h **** #include <bits/stl_iterator.h>
  67:/opt/gcc/4.9.2/include/c++/4.9.2/bits/stl_algobase.h **** #include <bits/concept_check.h>
  68:/opt/gcc/4.9.2/include/c++/4.9.2/bits/stl_algobase.h **** #include <debug/debug.h>
  69:/opt/gcc/4.9.2/include/c++/4.9.2/bits/stl_algobase.h **** #include <bits/move.h> // For std::swap and _GLIBCXX_MOVE
  70:/opt/gcc/4.9.2/include/c++/4.9.2/bits/stl_algobase.h **** #include <bits/predefined_ops.h>
  71:/opt/gcc/4.9.2/include/c++/4.9.2/bits/stl_algobase.h **** 
  72:/opt/gcc/4.9.2/include/c++/4.9.2/bits/stl_algobase.h **** namespace std _GLIBCXX_VISIBILITY(default)
  73:/opt/gcc/4.9.2/include/c++/4.9.2/bits/stl_algobase.h **** {
  74:/opt/gcc/4.9.2/include/c++/4.9.2/bits/stl_algobase.h **** _GLIBCXX_BEGIN_NAMESPACE_VERSION
  75:/opt/gcc/4.9.2/include/c++/4.9.2/bits/stl_algobase.h **** 
  76:/opt/gcc/4.9.2/include/c++/4.9.2/bits/stl_algobase.h **** #if __cplusplus < 201103L
  77:/opt/gcc/4.9.2/include/c++/4.9.2/bits/stl_algobase.h ****   // See http://gcc.gnu.org/ml/libstdc++/2004-08/msg00167.html: in a
  78:/opt/gcc/4.9.2/include/c++/4.9.2/bits/stl_algobase.h ****   // nutshell, we are partially implementing the resolution of DR 187,
  79:/opt/gcc/4.9.2/include/c++/4.9.2/bits/stl_algobase.h ****   // when it's safe, i.e., the value_types are equal.
  80:/opt/gcc/4.9.2/include/c++/4.9.2/bits/stl_algobase.h ****   template<bool _BoolType>
  81:/opt/gcc/4.9.2/include/c++/4.9.2/bits/stl_algobase.h ****     struct __iter_swap
  82:/opt/gcc/4.9.2/include/c++/4.9.2/bits/stl_algobase.h ****     {
GAS LISTING /tmp/ccKUqHDa.s 			page 22


  83:/opt/gcc/4.9.2/include/c++/4.9.2/bits/stl_algobase.h ****       template<typename _ForwardIterator1, typename _ForwardIterator2>
  84:/opt/gcc/4.9.2/include/c++/4.9.2/bits/stl_algobase.h ****         static void
  85:/opt/gcc/4.9.2/include/c++/4.9.2/bits/stl_algobase.h ****         iter_swap(_ForwardIterator1 __a, _ForwardIterator2 __b)
  86:/opt/gcc/4.9.2/include/c++/4.9.2/bits/stl_algobase.h ****         {
  87:/opt/gcc/4.9.2/include/c++/4.9.2/bits/stl_algobase.h ****           typedef typename iterator_traits<_ForwardIterator1>::value_type
  88:/opt/gcc/4.9.2/include/c++/4.9.2/bits/stl_algobase.h ****             _ValueType1;
  89:/opt/gcc/4.9.2/include/c++/4.9.2/bits/stl_algobase.h ****           _ValueType1 __tmp = _GLIBCXX_MOVE(*__a);
  90:/opt/gcc/4.9.2/include/c++/4.9.2/bits/stl_algobase.h ****           *__a = _GLIBCXX_MOVE(*__b);
  91:/opt/gcc/4.9.2/include/c++/4.9.2/bits/stl_algobase.h ****           *__b = _GLIBCXX_MOVE(__tmp);
  92:/opt/gcc/4.9.2/include/c++/4.9.2/bits/stl_algobase.h **** 	}
  93:/opt/gcc/4.9.2/include/c++/4.9.2/bits/stl_algobase.h ****     };
  94:/opt/gcc/4.9.2/include/c++/4.9.2/bits/stl_algobase.h **** 
  95:/opt/gcc/4.9.2/include/c++/4.9.2/bits/stl_algobase.h ****   template<>
  96:/opt/gcc/4.9.2/include/c++/4.9.2/bits/stl_algobase.h ****     struct __iter_swap<true>
  97:/opt/gcc/4.9.2/include/c++/4.9.2/bits/stl_algobase.h ****     {
  98:/opt/gcc/4.9.2/include/c++/4.9.2/bits/stl_algobase.h ****       template<typename _ForwardIterator1, typename _ForwardIterator2>
  99:/opt/gcc/4.9.2/include/c++/4.9.2/bits/stl_algobase.h ****         static void 
 100:/opt/gcc/4.9.2/include/c++/4.9.2/bits/stl_algobase.h ****         iter_swap(_ForwardIterator1 __a, _ForwardIterator2 __b)
 101:/opt/gcc/4.9.2/include/c++/4.9.2/bits/stl_algobase.h ****         {
 102:/opt/gcc/4.9.2/include/c++/4.9.2/bits/stl_algobase.h ****           swap(*__a, *__b);
 103:/opt/gcc/4.9.2/include/c++/4.9.2/bits/stl_algobase.h ****         }
 104:/opt/gcc/4.9.2/include/c++/4.9.2/bits/stl_algobase.h ****     };
 105:/opt/gcc/4.9.2/include/c++/4.9.2/bits/stl_algobase.h **** #endif
 106:/opt/gcc/4.9.2/include/c++/4.9.2/bits/stl_algobase.h **** 
 107:/opt/gcc/4.9.2/include/c++/4.9.2/bits/stl_algobase.h ****   /**
 108:/opt/gcc/4.9.2/include/c++/4.9.2/bits/stl_algobase.h ****    *  @brief Swaps the contents of two iterators.
 109:/opt/gcc/4.9.2/include/c++/4.9.2/bits/stl_algobase.h ****    *  @ingroup mutating_algorithms
 110:/opt/gcc/4.9.2/include/c++/4.9.2/bits/stl_algobase.h ****    *  @param  __a  An iterator.
 111:/opt/gcc/4.9.2/include/c++/4.9.2/bits/stl_algobase.h ****    *  @param  __b  Another iterator.
 112:/opt/gcc/4.9.2/include/c++/4.9.2/bits/stl_algobase.h ****    *  @return   Nothing.
 113:/opt/gcc/4.9.2/include/c++/4.9.2/bits/stl_algobase.h ****    *
 114:/opt/gcc/4.9.2/include/c++/4.9.2/bits/stl_algobase.h ****    *  This function swaps the values pointed to by two iterators, not the
 115:/opt/gcc/4.9.2/include/c++/4.9.2/bits/stl_algobase.h ****    *  iterators themselves.
 116:/opt/gcc/4.9.2/include/c++/4.9.2/bits/stl_algobase.h ****   */
 117:/opt/gcc/4.9.2/include/c++/4.9.2/bits/stl_algobase.h ****   template<typename _ForwardIterator1, typename _ForwardIterator2>
 118:/opt/gcc/4.9.2/include/c++/4.9.2/bits/stl_algobase.h ****     inline void
 119:/opt/gcc/4.9.2/include/c++/4.9.2/bits/stl_algobase.h ****     iter_swap(_ForwardIterator1 __a, _ForwardIterator2 __b)
 120:/opt/gcc/4.9.2/include/c++/4.9.2/bits/stl_algobase.h ****     {
 121:/opt/gcc/4.9.2/include/c++/4.9.2/bits/stl_algobase.h ****       // concept requirements
 122:/opt/gcc/4.9.2/include/c++/4.9.2/bits/stl_algobase.h ****       __glibcxx_function_requires(_Mutable_ForwardIteratorConcept<
 123:/opt/gcc/4.9.2/include/c++/4.9.2/bits/stl_algobase.h **** 				  _ForwardIterator1>)
 124:/opt/gcc/4.9.2/include/c++/4.9.2/bits/stl_algobase.h ****       __glibcxx_function_requires(_Mutable_ForwardIteratorConcept<
 125:/opt/gcc/4.9.2/include/c++/4.9.2/bits/stl_algobase.h **** 				  _ForwardIterator2>)
 126:/opt/gcc/4.9.2/include/c++/4.9.2/bits/stl_algobase.h **** 
 127:/opt/gcc/4.9.2/include/c++/4.9.2/bits/stl_algobase.h **** #if __cplusplus < 201103L
 128:/opt/gcc/4.9.2/include/c++/4.9.2/bits/stl_algobase.h ****       typedef typename iterator_traits<_ForwardIterator1>::value_type
 129:/opt/gcc/4.9.2/include/c++/4.9.2/bits/stl_algobase.h **** 	_ValueType1;
 130:/opt/gcc/4.9.2/include/c++/4.9.2/bits/stl_algobase.h ****       typedef typename iterator_traits<_ForwardIterator2>::value_type
 131:/opt/gcc/4.9.2/include/c++/4.9.2/bits/stl_algobase.h **** 	_ValueType2;
 132:/opt/gcc/4.9.2/include/c++/4.9.2/bits/stl_algobase.h **** 
 133:/opt/gcc/4.9.2/include/c++/4.9.2/bits/stl_algobase.h ****       __glibcxx_function_requires(_ConvertibleConcept<_ValueType1,
 134:/opt/gcc/4.9.2/include/c++/4.9.2/bits/stl_algobase.h **** 				  _ValueType2>)
 135:/opt/gcc/4.9.2/include/c++/4.9.2/bits/stl_algobase.h ****       __glibcxx_function_requires(_ConvertibleConcept<_ValueType2,
 136:/opt/gcc/4.9.2/include/c++/4.9.2/bits/stl_algobase.h **** 				  _ValueType1>)
 137:/opt/gcc/4.9.2/include/c++/4.9.2/bits/stl_algobase.h **** 
 138:/opt/gcc/4.9.2/include/c++/4.9.2/bits/stl_algobase.h ****       typedef typename iterator_traits<_ForwardIterator1>::reference
 139:/opt/gcc/4.9.2/include/c++/4.9.2/bits/stl_algobase.h **** 	_ReferenceType1;
GAS LISTING /tmp/ccKUqHDa.s 			page 23


 140:/opt/gcc/4.9.2/include/c++/4.9.2/bits/stl_algobase.h ****       typedef typename iterator_traits<_ForwardIterator2>::reference
 141:/opt/gcc/4.9.2/include/c++/4.9.2/bits/stl_algobase.h **** 	_ReferenceType2;
 142:/opt/gcc/4.9.2/include/c++/4.9.2/bits/stl_algobase.h ****       std::__iter_swap<__are_same<_ValueType1, _ValueType2>::__value
 143:/opt/gcc/4.9.2/include/c++/4.9.2/bits/stl_algobase.h **** 	&& __are_same<_ValueType1&, _ReferenceType1>::__value
 144:/opt/gcc/4.9.2/include/c++/4.9.2/bits/stl_algobase.h **** 	&& __are_same<_ValueType2&, _ReferenceType2>::__value>::
 145:/opt/gcc/4.9.2/include/c++/4.9.2/bits/stl_algobase.h **** 	iter_swap(__a, __b);
 146:/opt/gcc/4.9.2/include/c++/4.9.2/bits/stl_algobase.h **** #else
 147:/opt/gcc/4.9.2/include/c++/4.9.2/bits/stl_algobase.h ****       swap(*__a, *__b);
 148:/opt/gcc/4.9.2/include/c++/4.9.2/bits/stl_algobase.h **** #endif
 149:/opt/gcc/4.9.2/include/c++/4.9.2/bits/stl_algobase.h ****     }
 150:/opt/gcc/4.9.2/include/c++/4.9.2/bits/stl_algobase.h **** 
 151:/opt/gcc/4.9.2/include/c++/4.9.2/bits/stl_algobase.h ****   /**
 152:/opt/gcc/4.9.2/include/c++/4.9.2/bits/stl_algobase.h ****    *  @brief Swap the elements of two sequences.
 153:/opt/gcc/4.9.2/include/c++/4.9.2/bits/stl_algobase.h ****    *  @ingroup mutating_algorithms
 154:/opt/gcc/4.9.2/include/c++/4.9.2/bits/stl_algobase.h ****    *  @param  __first1  A forward iterator.
 155:/opt/gcc/4.9.2/include/c++/4.9.2/bits/stl_algobase.h ****    *  @param  __last1   A forward iterator.
 156:/opt/gcc/4.9.2/include/c++/4.9.2/bits/stl_algobase.h ****    *  @param  __first2  A forward iterator.
 157:/opt/gcc/4.9.2/include/c++/4.9.2/bits/stl_algobase.h ****    *  @return   An iterator equal to @p first2+(last1-first1).
 158:/opt/gcc/4.9.2/include/c++/4.9.2/bits/stl_algobase.h ****    *
 159:/opt/gcc/4.9.2/include/c++/4.9.2/bits/stl_algobase.h ****    *  Swaps each element in the range @p [first1,last1) with the
 160:/opt/gcc/4.9.2/include/c++/4.9.2/bits/stl_algobase.h ****    *  corresponding element in the range @p [first2,(last1-first1)).
 161:/opt/gcc/4.9.2/include/c++/4.9.2/bits/stl_algobase.h ****    *  The ranges must not overlap.
 162:/opt/gcc/4.9.2/include/c++/4.9.2/bits/stl_algobase.h ****   */
 163:/opt/gcc/4.9.2/include/c++/4.9.2/bits/stl_algobase.h ****   template<typename _ForwardIterator1, typename _ForwardIterator2>
 164:/opt/gcc/4.9.2/include/c++/4.9.2/bits/stl_algobase.h ****     _ForwardIterator2
 165:/opt/gcc/4.9.2/include/c++/4.9.2/bits/stl_algobase.h ****     swap_ranges(_ForwardIterator1 __first1, _ForwardIterator1 __last1,
 166:/opt/gcc/4.9.2/include/c++/4.9.2/bits/stl_algobase.h **** 		_ForwardIterator2 __first2)
 167:/opt/gcc/4.9.2/include/c++/4.9.2/bits/stl_algobase.h ****     {
 168:/opt/gcc/4.9.2/include/c++/4.9.2/bits/stl_algobase.h ****       // concept requirements
 169:/opt/gcc/4.9.2/include/c++/4.9.2/bits/stl_algobase.h ****       __glibcxx_function_requires(_Mutable_ForwardIteratorConcept<
 170:/opt/gcc/4.9.2/include/c++/4.9.2/bits/stl_algobase.h **** 				  _ForwardIterator1>)
 171:/opt/gcc/4.9.2/include/c++/4.9.2/bits/stl_algobase.h ****       __glibcxx_function_requires(_Mutable_ForwardIteratorConcept<
 172:/opt/gcc/4.9.2/include/c++/4.9.2/bits/stl_algobase.h **** 				  _ForwardIterator2>)
 173:/opt/gcc/4.9.2/include/c++/4.9.2/bits/stl_algobase.h ****       __glibcxx_requires_valid_range(__first1, __last1);
 174:/opt/gcc/4.9.2/include/c++/4.9.2/bits/stl_algobase.h **** 
 175:/opt/gcc/4.9.2/include/c++/4.9.2/bits/stl_algobase.h ****       for (; __first1 != __last1; ++__first1, ++__first2)
 176:/opt/gcc/4.9.2/include/c++/4.9.2/bits/stl_algobase.h **** 	std::iter_swap(__first1, __first2);
 177:/opt/gcc/4.9.2/include/c++/4.9.2/bits/stl_algobase.h ****       return __first2;
 178:/opt/gcc/4.9.2/include/c++/4.9.2/bits/stl_algobase.h ****     }
 179:/opt/gcc/4.9.2/include/c++/4.9.2/bits/stl_algobase.h **** 
 180:/opt/gcc/4.9.2/include/c++/4.9.2/bits/stl_algobase.h ****   /**
 181:/opt/gcc/4.9.2/include/c++/4.9.2/bits/stl_algobase.h ****    *  @brief This does what you think it does.
 182:/opt/gcc/4.9.2/include/c++/4.9.2/bits/stl_algobase.h ****    *  @ingroup sorting_algorithms
 183:/opt/gcc/4.9.2/include/c++/4.9.2/bits/stl_algobase.h ****    *  @param  __a  A thing of arbitrary type.
 184:/opt/gcc/4.9.2/include/c++/4.9.2/bits/stl_algobase.h ****    *  @param  __b  Another thing of arbitrary type.
 185:/opt/gcc/4.9.2/include/c++/4.9.2/bits/stl_algobase.h ****    *  @return   The lesser of the parameters.
 186:/opt/gcc/4.9.2/include/c++/4.9.2/bits/stl_algobase.h ****    *
 187:/opt/gcc/4.9.2/include/c++/4.9.2/bits/stl_algobase.h ****    *  This is the simple classic generic implementation.  It will work on
 188:/opt/gcc/4.9.2/include/c++/4.9.2/bits/stl_algobase.h ****    *  temporary expressions, since they are only evaluated once, unlike a
 189:/opt/gcc/4.9.2/include/c++/4.9.2/bits/stl_algobase.h ****    *  preprocessor macro.
 190:/opt/gcc/4.9.2/include/c++/4.9.2/bits/stl_algobase.h ****   */
 191:/opt/gcc/4.9.2/include/c++/4.9.2/bits/stl_algobase.h ****   template<typename _Tp>
 192:/opt/gcc/4.9.2/include/c++/4.9.2/bits/stl_algobase.h ****     inline const _Tp&
 193:/opt/gcc/4.9.2/include/c++/4.9.2/bits/stl_algobase.h ****     min(const _Tp& __a, const _Tp& __b)
 194:/opt/gcc/4.9.2/include/c++/4.9.2/bits/stl_algobase.h ****     {
 195:/opt/gcc/4.9.2/include/c++/4.9.2/bits/stl_algobase.h ****       // concept requirements
 196:/opt/gcc/4.9.2/include/c++/4.9.2/bits/stl_algobase.h ****       __glibcxx_function_requires(_LessThanComparableConcept<_Tp>)
GAS LISTING /tmp/ccKUqHDa.s 			page 24


 197:/opt/gcc/4.9.2/include/c++/4.9.2/bits/stl_algobase.h ****       //return __b < __a ? __b : __a;
 198:/opt/gcc/4.9.2/include/c++/4.9.2/bits/stl_algobase.h ****       if (__b < __a)
 199:/opt/gcc/4.9.2/include/c++/4.9.2/bits/stl_algobase.h **** 	return __b;
 200:/opt/gcc/4.9.2/include/c++/4.9.2/bits/stl_algobase.h ****       return __a;
 201:/opt/gcc/4.9.2/include/c++/4.9.2/bits/stl_algobase.h ****     }
 202:/opt/gcc/4.9.2/include/c++/4.9.2/bits/stl_algobase.h **** 
 203:/opt/gcc/4.9.2/include/c++/4.9.2/bits/stl_algobase.h ****   /**
 204:/opt/gcc/4.9.2/include/c++/4.9.2/bits/stl_algobase.h ****    *  @brief This does what you think it does.
 205:/opt/gcc/4.9.2/include/c++/4.9.2/bits/stl_algobase.h ****    *  @ingroup sorting_algorithms
 206:/opt/gcc/4.9.2/include/c++/4.9.2/bits/stl_algobase.h ****    *  @param  __a  A thing of arbitrary type.
 207:/opt/gcc/4.9.2/include/c++/4.9.2/bits/stl_algobase.h ****    *  @param  __b  Another thing of arbitrary type.
 208:/opt/gcc/4.9.2/include/c++/4.9.2/bits/stl_algobase.h ****    *  @return   The greater of the parameters.
 209:/opt/gcc/4.9.2/include/c++/4.9.2/bits/stl_algobase.h ****    *
 210:/opt/gcc/4.9.2/include/c++/4.9.2/bits/stl_algobase.h ****    *  This is the simple classic generic implementation.  It will work on
 211:/opt/gcc/4.9.2/include/c++/4.9.2/bits/stl_algobase.h ****    *  temporary expressions, since they are only evaluated once, unlike a
 212:/opt/gcc/4.9.2/include/c++/4.9.2/bits/stl_algobase.h ****    *  preprocessor macro.
 213:/opt/gcc/4.9.2/include/c++/4.9.2/bits/stl_algobase.h ****   */
 214:/opt/gcc/4.9.2/include/c++/4.9.2/bits/stl_algobase.h ****   template<typename _Tp>
 215:/opt/gcc/4.9.2/include/c++/4.9.2/bits/stl_algobase.h ****     inline const _Tp&
 216:/opt/gcc/4.9.2/include/c++/4.9.2/bits/stl_algobase.h ****     max(const _Tp& __a, const _Tp& __b)
 217:/opt/gcc/4.9.2/include/c++/4.9.2/bits/stl_algobase.h ****     {
 218:/opt/gcc/4.9.2/include/c++/4.9.2/bits/stl_algobase.h ****       // concept requirements
 219:/opt/gcc/4.9.2/include/c++/4.9.2/bits/stl_algobase.h ****       __glibcxx_function_requires(_LessThanComparableConcept<_Tp>)
 220:/opt/gcc/4.9.2/include/c++/4.9.2/bits/stl_algobase.h ****       //return  __a < __b ? __b : __a;
 221:/opt/gcc/4.9.2/include/c++/4.9.2/bits/stl_algobase.h ****       if (__a < __b)
 222:/opt/gcc/4.9.2/include/c++/4.9.2/bits/stl_algobase.h **** 	return __b;
 223:/opt/gcc/4.9.2/include/c++/4.9.2/bits/stl_algobase.h ****       return __a;
 224:/opt/gcc/4.9.2/include/c++/4.9.2/bits/stl_algobase.h ****     }
 225:/opt/gcc/4.9.2/include/c++/4.9.2/bits/stl_algobase.h **** 
 226:/opt/gcc/4.9.2/include/c++/4.9.2/bits/stl_algobase.h ****   /**
 227:/opt/gcc/4.9.2/include/c++/4.9.2/bits/stl_algobase.h ****    *  @brief This does what you think it does.
 228:/opt/gcc/4.9.2/include/c++/4.9.2/bits/stl_algobase.h ****    *  @ingroup sorting_algorithms
 229:/opt/gcc/4.9.2/include/c++/4.9.2/bits/stl_algobase.h ****    *  @param  __a  A thing of arbitrary type.
 230:/opt/gcc/4.9.2/include/c++/4.9.2/bits/stl_algobase.h ****    *  @param  __b  Another thing of arbitrary type.
 231:/opt/gcc/4.9.2/include/c++/4.9.2/bits/stl_algobase.h ****    *  @param  __comp  A @link comparison_functors comparison functor@endlink.
 232:/opt/gcc/4.9.2/include/c++/4.9.2/bits/stl_algobase.h ****    *  @return   The lesser of the parameters.
 233:/opt/gcc/4.9.2/include/c++/4.9.2/bits/stl_algobase.h ****    *
 234:/opt/gcc/4.9.2/include/c++/4.9.2/bits/stl_algobase.h ****    *  This will work on temporary expressions, since they are only evaluated
 235:/opt/gcc/4.9.2/include/c++/4.9.2/bits/stl_algobase.h ****    *  once, unlike a preprocessor macro.
 236:/opt/gcc/4.9.2/include/c++/4.9.2/bits/stl_algobase.h ****   */
 237:/opt/gcc/4.9.2/include/c++/4.9.2/bits/stl_algobase.h ****   template<typename _Tp, typename _Compare>
 238:/opt/gcc/4.9.2/include/c++/4.9.2/bits/stl_algobase.h ****     inline const _Tp&
 239:/opt/gcc/4.9.2/include/c++/4.9.2/bits/stl_algobase.h ****     min(const _Tp& __a, const _Tp& __b, _Compare __comp)
 240:/opt/gcc/4.9.2/include/c++/4.9.2/bits/stl_algobase.h ****     {
 241:/opt/gcc/4.9.2/include/c++/4.9.2/bits/stl_algobase.h ****       //return __comp(__b, __a) ? __b : __a;
 242:/opt/gcc/4.9.2/include/c++/4.9.2/bits/stl_algobase.h ****       if (__comp(__b, __a))
 243:/opt/gcc/4.9.2/include/c++/4.9.2/bits/stl_algobase.h **** 	return __b;
 244:/opt/gcc/4.9.2/include/c++/4.9.2/bits/stl_algobase.h ****       return __a;
 245:/opt/gcc/4.9.2/include/c++/4.9.2/bits/stl_algobase.h ****     }
 246:/opt/gcc/4.9.2/include/c++/4.9.2/bits/stl_algobase.h **** 
 247:/opt/gcc/4.9.2/include/c++/4.9.2/bits/stl_algobase.h ****   /**
 248:/opt/gcc/4.9.2/include/c++/4.9.2/bits/stl_algobase.h ****    *  @brief This does what you think it does.
 249:/opt/gcc/4.9.2/include/c++/4.9.2/bits/stl_algobase.h ****    *  @ingroup sorting_algorithms
 250:/opt/gcc/4.9.2/include/c++/4.9.2/bits/stl_algobase.h ****    *  @param  __a  A thing of arbitrary type.
 251:/opt/gcc/4.9.2/include/c++/4.9.2/bits/stl_algobase.h ****    *  @param  __b  Another thing of arbitrary type.
 252:/opt/gcc/4.9.2/include/c++/4.9.2/bits/stl_algobase.h ****    *  @param  __comp  A @link comparison_functors comparison functor@endlink.
 253:/opt/gcc/4.9.2/include/c++/4.9.2/bits/stl_algobase.h ****    *  @return   The greater of the parameters.
GAS LISTING /tmp/ccKUqHDa.s 			page 25


 254:/opt/gcc/4.9.2/include/c++/4.9.2/bits/stl_algobase.h ****    *
 255:/opt/gcc/4.9.2/include/c++/4.9.2/bits/stl_algobase.h ****    *  This will work on temporary expressions, since they are only evaluated
 256:/opt/gcc/4.9.2/include/c++/4.9.2/bits/stl_algobase.h ****    *  once, unlike a preprocessor macro.
 257:/opt/gcc/4.9.2/include/c++/4.9.2/bits/stl_algobase.h ****   */
 258:/opt/gcc/4.9.2/include/c++/4.9.2/bits/stl_algobase.h ****   template<typename _Tp, typename _Compare>
 259:/opt/gcc/4.9.2/include/c++/4.9.2/bits/stl_algobase.h ****     inline const _Tp&
 260:/opt/gcc/4.9.2/include/c++/4.9.2/bits/stl_algobase.h ****     max(const _Tp& __a, const _Tp& __b, _Compare __comp)
 261:/opt/gcc/4.9.2/include/c++/4.9.2/bits/stl_algobase.h ****     {
 262:/opt/gcc/4.9.2/include/c++/4.9.2/bits/stl_algobase.h ****       //return __comp(__a, __b) ? __b : __a;
 263:/opt/gcc/4.9.2/include/c++/4.9.2/bits/stl_algobase.h ****       if (__comp(__a, __b))
 264:/opt/gcc/4.9.2/include/c++/4.9.2/bits/stl_algobase.h **** 	return __b;
 265:/opt/gcc/4.9.2/include/c++/4.9.2/bits/stl_algobase.h ****       return __a;
 266:/opt/gcc/4.9.2/include/c++/4.9.2/bits/stl_algobase.h ****     }
 267:/opt/gcc/4.9.2/include/c++/4.9.2/bits/stl_algobase.h **** 
 268:/opt/gcc/4.9.2/include/c++/4.9.2/bits/stl_algobase.h ****   // If _Iterator is a __normal_iterator return its base (a plain pointer,
 269:/opt/gcc/4.9.2/include/c++/4.9.2/bits/stl_algobase.h ****   // normally) otherwise return it untouched.  See copy, fill, ... 
 270:/opt/gcc/4.9.2/include/c++/4.9.2/bits/stl_algobase.h ****   template<typename _Iterator>
 271:/opt/gcc/4.9.2/include/c++/4.9.2/bits/stl_algobase.h ****     struct _Niter_base
 272:/opt/gcc/4.9.2/include/c++/4.9.2/bits/stl_algobase.h ****     : _Iter_base<_Iterator, __is_normal_iterator<_Iterator>::__value>
 273:/opt/gcc/4.9.2/include/c++/4.9.2/bits/stl_algobase.h ****     { };
 274:/opt/gcc/4.9.2/include/c++/4.9.2/bits/stl_algobase.h **** 
 275:/opt/gcc/4.9.2/include/c++/4.9.2/bits/stl_algobase.h ****   template<typename _Iterator>
 276:/opt/gcc/4.9.2/include/c++/4.9.2/bits/stl_algobase.h ****     inline typename _Niter_base<_Iterator>::iterator_type
 277:/opt/gcc/4.9.2/include/c++/4.9.2/bits/stl_algobase.h ****     __niter_base(_Iterator __it)
 278:/opt/gcc/4.9.2/include/c++/4.9.2/bits/stl_algobase.h ****     { return std::_Niter_base<_Iterator>::_S_base(__it); }
 279:/opt/gcc/4.9.2/include/c++/4.9.2/bits/stl_algobase.h **** 
 280:/opt/gcc/4.9.2/include/c++/4.9.2/bits/stl_algobase.h ****   // Likewise, for move_iterator.
 281:/opt/gcc/4.9.2/include/c++/4.9.2/bits/stl_algobase.h ****   template<typename _Iterator>
 282:/opt/gcc/4.9.2/include/c++/4.9.2/bits/stl_algobase.h ****     struct _Miter_base
 283:/opt/gcc/4.9.2/include/c++/4.9.2/bits/stl_algobase.h ****     : _Iter_base<_Iterator, __is_move_iterator<_Iterator>::__value>
 284:/opt/gcc/4.9.2/include/c++/4.9.2/bits/stl_algobase.h ****     { };
 285:/opt/gcc/4.9.2/include/c++/4.9.2/bits/stl_algobase.h **** 
 286:/opt/gcc/4.9.2/include/c++/4.9.2/bits/stl_algobase.h ****   template<typename _Iterator>
 287:/opt/gcc/4.9.2/include/c++/4.9.2/bits/stl_algobase.h ****     inline typename _Miter_base<_Iterator>::iterator_type
 288:/opt/gcc/4.9.2/include/c++/4.9.2/bits/stl_algobase.h ****     __miter_base(_Iterator __it)
 289:/opt/gcc/4.9.2/include/c++/4.9.2/bits/stl_algobase.h ****     { return std::_Miter_base<_Iterator>::_S_base(__it); }
 290:/opt/gcc/4.9.2/include/c++/4.9.2/bits/stl_algobase.h **** 
 291:/opt/gcc/4.9.2/include/c++/4.9.2/bits/stl_algobase.h ****   // All of these auxiliary structs serve two purposes.  (1) Replace
 292:/opt/gcc/4.9.2/include/c++/4.9.2/bits/stl_algobase.h ****   // calls to copy with memmove whenever possible.  (Memmove, not memcpy,
 293:/opt/gcc/4.9.2/include/c++/4.9.2/bits/stl_algobase.h ****   // because the input and output ranges are permitted to overlap.)
 294:/opt/gcc/4.9.2/include/c++/4.9.2/bits/stl_algobase.h ****   // (2) If we're using random access iterators, then write the loop as
 295:/opt/gcc/4.9.2/include/c++/4.9.2/bits/stl_algobase.h ****   // a for loop with an explicit count.
 296:/opt/gcc/4.9.2/include/c++/4.9.2/bits/stl_algobase.h **** 
 297:/opt/gcc/4.9.2/include/c++/4.9.2/bits/stl_algobase.h ****   template<bool, bool, typename>
 298:/opt/gcc/4.9.2/include/c++/4.9.2/bits/stl_algobase.h ****     struct __copy_move
 299:/opt/gcc/4.9.2/include/c++/4.9.2/bits/stl_algobase.h ****     {
 300:/opt/gcc/4.9.2/include/c++/4.9.2/bits/stl_algobase.h ****       template<typename _II, typename _OI>
 301:/opt/gcc/4.9.2/include/c++/4.9.2/bits/stl_algobase.h ****         static _OI
 302:/opt/gcc/4.9.2/include/c++/4.9.2/bits/stl_algobase.h ****         __copy_m(_II __first, _II __last, _OI __result)
 303:/opt/gcc/4.9.2/include/c++/4.9.2/bits/stl_algobase.h ****         {
 304:/opt/gcc/4.9.2/include/c++/4.9.2/bits/stl_algobase.h **** 	  for (; __first != __last; ++__result, ++__first)
 305:/opt/gcc/4.9.2/include/c++/4.9.2/bits/stl_algobase.h **** 	    *__result = *__first;
 306:/opt/gcc/4.9.2/include/c++/4.9.2/bits/stl_algobase.h **** 	  return __result;
 307:/opt/gcc/4.9.2/include/c++/4.9.2/bits/stl_algobase.h **** 	}
 308:/opt/gcc/4.9.2/include/c++/4.9.2/bits/stl_algobase.h ****     };
 309:/opt/gcc/4.9.2/include/c++/4.9.2/bits/stl_algobase.h **** 
 310:/opt/gcc/4.9.2/include/c++/4.9.2/bits/stl_algobase.h **** #if __cplusplus >= 201103L
GAS LISTING /tmp/ccKUqHDa.s 			page 26


 311:/opt/gcc/4.9.2/include/c++/4.9.2/bits/stl_algobase.h ****   template<typename _Category>
 312:/opt/gcc/4.9.2/include/c++/4.9.2/bits/stl_algobase.h ****     struct __copy_move<true, false, _Category>
 313:/opt/gcc/4.9.2/include/c++/4.9.2/bits/stl_algobase.h ****     {
 314:/opt/gcc/4.9.2/include/c++/4.9.2/bits/stl_algobase.h ****       template<typename _II, typename _OI>
 315:/opt/gcc/4.9.2/include/c++/4.9.2/bits/stl_algobase.h ****         static _OI
 316:/opt/gcc/4.9.2/include/c++/4.9.2/bits/stl_algobase.h ****         __copy_m(_II __first, _II __last, _OI __result)
 317:/opt/gcc/4.9.2/include/c++/4.9.2/bits/stl_algobase.h ****         {
 318:/opt/gcc/4.9.2/include/c++/4.9.2/bits/stl_algobase.h **** 	  for (; __first != __last; ++__result, ++__first)
 319:/opt/gcc/4.9.2/include/c++/4.9.2/bits/stl_algobase.h **** 	    *__result = std::move(*__first);
 320:/opt/gcc/4.9.2/include/c++/4.9.2/bits/stl_algobase.h **** 	  return __result;
 321:/opt/gcc/4.9.2/include/c++/4.9.2/bits/stl_algobase.h **** 	}
 322:/opt/gcc/4.9.2/include/c++/4.9.2/bits/stl_algobase.h ****     };
 323:/opt/gcc/4.9.2/include/c++/4.9.2/bits/stl_algobase.h **** #endif
 324:/opt/gcc/4.9.2/include/c++/4.9.2/bits/stl_algobase.h **** 
 325:/opt/gcc/4.9.2/include/c++/4.9.2/bits/stl_algobase.h ****   template<>
 326:/opt/gcc/4.9.2/include/c++/4.9.2/bits/stl_algobase.h ****     struct __copy_move<false, false, random_access_iterator_tag>
 327:/opt/gcc/4.9.2/include/c++/4.9.2/bits/stl_algobase.h ****     {
 328:/opt/gcc/4.9.2/include/c++/4.9.2/bits/stl_algobase.h ****       template<typename _II, typename _OI>
 329:/opt/gcc/4.9.2/include/c++/4.9.2/bits/stl_algobase.h ****         static _OI
 330:/opt/gcc/4.9.2/include/c++/4.9.2/bits/stl_algobase.h ****         __copy_m(_II __first, _II __last, _OI __result)
 331:/opt/gcc/4.9.2/include/c++/4.9.2/bits/stl_algobase.h ****         { 
 332:/opt/gcc/4.9.2/include/c++/4.9.2/bits/stl_algobase.h **** 	  typedef typename iterator_traits<_II>::difference_type _Distance;
 333:/opt/gcc/4.9.2/include/c++/4.9.2/bits/stl_algobase.h **** 	  for(_Distance __n = __last - __first; __n > 0; --__n)
 334:/opt/gcc/4.9.2/include/c++/4.9.2/bits/stl_algobase.h **** 	    {
 335:/opt/gcc/4.9.2/include/c++/4.9.2/bits/stl_algobase.h **** 	      *__result = *__first;
 336:/opt/gcc/4.9.2/include/c++/4.9.2/bits/stl_algobase.h **** 	      ++__first;
 337:/opt/gcc/4.9.2/include/c++/4.9.2/bits/stl_algobase.h **** 	      ++__result;
 338:/opt/gcc/4.9.2/include/c++/4.9.2/bits/stl_algobase.h **** 	    }
 339:/opt/gcc/4.9.2/include/c++/4.9.2/bits/stl_algobase.h **** 	  return __result;
 340:/opt/gcc/4.9.2/include/c++/4.9.2/bits/stl_algobase.h **** 	}
 341:/opt/gcc/4.9.2/include/c++/4.9.2/bits/stl_algobase.h ****     };
 342:/opt/gcc/4.9.2/include/c++/4.9.2/bits/stl_algobase.h **** 
 343:/opt/gcc/4.9.2/include/c++/4.9.2/bits/stl_algobase.h **** #if __cplusplus >= 201103L
 344:/opt/gcc/4.9.2/include/c++/4.9.2/bits/stl_algobase.h ****   template<>
 345:/opt/gcc/4.9.2/include/c++/4.9.2/bits/stl_algobase.h ****     struct __copy_move<true, false, random_access_iterator_tag>
 346:/opt/gcc/4.9.2/include/c++/4.9.2/bits/stl_algobase.h ****     {
 347:/opt/gcc/4.9.2/include/c++/4.9.2/bits/stl_algobase.h ****       template<typename _II, typename _OI>
 348:/opt/gcc/4.9.2/include/c++/4.9.2/bits/stl_algobase.h ****         static _OI
 349:/opt/gcc/4.9.2/include/c++/4.9.2/bits/stl_algobase.h ****         __copy_m(_II __first, _II __last, _OI __result)
 350:/opt/gcc/4.9.2/include/c++/4.9.2/bits/stl_algobase.h ****         { 
 351:/opt/gcc/4.9.2/include/c++/4.9.2/bits/stl_algobase.h **** 	  typedef typename iterator_traits<_II>::difference_type _Distance;
 352:/opt/gcc/4.9.2/include/c++/4.9.2/bits/stl_algobase.h **** 	  for(_Distance __n = __last - __first; __n > 0; --__n)
 353:/opt/gcc/4.9.2/include/c++/4.9.2/bits/stl_algobase.h **** 	    {
 354:/opt/gcc/4.9.2/include/c++/4.9.2/bits/stl_algobase.h **** 	      *__result = std::move(*__first);
 355:/opt/gcc/4.9.2/include/c++/4.9.2/bits/stl_algobase.h **** 	      ++__first;
 356:/opt/gcc/4.9.2/include/c++/4.9.2/bits/stl_algobase.h **** 	      ++__result;
 357:/opt/gcc/4.9.2/include/c++/4.9.2/bits/stl_algobase.h **** 	    }
 358:/opt/gcc/4.9.2/include/c++/4.9.2/bits/stl_algobase.h **** 	  return __result;
 359:/opt/gcc/4.9.2/include/c++/4.9.2/bits/stl_algobase.h **** 	}
 360:/opt/gcc/4.9.2/include/c++/4.9.2/bits/stl_algobase.h ****     };
 361:/opt/gcc/4.9.2/include/c++/4.9.2/bits/stl_algobase.h **** #endif
 362:/opt/gcc/4.9.2/include/c++/4.9.2/bits/stl_algobase.h **** 
 363:/opt/gcc/4.9.2/include/c++/4.9.2/bits/stl_algobase.h ****   template<bool _IsMove>
 364:/opt/gcc/4.9.2/include/c++/4.9.2/bits/stl_algobase.h ****     struct __copy_move<_IsMove, true, random_access_iterator_tag>
 365:/opt/gcc/4.9.2/include/c++/4.9.2/bits/stl_algobase.h ****     {
 366:/opt/gcc/4.9.2/include/c++/4.9.2/bits/stl_algobase.h ****       template<typename _Tp>
 367:/opt/gcc/4.9.2/include/c++/4.9.2/bits/stl_algobase.h ****         static _Tp*
GAS LISTING /tmp/ccKUqHDa.s 			page 27


 368:/opt/gcc/4.9.2/include/c++/4.9.2/bits/stl_algobase.h ****         __copy_m(const _Tp* __first, const _Tp* __last, _Tp* __result)
 369:/opt/gcc/4.9.2/include/c++/4.9.2/bits/stl_algobase.h ****         {
 370:/opt/gcc/4.9.2/include/c++/4.9.2/bits/stl_algobase.h **** #if __cplusplus >= 201103L
 371:/opt/gcc/4.9.2/include/c++/4.9.2/bits/stl_algobase.h **** 	  // trivial types can have deleted assignment
 372:/opt/gcc/4.9.2/include/c++/4.9.2/bits/stl_algobase.h **** 	  static_assert( is_copy_assignable<_Tp>::value,
 373:/opt/gcc/4.9.2/include/c++/4.9.2/bits/stl_algobase.h **** 	                 "type is not assignable" );
 374:/opt/gcc/4.9.2/include/c++/4.9.2/bits/stl_algobase.h **** #endif
 375:/opt/gcc/4.9.2/include/c++/4.9.2/bits/stl_algobase.h **** 	  const ptrdiff_t _Num = __last - __first;
 376:/opt/gcc/4.9.2/include/c++/4.9.2/bits/stl_algobase.h **** 	  if (_Num)
 377:/opt/gcc/4.9.2/include/c++/4.9.2/bits/stl_algobase.h **** 	    __builtin_memmove(__result, __first, sizeof(_Tp) * _Num);
 378:/opt/gcc/4.9.2/include/c++/4.9.2/bits/stl_algobase.h **** 	  return __result + _Num;
 379:/opt/gcc/4.9.2/include/c++/4.9.2/bits/stl_algobase.h **** 	}
 380:/opt/gcc/4.9.2/include/c++/4.9.2/bits/stl_algobase.h ****     };
 381:/opt/gcc/4.9.2/include/c++/4.9.2/bits/stl_algobase.h **** 
 382:/opt/gcc/4.9.2/include/c++/4.9.2/bits/stl_algobase.h ****   template<bool _IsMove, typename _II, typename _OI>
 383:/opt/gcc/4.9.2/include/c++/4.9.2/bits/stl_algobase.h ****     inline _OI
 384:/opt/gcc/4.9.2/include/c++/4.9.2/bits/stl_algobase.h ****     __copy_move_a(_II __first, _II __last, _OI __result)
 385:/opt/gcc/4.9.2/include/c++/4.9.2/bits/stl_algobase.h ****     {
 386:/opt/gcc/4.9.2/include/c++/4.9.2/bits/stl_algobase.h ****       typedef typename iterator_traits<_II>::value_type _ValueTypeI;
 387:/opt/gcc/4.9.2/include/c++/4.9.2/bits/stl_algobase.h ****       typedef typename iterator_traits<_OI>::value_type _ValueTypeO;
 388:/opt/gcc/4.9.2/include/c++/4.9.2/bits/stl_algobase.h ****       typedef typename iterator_traits<_II>::iterator_category _Category;
 389:/opt/gcc/4.9.2/include/c++/4.9.2/bits/stl_algobase.h ****       const bool __simple = (__is_trivial(_ValueTypeI)
 390:/opt/gcc/4.9.2/include/c++/4.9.2/bits/stl_algobase.h **** 	                     && __is_pointer<_II>::__value
 391:/opt/gcc/4.9.2/include/c++/4.9.2/bits/stl_algobase.h **** 	                     && __is_pointer<_OI>::__value
 392:/opt/gcc/4.9.2/include/c++/4.9.2/bits/stl_algobase.h **** 			     && __are_same<_ValueTypeI, _ValueTypeO>::__value);
 393:/opt/gcc/4.9.2/include/c++/4.9.2/bits/stl_algobase.h **** 
 394:/opt/gcc/4.9.2/include/c++/4.9.2/bits/stl_algobase.h ****       return std::__copy_move<_IsMove, __simple,
 395:/opt/gcc/4.9.2/include/c++/4.9.2/bits/stl_algobase.h **** 	                      _Category>::__copy_m(__first, __last, __result);
 396:/opt/gcc/4.9.2/include/c++/4.9.2/bits/stl_algobase.h ****     }
 397:/opt/gcc/4.9.2/include/c++/4.9.2/bits/stl_algobase.h **** 
 398:/opt/gcc/4.9.2/include/c++/4.9.2/bits/stl_algobase.h ****   // Helpers for streambuf iterators (either istream or ostream).
 399:/opt/gcc/4.9.2/include/c++/4.9.2/bits/stl_algobase.h ****   // NB: avoid including <iosfwd>, relatively large.
 400:/opt/gcc/4.9.2/include/c++/4.9.2/bits/stl_algobase.h ****   template<typename _CharT>
 401:/opt/gcc/4.9.2/include/c++/4.9.2/bits/stl_algobase.h ****     struct char_traits;
 402:/opt/gcc/4.9.2/include/c++/4.9.2/bits/stl_algobase.h **** 
 403:/opt/gcc/4.9.2/include/c++/4.9.2/bits/stl_algobase.h ****   template<typename _CharT, typename _Traits>
 404:/opt/gcc/4.9.2/include/c++/4.9.2/bits/stl_algobase.h ****     class istreambuf_iterator;
 405:/opt/gcc/4.9.2/include/c++/4.9.2/bits/stl_algobase.h **** 
 406:/opt/gcc/4.9.2/include/c++/4.9.2/bits/stl_algobase.h ****   template<typename _CharT, typename _Traits>
 407:/opt/gcc/4.9.2/include/c++/4.9.2/bits/stl_algobase.h ****     class ostreambuf_iterator;
 408:/opt/gcc/4.9.2/include/c++/4.9.2/bits/stl_algobase.h **** 
 409:/opt/gcc/4.9.2/include/c++/4.9.2/bits/stl_algobase.h ****   template<bool _IsMove, typename _CharT>
 410:/opt/gcc/4.9.2/include/c++/4.9.2/bits/stl_algobase.h ****     typename __gnu_cxx::__enable_if<__is_char<_CharT>::__value, 
 411:/opt/gcc/4.9.2/include/c++/4.9.2/bits/stl_algobase.h **** 	     ostreambuf_iterator<_CharT, char_traits<_CharT> > >::__type
 412:/opt/gcc/4.9.2/include/c++/4.9.2/bits/stl_algobase.h ****     __copy_move_a2(_CharT*, _CharT*,
 413:/opt/gcc/4.9.2/include/c++/4.9.2/bits/stl_algobase.h **** 		   ostreambuf_iterator<_CharT, char_traits<_CharT> >);
 414:/opt/gcc/4.9.2/include/c++/4.9.2/bits/stl_algobase.h **** 
 415:/opt/gcc/4.9.2/include/c++/4.9.2/bits/stl_algobase.h ****   template<bool _IsMove, typename _CharT>
 416:/opt/gcc/4.9.2/include/c++/4.9.2/bits/stl_algobase.h ****     typename __gnu_cxx::__enable_if<__is_char<_CharT>::__value, 
 417:/opt/gcc/4.9.2/include/c++/4.9.2/bits/stl_algobase.h **** 	     ostreambuf_iterator<_CharT, char_traits<_CharT> > >::__type
 418:/opt/gcc/4.9.2/include/c++/4.9.2/bits/stl_algobase.h ****     __copy_move_a2(const _CharT*, const _CharT*,
 419:/opt/gcc/4.9.2/include/c++/4.9.2/bits/stl_algobase.h **** 		   ostreambuf_iterator<_CharT, char_traits<_CharT> >);
 420:/opt/gcc/4.9.2/include/c++/4.9.2/bits/stl_algobase.h **** 
 421:/opt/gcc/4.9.2/include/c++/4.9.2/bits/stl_algobase.h ****   template<bool _IsMove, typename _CharT>
 422:/opt/gcc/4.9.2/include/c++/4.9.2/bits/stl_algobase.h ****     typename __gnu_cxx::__enable_if<__is_char<_CharT>::__value,
 423:/opt/gcc/4.9.2/include/c++/4.9.2/bits/stl_algobase.h **** 				    _CharT*>::__type
 424:/opt/gcc/4.9.2/include/c++/4.9.2/bits/stl_algobase.h ****     __copy_move_a2(istreambuf_iterator<_CharT, char_traits<_CharT> >,
GAS LISTING /tmp/ccKUqHDa.s 			page 28


 425:/opt/gcc/4.9.2/include/c++/4.9.2/bits/stl_algobase.h **** 		   istreambuf_iterator<_CharT, char_traits<_CharT> >, _CharT*);
 426:/opt/gcc/4.9.2/include/c++/4.9.2/bits/stl_algobase.h **** 
 427:/opt/gcc/4.9.2/include/c++/4.9.2/bits/stl_algobase.h ****   template<bool _IsMove, typename _II, typename _OI>
 428:/opt/gcc/4.9.2/include/c++/4.9.2/bits/stl_algobase.h ****     inline _OI
 429:/opt/gcc/4.9.2/include/c++/4.9.2/bits/stl_algobase.h ****     __copy_move_a2(_II __first, _II __last, _OI __result)
 430:/opt/gcc/4.9.2/include/c++/4.9.2/bits/stl_algobase.h ****     {
 431:/opt/gcc/4.9.2/include/c++/4.9.2/bits/stl_algobase.h ****       return _OI(std::__copy_move_a<_IsMove>(std::__niter_base(__first),
 432:/opt/gcc/4.9.2/include/c++/4.9.2/bits/stl_algobase.h **** 					     std::__niter_base(__last),
 433:/opt/gcc/4.9.2/include/c++/4.9.2/bits/stl_algobase.h **** 					     std::__niter_base(__result)));
 434:/opt/gcc/4.9.2/include/c++/4.9.2/bits/stl_algobase.h ****     }
 435:/opt/gcc/4.9.2/include/c++/4.9.2/bits/stl_algobase.h **** 
 436:/opt/gcc/4.9.2/include/c++/4.9.2/bits/stl_algobase.h ****   /**
 437:/opt/gcc/4.9.2/include/c++/4.9.2/bits/stl_algobase.h ****    *  @brief Copies the range [first,last) into result.
 438:/opt/gcc/4.9.2/include/c++/4.9.2/bits/stl_algobase.h ****    *  @ingroup mutating_algorithms
 439:/opt/gcc/4.9.2/include/c++/4.9.2/bits/stl_algobase.h ****    *  @param  __first  An input iterator.
 440:/opt/gcc/4.9.2/include/c++/4.9.2/bits/stl_algobase.h ****    *  @param  __last   An input iterator.
 441:/opt/gcc/4.9.2/include/c++/4.9.2/bits/stl_algobase.h ****    *  @param  __result An output iterator.
 442:/opt/gcc/4.9.2/include/c++/4.9.2/bits/stl_algobase.h ****    *  @return   result + (first - last)
 443:/opt/gcc/4.9.2/include/c++/4.9.2/bits/stl_algobase.h ****    *
 444:/opt/gcc/4.9.2/include/c++/4.9.2/bits/stl_algobase.h ****    *  This inline function will boil down to a call to @c memmove whenever
 445:/opt/gcc/4.9.2/include/c++/4.9.2/bits/stl_algobase.h ****    *  possible.  Failing that, if random access iterators are passed, then the
 446:/opt/gcc/4.9.2/include/c++/4.9.2/bits/stl_algobase.h ****    *  loop count will be known (and therefore a candidate for compiler
 447:/opt/gcc/4.9.2/include/c++/4.9.2/bits/stl_algobase.h ****    *  optimizations such as unrolling).  Result may not be contained within
 448:/opt/gcc/4.9.2/include/c++/4.9.2/bits/stl_algobase.h ****    *  [first,last); the copy_backward function should be used instead.
 449:/opt/gcc/4.9.2/include/c++/4.9.2/bits/stl_algobase.h ****    *
 450:/opt/gcc/4.9.2/include/c++/4.9.2/bits/stl_algobase.h ****    *  Note that the end of the output range is permitted to be contained
 451:/opt/gcc/4.9.2/include/c++/4.9.2/bits/stl_algobase.h ****    *  within [first,last).
 452:/opt/gcc/4.9.2/include/c++/4.9.2/bits/stl_algobase.h ****   */
 453:/opt/gcc/4.9.2/include/c++/4.9.2/bits/stl_algobase.h ****   template<typename _II, typename _OI>
 454:/opt/gcc/4.9.2/include/c++/4.9.2/bits/stl_algobase.h ****     inline _OI
 455:/opt/gcc/4.9.2/include/c++/4.9.2/bits/stl_algobase.h ****     copy(_II __first, _II __last, _OI __result)
 456:/opt/gcc/4.9.2/include/c++/4.9.2/bits/stl_algobase.h ****     {
 457:/opt/gcc/4.9.2/include/c++/4.9.2/bits/stl_algobase.h ****       // concept requirements
 458:/opt/gcc/4.9.2/include/c++/4.9.2/bits/stl_algobase.h ****       __glibcxx_function_requires(_InputIteratorConcept<_II>)
 459:/opt/gcc/4.9.2/include/c++/4.9.2/bits/stl_algobase.h ****       __glibcxx_function_requires(_OutputIteratorConcept<_OI,
 460:/opt/gcc/4.9.2/include/c++/4.9.2/bits/stl_algobase.h **** 	    typename iterator_traits<_II>::value_type>)
 461:/opt/gcc/4.9.2/include/c++/4.9.2/bits/stl_algobase.h ****       __glibcxx_requires_valid_range(__first, __last);
 462:/opt/gcc/4.9.2/include/c++/4.9.2/bits/stl_algobase.h **** 
 463:/opt/gcc/4.9.2/include/c++/4.9.2/bits/stl_algobase.h ****       return (std::__copy_move_a2<__is_move_iterator<_II>::__value>
 464:/opt/gcc/4.9.2/include/c++/4.9.2/bits/stl_algobase.h **** 	      (std::__miter_base(__first), std::__miter_base(__last),
 465:/opt/gcc/4.9.2/include/c++/4.9.2/bits/stl_algobase.h **** 	       __result));
 466:/opt/gcc/4.9.2/include/c++/4.9.2/bits/stl_algobase.h ****     }
 467:/opt/gcc/4.9.2/include/c++/4.9.2/bits/stl_algobase.h **** 
 468:/opt/gcc/4.9.2/include/c++/4.9.2/bits/stl_algobase.h **** #if __cplusplus >= 201103L
 469:/opt/gcc/4.9.2/include/c++/4.9.2/bits/stl_algobase.h ****   /**
 470:/opt/gcc/4.9.2/include/c++/4.9.2/bits/stl_algobase.h ****    *  @brief Moves the range [first,last) into result.
 471:/opt/gcc/4.9.2/include/c++/4.9.2/bits/stl_algobase.h ****    *  @ingroup mutating_algorithms
 472:/opt/gcc/4.9.2/include/c++/4.9.2/bits/stl_algobase.h ****    *  @param  __first  An input iterator.
 473:/opt/gcc/4.9.2/include/c++/4.9.2/bits/stl_algobase.h ****    *  @param  __last   An input iterator.
 474:/opt/gcc/4.9.2/include/c++/4.9.2/bits/stl_algobase.h ****    *  @param  __result An output iterator.
 475:/opt/gcc/4.9.2/include/c++/4.9.2/bits/stl_algobase.h ****    *  @return   result + (first - last)
 476:/opt/gcc/4.9.2/include/c++/4.9.2/bits/stl_algobase.h ****    *
 477:/opt/gcc/4.9.2/include/c++/4.9.2/bits/stl_algobase.h ****    *  This inline function will boil down to a call to @c memmove whenever
 478:/opt/gcc/4.9.2/include/c++/4.9.2/bits/stl_algobase.h ****    *  possible.  Failing that, if random access iterators are passed, then the
 479:/opt/gcc/4.9.2/include/c++/4.9.2/bits/stl_algobase.h ****    *  loop count will be known (and therefore a candidate for compiler
 480:/opt/gcc/4.9.2/include/c++/4.9.2/bits/stl_algobase.h ****    *  optimizations such as unrolling).  Result may not be contained within
 481:/opt/gcc/4.9.2/include/c++/4.9.2/bits/stl_algobase.h ****    *  [first,last); the move_backward function should be used instead.
GAS LISTING /tmp/ccKUqHDa.s 			page 29


 482:/opt/gcc/4.9.2/include/c++/4.9.2/bits/stl_algobase.h ****    *
 483:/opt/gcc/4.9.2/include/c++/4.9.2/bits/stl_algobase.h ****    *  Note that the end of the output range is permitted to be contained
 484:/opt/gcc/4.9.2/include/c++/4.9.2/bits/stl_algobase.h ****    *  within [first,last).
 485:/opt/gcc/4.9.2/include/c++/4.9.2/bits/stl_algobase.h ****   */
 486:/opt/gcc/4.9.2/include/c++/4.9.2/bits/stl_algobase.h ****   template<typename _II, typename _OI>
 487:/opt/gcc/4.9.2/include/c++/4.9.2/bits/stl_algobase.h ****     inline _OI
 488:/opt/gcc/4.9.2/include/c++/4.9.2/bits/stl_algobase.h ****     move(_II __first, _II __last, _OI __result)
 489:/opt/gcc/4.9.2/include/c++/4.9.2/bits/stl_algobase.h ****     {
 490:/opt/gcc/4.9.2/include/c++/4.9.2/bits/stl_algobase.h ****       // concept requirements
 491:/opt/gcc/4.9.2/include/c++/4.9.2/bits/stl_algobase.h ****       __glibcxx_function_requires(_InputIteratorConcept<_II>)
 492:/opt/gcc/4.9.2/include/c++/4.9.2/bits/stl_algobase.h ****       __glibcxx_function_requires(_OutputIteratorConcept<_OI,
 493:/opt/gcc/4.9.2/include/c++/4.9.2/bits/stl_algobase.h **** 	    typename iterator_traits<_II>::value_type>)
 494:/opt/gcc/4.9.2/include/c++/4.9.2/bits/stl_algobase.h ****       __glibcxx_requires_valid_range(__first, __last);
 495:/opt/gcc/4.9.2/include/c++/4.9.2/bits/stl_algobase.h **** 
 496:/opt/gcc/4.9.2/include/c++/4.9.2/bits/stl_algobase.h ****       return std::__copy_move_a2<true>(std::__miter_base(__first),
 497:/opt/gcc/4.9.2/include/c++/4.9.2/bits/stl_algobase.h **** 				       std::__miter_base(__last), __result);
 498:/opt/gcc/4.9.2/include/c++/4.9.2/bits/stl_algobase.h ****     }
 499:/opt/gcc/4.9.2/include/c++/4.9.2/bits/stl_algobase.h **** 
 500:/opt/gcc/4.9.2/include/c++/4.9.2/bits/stl_algobase.h **** #define _GLIBCXX_MOVE3(_Tp, _Up, _Vp) std::move(_Tp, _Up, _Vp)
 501:/opt/gcc/4.9.2/include/c++/4.9.2/bits/stl_algobase.h **** #else
 502:/opt/gcc/4.9.2/include/c++/4.9.2/bits/stl_algobase.h **** #define _GLIBCXX_MOVE3(_Tp, _Up, _Vp) std::copy(_Tp, _Up, _Vp)
 503:/opt/gcc/4.9.2/include/c++/4.9.2/bits/stl_algobase.h **** #endif
 504:/opt/gcc/4.9.2/include/c++/4.9.2/bits/stl_algobase.h **** 
 505:/opt/gcc/4.9.2/include/c++/4.9.2/bits/stl_algobase.h ****   template<bool, bool, typename>
 506:/opt/gcc/4.9.2/include/c++/4.9.2/bits/stl_algobase.h ****     struct __copy_move_backward
 507:/opt/gcc/4.9.2/include/c++/4.9.2/bits/stl_algobase.h ****     {
 508:/opt/gcc/4.9.2/include/c++/4.9.2/bits/stl_algobase.h ****       template<typename _BI1, typename _BI2>
 509:/opt/gcc/4.9.2/include/c++/4.9.2/bits/stl_algobase.h ****         static _BI2
 510:/opt/gcc/4.9.2/include/c++/4.9.2/bits/stl_algobase.h ****         __copy_move_b(_BI1 __first, _BI1 __last, _BI2 __result)
 511:/opt/gcc/4.9.2/include/c++/4.9.2/bits/stl_algobase.h ****         {
 512:/opt/gcc/4.9.2/include/c++/4.9.2/bits/stl_algobase.h **** 	  while (__first != __last)
 513:/opt/gcc/4.9.2/include/c++/4.9.2/bits/stl_algobase.h **** 	    *--__result = *--__last;
 514:/opt/gcc/4.9.2/include/c++/4.9.2/bits/stl_algobase.h **** 	  return __result;
 515:/opt/gcc/4.9.2/include/c++/4.9.2/bits/stl_algobase.h **** 	}
 516:/opt/gcc/4.9.2/include/c++/4.9.2/bits/stl_algobase.h ****     };
 517:/opt/gcc/4.9.2/include/c++/4.9.2/bits/stl_algobase.h **** 
 518:/opt/gcc/4.9.2/include/c++/4.9.2/bits/stl_algobase.h **** #if __cplusplus >= 201103L
 519:/opt/gcc/4.9.2/include/c++/4.9.2/bits/stl_algobase.h ****   template<typename _Category>
 520:/opt/gcc/4.9.2/include/c++/4.9.2/bits/stl_algobase.h ****     struct __copy_move_backward<true, false, _Category>
 521:/opt/gcc/4.9.2/include/c++/4.9.2/bits/stl_algobase.h ****     {
 522:/opt/gcc/4.9.2/include/c++/4.9.2/bits/stl_algobase.h ****       template<typename _BI1, typename _BI2>
 523:/opt/gcc/4.9.2/include/c++/4.9.2/bits/stl_algobase.h ****         static _BI2
 524:/opt/gcc/4.9.2/include/c++/4.9.2/bits/stl_algobase.h ****         __copy_move_b(_BI1 __first, _BI1 __last, _BI2 __result)
 525:/opt/gcc/4.9.2/include/c++/4.9.2/bits/stl_algobase.h ****         {
 526:/opt/gcc/4.9.2/include/c++/4.9.2/bits/stl_algobase.h **** 	  while (__first != __last)
 527:/opt/gcc/4.9.2/include/c++/4.9.2/bits/stl_algobase.h **** 	    *--__result = std::move(*--__last);
 528:/opt/gcc/4.9.2/include/c++/4.9.2/bits/stl_algobase.h **** 	  return __result;
 529:/opt/gcc/4.9.2/include/c++/4.9.2/bits/stl_algobase.h **** 	}
 530:/opt/gcc/4.9.2/include/c++/4.9.2/bits/stl_algobase.h ****     };
 531:/opt/gcc/4.9.2/include/c++/4.9.2/bits/stl_algobase.h **** #endif
 532:/opt/gcc/4.9.2/include/c++/4.9.2/bits/stl_algobase.h **** 
 533:/opt/gcc/4.9.2/include/c++/4.9.2/bits/stl_algobase.h ****   template<>
 534:/opt/gcc/4.9.2/include/c++/4.9.2/bits/stl_algobase.h ****     struct __copy_move_backward<false, false, random_access_iterator_tag>
 535:/opt/gcc/4.9.2/include/c++/4.9.2/bits/stl_algobase.h ****     {
 536:/opt/gcc/4.9.2/include/c++/4.9.2/bits/stl_algobase.h ****       template<typename _BI1, typename _BI2>
 537:/opt/gcc/4.9.2/include/c++/4.9.2/bits/stl_algobase.h ****         static _BI2
 538:/opt/gcc/4.9.2/include/c++/4.9.2/bits/stl_algobase.h ****         __copy_move_b(_BI1 __first, _BI1 __last, _BI2 __result)
GAS LISTING /tmp/ccKUqHDa.s 			page 30


 539:/opt/gcc/4.9.2/include/c++/4.9.2/bits/stl_algobase.h ****         {
 540:/opt/gcc/4.9.2/include/c++/4.9.2/bits/stl_algobase.h **** 	  typename iterator_traits<_BI1>::difference_type __n;
 541:/opt/gcc/4.9.2/include/c++/4.9.2/bits/stl_algobase.h **** 	  for (__n = __last - __first; __n > 0; --__n)
 542:/opt/gcc/4.9.2/include/c++/4.9.2/bits/stl_algobase.h **** 	    *--__result = *--__last;
 543:/opt/gcc/4.9.2/include/c++/4.9.2/bits/stl_algobase.h **** 	  return __result;
 544:/opt/gcc/4.9.2/include/c++/4.9.2/bits/stl_algobase.h **** 	}
 545:/opt/gcc/4.9.2/include/c++/4.9.2/bits/stl_algobase.h ****     };
 546:/opt/gcc/4.9.2/include/c++/4.9.2/bits/stl_algobase.h **** 
 547:/opt/gcc/4.9.2/include/c++/4.9.2/bits/stl_algobase.h **** #if __cplusplus >= 201103L
 548:/opt/gcc/4.9.2/include/c++/4.9.2/bits/stl_algobase.h ****   template<>
 549:/opt/gcc/4.9.2/include/c++/4.9.2/bits/stl_algobase.h ****     struct __copy_move_backward<true, false, random_access_iterator_tag>
 550:/opt/gcc/4.9.2/include/c++/4.9.2/bits/stl_algobase.h ****     {
 551:/opt/gcc/4.9.2/include/c++/4.9.2/bits/stl_algobase.h ****       template<typename _BI1, typename _BI2>
 552:/opt/gcc/4.9.2/include/c++/4.9.2/bits/stl_algobase.h ****         static _BI2
 553:/opt/gcc/4.9.2/include/c++/4.9.2/bits/stl_algobase.h ****         __copy_move_b(_BI1 __first, _BI1 __last, _BI2 __result)
 554:/opt/gcc/4.9.2/include/c++/4.9.2/bits/stl_algobase.h ****         {
 555:/opt/gcc/4.9.2/include/c++/4.9.2/bits/stl_algobase.h **** 	  typename iterator_traits<_BI1>::difference_type __n;
 556:/opt/gcc/4.9.2/include/c++/4.9.2/bits/stl_algobase.h **** 	  for (__n = __last - __first; __n > 0; --__n)
 557:/opt/gcc/4.9.2/include/c++/4.9.2/bits/stl_algobase.h **** 	    *--__result = std::move(*--__last);
 558:/opt/gcc/4.9.2/include/c++/4.9.2/bits/stl_algobase.h **** 	  return __result;
 559:/opt/gcc/4.9.2/include/c++/4.9.2/bits/stl_algobase.h **** 	}
 560:/opt/gcc/4.9.2/include/c++/4.9.2/bits/stl_algobase.h ****     };
 561:/opt/gcc/4.9.2/include/c++/4.9.2/bits/stl_algobase.h **** #endif
 562:/opt/gcc/4.9.2/include/c++/4.9.2/bits/stl_algobase.h **** 
 563:/opt/gcc/4.9.2/include/c++/4.9.2/bits/stl_algobase.h ****   template<bool _IsMove>
 564:/opt/gcc/4.9.2/include/c++/4.9.2/bits/stl_algobase.h ****     struct __copy_move_backward<_IsMove, true, random_access_iterator_tag>
 565:/opt/gcc/4.9.2/include/c++/4.9.2/bits/stl_algobase.h ****     {
 566:/opt/gcc/4.9.2/include/c++/4.9.2/bits/stl_algobase.h ****       template<typename _Tp>
 567:/opt/gcc/4.9.2/include/c++/4.9.2/bits/stl_algobase.h ****         static _Tp*
 568:/opt/gcc/4.9.2/include/c++/4.9.2/bits/stl_algobase.h ****         __copy_move_b(const _Tp* __first, const _Tp* __last, _Tp* __result)
 569:/opt/gcc/4.9.2/include/c++/4.9.2/bits/stl_algobase.h ****         {
 570:/opt/gcc/4.9.2/include/c++/4.9.2/bits/stl_algobase.h **** #if __cplusplus >= 201103L
 571:/opt/gcc/4.9.2/include/c++/4.9.2/bits/stl_algobase.h **** 	  // trivial types can have deleted assignment
 572:/opt/gcc/4.9.2/include/c++/4.9.2/bits/stl_algobase.h **** 	  static_assert( is_copy_assignable<_Tp>::value,
 573:/opt/gcc/4.9.2/include/c++/4.9.2/bits/stl_algobase.h **** 	                 "type is not assignable" );
 574:/opt/gcc/4.9.2/include/c++/4.9.2/bits/stl_algobase.h **** #endif
 575:/opt/gcc/4.9.2/include/c++/4.9.2/bits/stl_algobase.h **** 	  const ptrdiff_t _Num = __last - __first;
 576:/opt/gcc/4.9.2/include/c++/4.9.2/bits/stl_algobase.h **** 	  if (_Num)
 577:/opt/gcc/4.9.2/include/c++/4.9.2/bits/stl_algobase.h **** 	    __builtin_memmove(__result - _Num, __first, sizeof(_Tp) * _Num);
 578:/opt/gcc/4.9.2/include/c++/4.9.2/bits/stl_algobase.h **** 	  return __result - _Num;
 579:/opt/gcc/4.9.2/include/c++/4.9.2/bits/stl_algobase.h **** 	}
 580:/opt/gcc/4.9.2/include/c++/4.9.2/bits/stl_algobase.h ****     };
 581:/opt/gcc/4.9.2/include/c++/4.9.2/bits/stl_algobase.h **** 
 582:/opt/gcc/4.9.2/include/c++/4.9.2/bits/stl_algobase.h ****   template<bool _IsMove, typename _BI1, typename _BI2>
 583:/opt/gcc/4.9.2/include/c++/4.9.2/bits/stl_algobase.h ****     inline _BI2
 584:/opt/gcc/4.9.2/include/c++/4.9.2/bits/stl_algobase.h ****     __copy_move_backward_a(_BI1 __first, _BI1 __last, _BI2 __result)
 585:/opt/gcc/4.9.2/include/c++/4.9.2/bits/stl_algobase.h ****     {
 586:/opt/gcc/4.9.2/include/c++/4.9.2/bits/stl_algobase.h ****       typedef typename iterator_traits<_BI1>::value_type _ValueType1;
 587:/opt/gcc/4.9.2/include/c++/4.9.2/bits/stl_algobase.h ****       typedef typename iterator_traits<_BI2>::value_type _ValueType2;
 588:/opt/gcc/4.9.2/include/c++/4.9.2/bits/stl_algobase.h ****       typedef typename iterator_traits<_BI1>::iterator_category _Category;
 589:/opt/gcc/4.9.2/include/c++/4.9.2/bits/stl_algobase.h ****       const bool __simple = (__is_trivial(_ValueType1)
 590:/opt/gcc/4.9.2/include/c++/4.9.2/bits/stl_algobase.h **** 	                     && __is_pointer<_BI1>::__value
 591:/opt/gcc/4.9.2/include/c++/4.9.2/bits/stl_algobase.h **** 	                     && __is_pointer<_BI2>::__value
 592:/opt/gcc/4.9.2/include/c++/4.9.2/bits/stl_algobase.h **** 			     && __are_same<_ValueType1, _ValueType2>::__value);
 593:/opt/gcc/4.9.2/include/c++/4.9.2/bits/stl_algobase.h **** 
 594:/opt/gcc/4.9.2/include/c++/4.9.2/bits/stl_algobase.h ****       return std::__copy_move_backward<_IsMove, __simple,
 595:/opt/gcc/4.9.2/include/c++/4.9.2/bits/stl_algobase.h **** 	                               _Category>::__copy_move_b(__first,
GAS LISTING /tmp/ccKUqHDa.s 			page 31


 596:/opt/gcc/4.9.2/include/c++/4.9.2/bits/stl_algobase.h **** 								 __last,
 597:/opt/gcc/4.9.2/include/c++/4.9.2/bits/stl_algobase.h **** 								 __result);
 598:/opt/gcc/4.9.2/include/c++/4.9.2/bits/stl_algobase.h ****     }
 599:/opt/gcc/4.9.2/include/c++/4.9.2/bits/stl_algobase.h **** 
 600:/opt/gcc/4.9.2/include/c++/4.9.2/bits/stl_algobase.h ****   template<bool _IsMove, typename _BI1, typename _BI2>
 601:/opt/gcc/4.9.2/include/c++/4.9.2/bits/stl_algobase.h ****     inline _BI2
 602:/opt/gcc/4.9.2/include/c++/4.9.2/bits/stl_algobase.h ****     __copy_move_backward_a2(_BI1 __first, _BI1 __last, _BI2 __result)
 603:/opt/gcc/4.9.2/include/c++/4.9.2/bits/stl_algobase.h ****     {
 604:/opt/gcc/4.9.2/include/c++/4.9.2/bits/stl_algobase.h ****       return _BI2(std::__copy_move_backward_a<_IsMove>
 605:/opt/gcc/4.9.2/include/c++/4.9.2/bits/stl_algobase.h **** 		  (std::__niter_base(__first), std::__niter_base(__last),
 606:/opt/gcc/4.9.2/include/c++/4.9.2/bits/stl_algobase.h **** 		   std::__niter_base(__result)));
 607:/opt/gcc/4.9.2/include/c++/4.9.2/bits/stl_algobase.h ****     }
 608:/opt/gcc/4.9.2/include/c++/4.9.2/bits/stl_algobase.h **** 
 609:/opt/gcc/4.9.2/include/c++/4.9.2/bits/stl_algobase.h ****   /**
 610:/opt/gcc/4.9.2/include/c++/4.9.2/bits/stl_algobase.h ****    *  @brief Copies the range [first,last) into result.
 611:/opt/gcc/4.9.2/include/c++/4.9.2/bits/stl_algobase.h ****    *  @ingroup mutating_algorithms
 612:/opt/gcc/4.9.2/include/c++/4.9.2/bits/stl_algobase.h ****    *  @param  __first  A bidirectional iterator.
 613:/opt/gcc/4.9.2/include/c++/4.9.2/bits/stl_algobase.h ****    *  @param  __last   A bidirectional iterator.
 614:/opt/gcc/4.9.2/include/c++/4.9.2/bits/stl_algobase.h ****    *  @param  __result A bidirectional iterator.
 615:/opt/gcc/4.9.2/include/c++/4.9.2/bits/stl_algobase.h ****    *  @return   result - (first - last)
 616:/opt/gcc/4.9.2/include/c++/4.9.2/bits/stl_algobase.h ****    *
 617:/opt/gcc/4.9.2/include/c++/4.9.2/bits/stl_algobase.h ****    *  The function has the same effect as copy, but starts at the end of the
 618:/opt/gcc/4.9.2/include/c++/4.9.2/bits/stl_algobase.h ****    *  range and works its way to the start, returning the start of the result.
 619:/opt/gcc/4.9.2/include/c++/4.9.2/bits/stl_algobase.h ****    *  This inline function will boil down to a call to @c memmove whenever
 620:/opt/gcc/4.9.2/include/c++/4.9.2/bits/stl_algobase.h ****    *  possible.  Failing that, if random access iterators are passed, then the
 621:/opt/gcc/4.9.2/include/c++/4.9.2/bits/stl_algobase.h ****    *  loop count will be known (and therefore a candidate for compiler
 622:/opt/gcc/4.9.2/include/c++/4.9.2/bits/stl_algobase.h ****    *  optimizations such as unrolling).
 623:/opt/gcc/4.9.2/include/c++/4.9.2/bits/stl_algobase.h ****    *
 624:/opt/gcc/4.9.2/include/c++/4.9.2/bits/stl_algobase.h ****    *  Result may not be in the range (first,last].  Use copy instead.  Note
 625:/opt/gcc/4.9.2/include/c++/4.9.2/bits/stl_algobase.h ****    *  that the start of the output range may overlap [first,last).
 626:/opt/gcc/4.9.2/include/c++/4.9.2/bits/stl_algobase.h ****   */
 627:/opt/gcc/4.9.2/include/c++/4.9.2/bits/stl_algobase.h ****   template<typename _BI1, typename _BI2>
 628:/opt/gcc/4.9.2/include/c++/4.9.2/bits/stl_algobase.h ****     inline _BI2
 629:/opt/gcc/4.9.2/include/c++/4.9.2/bits/stl_algobase.h ****     copy_backward(_BI1 __first, _BI1 __last, _BI2 __result)
 630:/opt/gcc/4.9.2/include/c++/4.9.2/bits/stl_algobase.h ****     {
 631:/opt/gcc/4.9.2/include/c++/4.9.2/bits/stl_algobase.h ****       // concept requirements
 632:/opt/gcc/4.9.2/include/c++/4.9.2/bits/stl_algobase.h ****       __glibcxx_function_requires(_BidirectionalIteratorConcept<_BI1>)
 633:/opt/gcc/4.9.2/include/c++/4.9.2/bits/stl_algobase.h ****       __glibcxx_function_requires(_Mutable_BidirectionalIteratorConcept<_BI2>)
 634:/opt/gcc/4.9.2/include/c++/4.9.2/bits/stl_algobase.h ****       __glibcxx_function_requires(_ConvertibleConcept<
 635:/opt/gcc/4.9.2/include/c++/4.9.2/bits/stl_algobase.h **** 	    typename iterator_traits<_BI1>::value_type,
 636:/opt/gcc/4.9.2/include/c++/4.9.2/bits/stl_algobase.h **** 	    typename iterator_traits<_BI2>::value_type>)
 637:/opt/gcc/4.9.2/include/c++/4.9.2/bits/stl_algobase.h ****       __glibcxx_requires_valid_range(__first, __last);
 638:/opt/gcc/4.9.2/include/c++/4.9.2/bits/stl_algobase.h **** 
 639:/opt/gcc/4.9.2/include/c++/4.9.2/bits/stl_algobase.h ****       return (std::__copy_move_backward_a2<__is_move_iterator<_BI1>::__value>
 640:/opt/gcc/4.9.2/include/c++/4.9.2/bits/stl_algobase.h **** 	      (std::__miter_base(__first), std::__miter_base(__last),
 641:/opt/gcc/4.9.2/include/c++/4.9.2/bits/stl_algobase.h **** 	       __result));
 642:/opt/gcc/4.9.2/include/c++/4.9.2/bits/stl_algobase.h ****     }
 643:/opt/gcc/4.9.2/include/c++/4.9.2/bits/stl_algobase.h **** 
 644:/opt/gcc/4.9.2/include/c++/4.9.2/bits/stl_algobase.h **** #if __cplusplus >= 201103L
 645:/opt/gcc/4.9.2/include/c++/4.9.2/bits/stl_algobase.h ****   /**
 646:/opt/gcc/4.9.2/include/c++/4.9.2/bits/stl_algobase.h ****    *  @brief Moves the range [first,last) into result.
 647:/opt/gcc/4.9.2/include/c++/4.9.2/bits/stl_algobase.h ****    *  @ingroup mutating_algorithms
 648:/opt/gcc/4.9.2/include/c++/4.9.2/bits/stl_algobase.h ****    *  @param  __first  A bidirectional iterator.
 649:/opt/gcc/4.9.2/include/c++/4.9.2/bits/stl_algobase.h ****    *  @param  __last   A bidirectional iterator.
 650:/opt/gcc/4.9.2/include/c++/4.9.2/bits/stl_algobase.h ****    *  @param  __result A bidirectional iterator.
 651:/opt/gcc/4.9.2/include/c++/4.9.2/bits/stl_algobase.h ****    *  @return   result - (first - last)
 652:/opt/gcc/4.9.2/include/c++/4.9.2/bits/stl_algobase.h ****    *
GAS LISTING /tmp/ccKUqHDa.s 			page 32


 653:/opt/gcc/4.9.2/include/c++/4.9.2/bits/stl_algobase.h ****    *  The function has the same effect as move, but starts at the end of the
 654:/opt/gcc/4.9.2/include/c++/4.9.2/bits/stl_algobase.h ****    *  range and works its way to the start, returning the start of the result.
 655:/opt/gcc/4.9.2/include/c++/4.9.2/bits/stl_algobase.h ****    *  This inline function will boil down to a call to @c memmove whenever
 656:/opt/gcc/4.9.2/include/c++/4.9.2/bits/stl_algobase.h ****    *  possible.  Failing that, if random access iterators are passed, then the
 657:/opt/gcc/4.9.2/include/c++/4.9.2/bits/stl_algobase.h ****    *  loop count will be known (and therefore a candidate for compiler
 658:/opt/gcc/4.9.2/include/c++/4.9.2/bits/stl_algobase.h ****    *  optimizations such as unrolling).
 659:/opt/gcc/4.9.2/include/c++/4.9.2/bits/stl_algobase.h ****    *
 660:/opt/gcc/4.9.2/include/c++/4.9.2/bits/stl_algobase.h ****    *  Result may not be in the range (first,last].  Use move instead.  Note
 661:/opt/gcc/4.9.2/include/c++/4.9.2/bits/stl_algobase.h ****    *  that the start of the output range may overlap [first,last).
 662:/opt/gcc/4.9.2/include/c++/4.9.2/bits/stl_algobase.h ****   */
 663:/opt/gcc/4.9.2/include/c++/4.9.2/bits/stl_algobase.h ****   template<typename _BI1, typename _BI2>
 664:/opt/gcc/4.9.2/include/c++/4.9.2/bits/stl_algobase.h ****     inline _BI2
 665:/opt/gcc/4.9.2/include/c++/4.9.2/bits/stl_algobase.h ****     move_backward(_BI1 __first, _BI1 __last, _BI2 __result)
 666:/opt/gcc/4.9.2/include/c++/4.9.2/bits/stl_algobase.h ****     {
 667:/opt/gcc/4.9.2/include/c++/4.9.2/bits/stl_algobase.h ****       // concept requirements
 668:/opt/gcc/4.9.2/include/c++/4.9.2/bits/stl_algobase.h ****       __glibcxx_function_requires(_BidirectionalIteratorConcept<_BI1>)
 669:/opt/gcc/4.9.2/include/c++/4.9.2/bits/stl_algobase.h ****       __glibcxx_function_requires(_Mutable_BidirectionalIteratorConcept<_BI2>)
 670:/opt/gcc/4.9.2/include/c++/4.9.2/bits/stl_algobase.h ****       __glibcxx_function_requires(_ConvertibleConcept<
 671:/opt/gcc/4.9.2/include/c++/4.9.2/bits/stl_algobase.h **** 	    typename iterator_traits<_BI1>::value_type,
 672:/opt/gcc/4.9.2/include/c++/4.9.2/bits/stl_algobase.h **** 	    typename iterator_traits<_BI2>::value_type>)
 673:/opt/gcc/4.9.2/include/c++/4.9.2/bits/stl_algobase.h ****       __glibcxx_requires_valid_range(__first, __last);
 674:/opt/gcc/4.9.2/include/c++/4.9.2/bits/stl_algobase.h **** 
 675:/opt/gcc/4.9.2/include/c++/4.9.2/bits/stl_algobase.h ****       return std::__copy_move_backward_a2<true>(std::__miter_base(__first),
 676:/opt/gcc/4.9.2/include/c++/4.9.2/bits/stl_algobase.h **** 						std::__miter_base(__last),
 677:/opt/gcc/4.9.2/include/c++/4.9.2/bits/stl_algobase.h **** 						__result);
 678:/opt/gcc/4.9.2/include/c++/4.9.2/bits/stl_algobase.h ****     }
 679:/opt/gcc/4.9.2/include/c++/4.9.2/bits/stl_algobase.h **** 
 680:/opt/gcc/4.9.2/include/c++/4.9.2/bits/stl_algobase.h **** #define _GLIBCXX_MOVE_BACKWARD3(_Tp, _Up, _Vp) std::move_backward(_Tp, _Up, _Vp)
 681:/opt/gcc/4.9.2/include/c++/4.9.2/bits/stl_algobase.h **** #else
 682:/opt/gcc/4.9.2/include/c++/4.9.2/bits/stl_algobase.h **** #define _GLIBCXX_MOVE_BACKWARD3(_Tp, _Up, _Vp) std::copy_backward(_Tp, _Up, _Vp)
 683:/opt/gcc/4.9.2/include/c++/4.9.2/bits/stl_algobase.h **** #endif
 684:/opt/gcc/4.9.2/include/c++/4.9.2/bits/stl_algobase.h **** 
 685:/opt/gcc/4.9.2/include/c++/4.9.2/bits/stl_algobase.h ****   template<typename _ForwardIterator, typename _Tp>
 686:/opt/gcc/4.9.2/include/c++/4.9.2/bits/stl_algobase.h ****     inline typename
 687:/opt/gcc/4.9.2/include/c++/4.9.2/bits/stl_algobase.h ****     __gnu_cxx::__enable_if<!__is_scalar<_Tp>::__value, void>::__type
 688:/opt/gcc/4.9.2/include/c++/4.9.2/bits/stl_algobase.h ****     __fill_a(_ForwardIterator __first, _ForwardIterator __last,
 689:/opt/gcc/4.9.2/include/c++/4.9.2/bits/stl_algobase.h ****  	     const _Tp& __value)
 690:/opt/gcc/4.9.2/include/c++/4.9.2/bits/stl_algobase.h ****     {
 691:/opt/gcc/4.9.2/include/c++/4.9.2/bits/stl_algobase.h ****       for (; __first != __last; ++__first)
 692:/opt/gcc/4.9.2/include/c++/4.9.2/bits/stl_algobase.h **** 	*__first = __value;
 693:/opt/gcc/4.9.2/include/c++/4.9.2/bits/stl_algobase.h ****     }
 694:/opt/gcc/4.9.2/include/c++/4.9.2/bits/stl_algobase.h ****     
 695:/opt/gcc/4.9.2/include/c++/4.9.2/bits/stl_algobase.h ****   template<typename _ForwardIterator, typename _Tp>
 696:/opt/gcc/4.9.2/include/c++/4.9.2/bits/stl_algobase.h ****     inline typename
 697:/opt/gcc/4.9.2/include/c++/4.9.2/bits/stl_algobase.h ****     __gnu_cxx::__enable_if<__is_scalar<_Tp>::__value, void>::__type
 698:/opt/gcc/4.9.2/include/c++/4.9.2/bits/stl_algobase.h ****     __fill_a(_ForwardIterator __first, _ForwardIterator __last,
 699:/opt/gcc/4.9.2/include/c++/4.9.2/bits/stl_algobase.h **** 	     const _Tp& __value)
 700:/opt/gcc/4.9.2/include/c++/4.9.2/bits/stl_algobase.h ****     {
 701:/opt/gcc/4.9.2/include/c++/4.9.2/bits/stl_algobase.h ****       const _Tp __tmp = __value;
 702:/opt/gcc/4.9.2/include/c++/4.9.2/bits/stl_algobase.h ****       for (; __first != __last; ++__first)
 703:/opt/gcc/4.9.2/include/c++/4.9.2/bits/stl_algobase.h **** 	*__first = __tmp;
 704:/opt/gcc/4.9.2/include/c++/4.9.2/bits/stl_algobase.h ****     }
 705:/opt/gcc/4.9.2/include/c++/4.9.2/bits/stl_algobase.h **** 
 706:/opt/gcc/4.9.2/include/c++/4.9.2/bits/stl_algobase.h ****   // Specialization: for char types we can use memset.
 707:/opt/gcc/4.9.2/include/c++/4.9.2/bits/stl_algobase.h ****   template<typename _Tp>
 708:/opt/gcc/4.9.2/include/c++/4.9.2/bits/stl_algobase.h ****     inline typename
 709:/opt/gcc/4.9.2/include/c++/4.9.2/bits/stl_algobase.h ****     __gnu_cxx::__enable_if<__is_byte<_Tp>::__value, void>::__type
GAS LISTING /tmp/ccKUqHDa.s 			page 33


 710:/opt/gcc/4.9.2/include/c++/4.9.2/bits/stl_algobase.h ****     __fill_a(_Tp* __first, _Tp* __last, const _Tp& __c)
 711:/opt/gcc/4.9.2/include/c++/4.9.2/bits/stl_algobase.h ****     {
 712:/opt/gcc/4.9.2/include/c++/4.9.2/bits/stl_algobase.h ****       const _Tp __tmp = __c;
 713:/opt/gcc/4.9.2/include/c++/4.9.2/bits/stl_algobase.h ****       __builtin_memset(__first, static_cast<unsigned char>(__tmp),
 312              		.loc 6 714 0
 313 0040 4889EA   		movq	%rbp, %rdx
 314 0043 31F6     		xorl	%esi, %esi
 315              	.LBE1864:
 316              	.LBE1863:
 317              	.LBE1862:
 318              	.LBE1861:
 319              	.LBE1860:
 320              	.LBE1859:
 321              	.LBE1858:
 322              	.LBE1857:
 323              	.LBE1856:
 324              	.LBE1855:
 325              	.LBE1854:
 326              	.LBB1875:
 327              	.LBB1853:
 328              	.LBB1852:
 187:/opt/gcc/4.9.2/include/c++/4.9.2/bits/stl_vector.h **** 	this->_M_impl._M_end_of_storage = this->_M_impl._M_start + __n;
 329              		.loc 4 187 0
 330 0045 48894310 		movq	%rax, 16(%rbx)
 331              	.LVL25:
 332              	.LBE1852:
 333              	.LBE1853:
 334              	.LBE1875:
 335              	.LBB1876:
 336              	.LBB1874:
 337              	.LBB1873:
 338              	.LBB1872:
 339              	.LBB1871:
 340              	.LBB1870:
 341              	.LBB1869:
 342              	.LBB1868:
 343              	.LBB1867:
 344              	.LBB1866:
 345              	.LBB1865:
 346              		.loc 6 714 0
 347 0049 E8000000 		call	memset@PLT
 347      00
 348              	.LVL26:
 349              	.LBE1865:
 350              	.LBE1866:
 351              	.LBE1867:
 352              	.LBE1868:
 353              	.LBE1869:
 354              	.LBE1870:
 355              	.LBE1871:
 356              	.LBE1872:
 357              	.LBE1873:
 277:/opt/gcc/4.9.2/include/c++/4.9.2/bits/stl_vector.h ****       : _Base(__n, __a)
 278:/opt/gcc/4.9.2/include/c++/4.9.2/bits/stl_vector.h ****       { _M_default_initialize(__n); }
 279:/opt/gcc/4.9.2/include/c++/4.9.2/bits/stl_vector.h **** 
 280:/opt/gcc/4.9.2/include/c++/4.9.2/bits/stl_vector.h ****       /**
 281:/opt/gcc/4.9.2/include/c++/4.9.2/bits/stl_vector.h ****        *  @brief  Creates a %vector with copies of an exemplar element.
GAS LISTING /tmp/ccKUqHDa.s 			page 34


 282:/opt/gcc/4.9.2/include/c++/4.9.2/bits/stl_vector.h ****        *  @param  __n  The number of elements to initially create.
 283:/opt/gcc/4.9.2/include/c++/4.9.2/bits/stl_vector.h ****        *  @param  __value  An element to copy.
 284:/opt/gcc/4.9.2/include/c++/4.9.2/bits/stl_vector.h ****        *  @param  __a  An allocator.
 285:/opt/gcc/4.9.2/include/c++/4.9.2/bits/stl_vector.h ****        *
 286:/opt/gcc/4.9.2/include/c++/4.9.2/bits/stl_vector.h ****        *  This constructor fills the %vector with @a __n copies of @a __value.
 287:/opt/gcc/4.9.2/include/c++/4.9.2/bits/stl_vector.h ****        */
 288:/opt/gcc/4.9.2/include/c++/4.9.2/bits/stl_vector.h ****       vector(size_type __n, const value_type& __value,
 289:/opt/gcc/4.9.2/include/c++/4.9.2/bits/stl_vector.h **** 	     const allocator_type& __a = allocator_type())
 290:/opt/gcc/4.9.2/include/c++/4.9.2/bits/stl_vector.h ****       : _Base(__n, __a)
 291:/opt/gcc/4.9.2/include/c++/4.9.2/bits/stl_vector.h ****       { _M_fill_initialize(__n, __value); }
 292:/opt/gcc/4.9.2/include/c++/4.9.2/bits/stl_vector.h **** #else
 293:/opt/gcc/4.9.2/include/c++/4.9.2/bits/stl_vector.h ****       /**
 294:/opt/gcc/4.9.2/include/c++/4.9.2/bits/stl_vector.h ****        *  @brief  Creates a %vector with copies of an exemplar element.
 295:/opt/gcc/4.9.2/include/c++/4.9.2/bits/stl_vector.h ****        *  @param  __n  The number of elements to initially create.
 296:/opt/gcc/4.9.2/include/c++/4.9.2/bits/stl_vector.h ****        *  @param  __value  An element to copy.
 297:/opt/gcc/4.9.2/include/c++/4.9.2/bits/stl_vector.h ****        *  @param  __a  An allocator.
 298:/opt/gcc/4.9.2/include/c++/4.9.2/bits/stl_vector.h ****        *
 299:/opt/gcc/4.9.2/include/c++/4.9.2/bits/stl_vector.h ****        *  This constructor fills the %vector with @a __n copies of @a __value.
 300:/opt/gcc/4.9.2/include/c++/4.9.2/bits/stl_vector.h ****        */
 301:/opt/gcc/4.9.2/include/c++/4.9.2/bits/stl_vector.h ****       explicit
 302:/opt/gcc/4.9.2/include/c++/4.9.2/bits/stl_vector.h ****       vector(size_type __n, const value_type& __value = value_type(),
 303:/opt/gcc/4.9.2/include/c++/4.9.2/bits/stl_vector.h **** 	     const allocator_type& __a = allocator_type())
 304:/opt/gcc/4.9.2/include/c++/4.9.2/bits/stl_vector.h ****       : _Base(__n, __a)
 305:/opt/gcc/4.9.2/include/c++/4.9.2/bits/stl_vector.h ****       { _M_fill_initialize(__n, __value); }
 306:/opt/gcc/4.9.2/include/c++/4.9.2/bits/stl_vector.h **** #endif
 307:/opt/gcc/4.9.2/include/c++/4.9.2/bits/stl_vector.h **** 
 308:/opt/gcc/4.9.2/include/c++/4.9.2/bits/stl_vector.h ****       /**
 309:/opt/gcc/4.9.2/include/c++/4.9.2/bits/stl_vector.h ****        *  @brief  %Vector copy constructor.
 310:/opt/gcc/4.9.2/include/c++/4.9.2/bits/stl_vector.h ****        *  @param  __x  A %vector of identical element and allocator types.
 311:/opt/gcc/4.9.2/include/c++/4.9.2/bits/stl_vector.h ****        *
 312:/opt/gcc/4.9.2/include/c++/4.9.2/bits/stl_vector.h ****        *  The newly-created %vector uses a copy of the allocation
 313:/opt/gcc/4.9.2/include/c++/4.9.2/bits/stl_vector.h ****        *  object used by @a __x.  All the elements of @a __x are copied,
 314:/opt/gcc/4.9.2/include/c++/4.9.2/bits/stl_vector.h ****        *  but any extra memory in
 315:/opt/gcc/4.9.2/include/c++/4.9.2/bits/stl_vector.h ****        *  @a __x (for fast expansion) will not be copied.
 316:/opt/gcc/4.9.2/include/c++/4.9.2/bits/stl_vector.h ****        */
 317:/opt/gcc/4.9.2/include/c++/4.9.2/bits/stl_vector.h ****       vector(const vector& __x)
 318:/opt/gcc/4.9.2/include/c++/4.9.2/bits/stl_vector.h ****       : _Base(__x.size(),
 319:/opt/gcc/4.9.2/include/c++/4.9.2/bits/stl_vector.h ****         _Alloc_traits::_S_select_on_copy(__x._M_get_Tp_allocator()))
 320:/opt/gcc/4.9.2/include/c++/4.9.2/bits/stl_vector.h ****       { this->_M_impl._M_finish =
 321:/opt/gcc/4.9.2/include/c++/4.9.2/bits/stl_vector.h **** 	  std::__uninitialized_copy_a(__x.begin(), __x.end(),
 322:/opt/gcc/4.9.2/include/c++/4.9.2/bits/stl_vector.h **** 				      this->_M_impl._M_start,
 323:/opt/gcc/4.9.2/include/c++/4.9.2/bits/stl_vector.h **** 				      _M_get_Tp_allocator());
 324:/opt/gcc/4.9.2/include/c++/4.9.2/bits/stl_vector.h ****       }
 325:/opt/gcc/4.9.2/include/c++/4.9.2/bits/stl_vector.h **** 
 326:/opt/gcc/4.9.2/include/c++/4.9.2/bits/stl_vector.h **** #if __cplusplus >= 201103L
 327:/opt/gcc/4.9.2/include/c++/4.9.2/bits/stl_vector.h ****       /**
 328:/opt/gcc/4.9.2/include/c++/4.9.2/bits/stl_vector.h ****        *  @brief  %Vector move constructor.
 329:/opt/gcc/4.9.2/include/c++/4.9.2/bits/stl_vector.h ****        *  @param  __x  A %vector of identical element and allocator types.
 330:/opt/gcc/4.9.2/include/c++/4.9.2/bits/stl_vector.h ****        *
 331:/opt/gcc/4.9.2/include/c++/4.9.2/bits/stl_vector.h ****        *  The newly-created %vector contains the exact contents of @a __x.
 332:/opt/gcc/4.9.2/include/c++/4.9.2/bits/stl_vector.h ****        *  The contents of @a __x are a valid, but unspecified %vector.
 333:/opt/gcc/4.9.2/include/c++/4.9.2/bits/stl_vector.h ****        */
 334:/opt/gcc/4.9.2/include/c++/4.9.2/bits/stl_vector.h ****       vector(vector&& __x) noexcept
 335:/opt/gcc/4.9.2/include/c++/4.9.2/bits/stl_vector.h ****       : _Base(std::move(__x)) { }
 336:/opt/gcc/4.9.2/include/c++/4.9.2/bits/stl_vector.h **** 
 337:/opt/gcc/4.9.2/include/c++/4.9.2/bits/stl_vector.h ****       /// Copy constructor with alternative allocator
 338:/opt/gcc/4.9.2/include/c++/4.9.2/bits/stl_vector.h ****       vector(const vector& __x, const allocator_type& __a)
GAS LISTING /tmp/ccKUqHDa.s 			page 35


 339:/opt/gcc/4.9.2/include/c++/4.9.2/bits/stl_vector.h ****       : _Base(__x.size(), __a)
 340:/opt/gcc/4.9.2/include/c++/4.9.2/bits/stl_vector.h ****       { this->_M_impl._M_finish =
 341:/opt/gcc/4.9.2/include/c++/4.9.2/bits/stl_vector.h **** 	  std::__uninitialized_copy_a(__x.begin(), __x.end(),
 342:/opt/gcc/4.9.2/include/c++/4.9.2/bits/stl_vector.h **** 				      this->_M_impl._M_start,
 343:/opt/gcc/4.9.2/include/c++/4.9.2/bits/stl_vector.h **** 				      _M_get_Tp_allocator());
 344:/opt/gcc/4.9.2/include/c++/4.9.2/bits/stl_vector.h ****       }
 345:/opt/gcc/4.9.2/include/c++/4.9.2/bits/stl_vector.h **** 
 346:/opt/gcc/4.9.2/include/c++/4.9.2/bits/stl_vector.h ****       /// Move constructor with alternative allocator
 347:/opt/gcc/4.9.2/include/c++/4.9.2/bits/stl_vector.h ****       vector(vector&& __rv, const allocator_type& __m)
 348:/opt/gcc/4.9.2/include/c++/4.9.2/bits/stl_vector.h ****       noexcept(_Alloc_traits::_S_always_equal())
 349:/opt/gcc/4.9.2/include/c++/4.9.2/bits/stl_vector.h ****       : _Base(std::move(__rv), __m)
 350:/opt/gcc/4.9.2/include/c++/4.9.2/bits/stl_vector.h ****       {
 351:/opt/gcc/4.9.2/include/c++/4.9.2/bits/stl_vector.h **** 	if (__rv.get_allocator() != __m)
 352:/opt/gcc/4.9.2/include/c++/4.9.2/bits/stl_vector.h **** 	  {
 353:/opt/gcc/4.9.2/include/c++/4.9.2/bits/stl_vector.h **** 	    this->_M_impl._M_finish =
 354:/opt/gcc/4.9.2/include/c++/4.9.2/bits/stl_vector.h **** 	      std::__uninitialized_move_a(__rv.begin(), __rv.end(),
 355:/opt/gcc/4.9.2/include/c++/4.9.2/bits/stl_vector.h **** 					  this->_M_impl._M_start,
 356:/opt/gcc/4.9.2/include/c++/4.9.2/bits/stl_vector.h **** 					  _M_get_Tp_allocator());
 357:/opt/gcc/4.9.2/include/c++/4.9.2/bits/stl_vector.h **** 	    __rv.clear();
 358:/opt/gcc/4.9.2/include/c++/4.9.2/bits/stl_vector.h **** 	  }
 359:/opt/gcc/4.9.2/include/c++/4.9.2/bits/stl_vector.h ****       }
 360:/opt/gcc/4.9.2/include/c++/4.9.2/bits/stl_vector.h **** 
 361:/opt/gcc/4.9.2/include/c++/4.9.2/bits/stl_vector.h ****       /**
 362:/opt/gcc/4.9.2/include/c++/4.9.2/bits/stl_vector.h ****        *  @brief  Builds a %vector from an initializer list.
 363:/opt/gcc/4.9.2/include/c++/4.9.2/bits/stl_vector.h ****        *  @param  __l  An initializer_list.
 364:/opt/gcc/4.9.2/include/c++/4.9.2/bits/stl_vector.h ****        *  @param  __a  An allocator.
 365:/opt/gcc/4.9.2/include/c++/4.9.2/bits/stl_vector.h ****        *
 366:/opt/gcc/4.9.2/include/c++/4.9.2/bits/stl_vector.h ****        *  Create a %vector consisting of copies of the elements in the
 367:/opt/gcc/4.9.2/include/c++/4.9.2/bits/stl_vector.h ****        *  initializer_list @a __l.
 368:/opt/gcc/4.9.2/include/c++/4.9.2/bits/stl_vector.h ****        *
 369:/opt/gcc/4.9.2/include/c++/4.9.2/bits/stl_vector.h ****        *  This will call the element type's copy constructor N times
 370:/opt/gcc/4.9.2/include/c++/4.9.2/bits/stl_vector.h ****        *  (where N is @a __l.size()) and do no memory reallocation.
 371:/opt/gcc/4.9.2/include/c++/4.9.2/bits/stl_vector.h ****        */
 372:/opt/gcc/4.9.2/include/c++/4.9.2/bits/stl_vector.h ****       vector(initializer_list<value_type> __l,
 373:/opt/gcc/4.9.2/include/c++/4.9.2/bits/stl_vector.h **** 	     const allocator_type& __a = allocator_type())
 374:/opt/gcc/4.9.2/include/c++/4.9.2/bits/stl_vector.h ****       : _Base(__a)
 375:/opt/gcc/4.9.2/include/c++/4.9.2/bits/stl_vector.h ****       {
 376:/opt/gcc/4.9.2/include/c++/4.9.2/bits/stl_vector.h **** 	_M_range_initialize(__l.begin(), __l.end(),
 377:/opt/gcc/4.9.2/include/c++/4.9.2/bits/stl_vector.h **** 			    random_access_iterator_tag());
 378:/opt/gcc/4.9.2/include/c++/4.9.2/bits/stl_vector.h ****       }
 379:/opt/gcc/4.9.2/include/c++/4.9.2/bits/stl_vector.h **** #endif
 380:/opt/gcc/4.9.2/include/c++/4.9.2/bits/stl_vector.h **** 
 381:/opt/gcc/4.9.2/include/c++/4.9.2/bits/stl_vector.h ****       /**
 382:/opt/gcc/4.9.2/include/c++/4.9.2/bits/stl_vector.h ****        *  @brief  Builds a %vector from a range.
 383:/opt/gcc/4.9.2/include/c++/4.9.2/bits/stl_vector.h ****        *  @param  __first  An input iterator.
 384:/opt/gcc/4.9.2/include/c++/4.9.2/bits/stl_vector.h ****        *  @param  __last  An input iterator.
 385:/opt/gcc/4.9.2/include/c++/4.9.2/bits/stl_vector.h ****        *  @param  __a  An allocator.
 386:/opt/gcc/4.9.2/include/c++/4.9.2/bits/stl_vector.h ****        *
 387:/opt/gcc/4.9.2/include/c++/4.9.2/bits/stl_vector.h ****        *  Create a %vector consisting of copies of the elements from
 388:/opt/gcc/4.9.2/include/c++/4.9.2/bits/stl_vector.h ****        *  [first,last).
 389:/opt/gcc/4.9.2/include/c++/4.9.2/bits/stl_vector.h ****        *
 390:/opt/gcc/4.9.2/include/c++/4.9.2/bits/stl_vector.h ****        *  If the iterators are forward, bidirectional, or
 391:/opt/gcc/4.9.2/include/c++/4.9.2/bits/stl_vector.h ****        *  random-access, then this will call the elements' copy
 392:/opt/gcc/4.9.2/include/c++/4.9.2/bits/stl_vector.h ****        *  constructor N times (where N is distance(first,last)) and do
 393:/opt/gcc/4.9.2/include/c++/4.9.2/bits/stl_vector.h ****        *  no memory reallocation.  But if only input iterators are
 394:/opt/gcc/4.9.2/include/c++/4.9.2/bits/stl_vector.h ****        *  used, then this will do at most 2N calls to the copy
 395:/opt/gcc/4.9.2/include/c++/4.9.2/bits/stl_vector.h ****        *  constructor, and logN memory reallocations.
GAS LISTING /tmp/ccKUqHDa.s 			page 36


 396:/opt/gcc/4.9.2/include/c++/4.9.2/bits/stl_vector.h ****        */
 397:/opt/gcc/4.9.2/include/c++/4.9.2/bits/stl_vector.h **** #if __cplusplus >= 201103L
 398:/opt/gcc/4.9.2/include/c++/4.9.2/bits/stl_vector.h ****       template<typename _InputIterator,
 399:/opt/gcc/4.9.2/include/c++/4.9.2/bits/stl_vector.h **** 	       typename = std::_RequireInputIter<_InputIterator>>
 400:/opt/gcc/4.9.2/include/c++/4.9.2/bits/stl_vector.h ****         vector(_InputIterator __first, _InputIterator __last,
 401:/opt/gcc/4.9.2/include/c++/4.9.2/bits/stl_vector.h **** 	       const allocator_type& __a = allocator_type())
 402:/opt/gcc/4.9.2/include/c++/4.9.2/bits/stl_vector.h **** 	: _Base(__a)
 403:/opt/gcc/4.9.2/include/c++/4.9.2/bits/stl_vector.h ****         { _M_initialize_dispatch(__first, __last, __false_type()); }
 404:/opt/gcc/4.9.2/include/c++/4.9.2/bits/stl_vector.h **** #else
 405:/opt/gcc/4.9.2/include/c++/4.9.2/bits/stl_vector.h ****       template<typename _InputIterator>
 406:/opt/gcc/4.9.2/include/c++/4.9.2/bits/stl_vector.h ****         vector(_InputIterator __first, _InputIterator __last,
 407:/opt/gcc/4.9.2/include/c++/4.9.2/bits/stl_vector.h **** 	       const allocator_type& __a = allocator_type())
 408:/opt/gcc/4.9.2/include/c++/4.9.2/bits/stl_vector.h **** 	: _Base(__a)
 409:/opt/gcc/4.9.2/include/c++/4.9.2/bits/stl_vector.h ****         {
 410:/opt/gcc/4.9.2/include/c++/4.9.2/bits/stl_vector.h **** 	  // Check whether it's an integral type.  If so, it's not an iterator.
 411:/opt/gcc/4.9.2/include/c++/4.9.2/bits/stl_vector.h **** 	  typedef typename std::__is_integer<_InputIterator>::__type _Integral;
 412:/opt/gcc/4.9.2/include/c++/4.9.2/bits/stl_vector.h **** 	  _M_initialize_dispatch(__first, __last, _Integral());
 413:/opt/gcc/4.9.2/include/c++/4.9.2/bits/stl_vector.h **** 	}
 414:/opt/gcc/4.9.2/include/c++/4.9.2/bits/stl_vector.h **** #endif
 415:/opt/gcc/4.9.2/include/c++/4.9.2/bits/stl_vector.h **** 
 416:/opt/gcc/4.9.2/include/c++/4.9.2/bits/stl_vector.h ****       /**
 417:/opt/gcc/4.9.2/include/c++/4.9.2/bits/stl_vector.h ****        *  The dtor only erases the elements, and note that if the
 418:/opt/gcc/4.9.2/include/c++/4.9.2/bits/stl_vector.h ****        *  elements themselves are pointers, the pointed-to memory is
 419:/opt/gcc/4.9.2/include/c++/4.9.2/bits/stl_vector.h ****        *  not touched in any way.  Managing the pointer is the user's
 420:/opt/gcc/4.9.2/include/c++/4.9.2/bits/stl_vector.h ****        *  responsibility.
 421:/opt/gcc/4.9.2/include/c++/4.9.2/bits/stl_vector.h ****        */
 422:/opt/gcc/4.9.2/include/c++/4.9.2/bits/stl_vector.h ****       ~vector() _GLIBCXX_NOEXCEPT
 423:/opt/gcc/4.9.2/include/c++/4.9.2/bits/stl_vector.h ****       { std::_Destroy(this->_M_impl._M_start, this->_M_impl._M_finish,
 424:/opt/gcc/4.9.2/include/c++/4.9.2/bits/stl_vector.h **** 		      _M_get_Tp_allocator()); }
 425:/opt/gcc/4.9.2/include/c++/4.9.2/bits/stl_vector.h **** 
 426:/opt/gcc/4.9.2/include/c++/4.9.2/bits/stl_vector.h ****       /**
 427:/opt/gcc/4.9.2/include/c++/4.9.2/bits/stl_vector.h ****        *  @brief  %Vector assignment operator.
 428:/opt/gcc/4.9.2/include/c++/4.9.2/bits/stl_vector.h ****        *  @param  __x  A %vector of identical element and allocator types.
 429:/opt/gcc/4.9.2/include/c++/4.9.2/bits/stl_vector.h ****        *
 430:/opt/gcc/4.9.2/include/c++/4.9.2/bits/stl_vector.h ****        *  All the elements of @a __x are copied, but any extra memory in
 431:/opt/gcc/4.9.2/include/c++/4.9.2/bits/stl_vector.h ****        *  @a __x (for fast expansion) will not be copied.  Unlike the
 432:/opt/gcc/4.9.2/include/c++/4.9.2/bits/stl_vector.h ****        *  copy constructor, the allocator object is not copied.
 433:/opt/gcc/4.9.2/include/c++/4.9.2/bits/stl_vector.h ****        */
 434:/opt/gcc/4.9.2/include/c++/4.9.2/bits/stl_vector.h ****       vector&
 435:/opt/gcc/4.9.2/include/c++/4.9.2/bits/stl_vector.h ****       operator=(const vector& __x);
 436:/opt/gcc/4.9.2/include/c++/4.9.2/bits/stl_vector.h **** 
 437:/opt/gcc/4.9.2/include/c++/4.9.2/bits/stl_vector.h **** #if __cplusplus >= 201103L
 438:/opt/gcc/4.9.2/include/c++/4.9.2/bits/stl_vector.h ****       /**
 439:/opt/gcc/4.9.2/include/c++/4.9.2/bits/stl_vector.h ****        *  @brief  %Vector move assignment operator.
 440:/opt/gcc/4.9.2/include/c++/4.9.2/bits/stl_vector.h ****        *  @param  __x  A %vector of identical element and allocator types.
 441:/opt/gcc/4.9.2/include/c++/4.9.2/bits/stl_vector.h ****        *
 442:/opt/gcc/4.9.2/include/c++/4.9.2/bits/stl_vector.h ****        *  The contents of @a __x are moved into this %vector (without copying,
 443:/opt/gcc/4.9.2/include/c++/4.9.2/bits/stl_vector.h ****        *  if the allocators permit it).
 444:/opt/gcc/4.9.2/include/c++/4.9.2/bits/stl_vector.h ****        *  @a __x is a valid, but unspecified %vector.
 445:/opt/gcc/4.9.2/include/c++/4.9.2/bits/stl_vector.h ****        */
 446:/opt/gcc/4.9.2/include/c++/4.9.2/bits/stl_vector.h ****       vector&
 447:/opt/gcc/4.9.2/include/c++/4.9.2/bits/stl_vector.h ****       operator=(vector&& __x) noexcept(_Alloc_traits::_S_nothrow_move())
 448:/opt/gcc/4.9.2/include/c++/4.9.2/bits/stl_vector.h ****       {
 449:/opt/gcc/4.9.2/include/c++/4.9.2/bits/stl_vector.h ****         constexpr bool __move_storage =
 450:/opt/gcc/4.9.2/include/c++/4.9.2/bits/stl_vector.h ****           _Alloc_traits::_S_propagate_on_move_assign()
 451:/opt/gcc/4.9.2/include/c++/4.9.2/bits/stl_vector.h ****           || _Alloc_traits::_S_always_equal();
 452:/opt/gcc/4.9.2/include/c++/4.9.2/bits/stl_vector.h ****         _M_move_assign(std::move(__x),
GAS LISTING /tmp/ccKUqHDa.s 			page 37


 453:/opt/gcc/4.9.2/include/c++/4.9.2/bits/stl_vector.h ****                        integral_constant<bool, __move_storage>());
 454:/opt/gcc/4.9.2/include/c++/4.9.2/bits/stl_vector.h **** 	return *this;
 455:/opt/gcc/4.9.2/include/c++/4.9.2/bits/stl_vector.h ****       }
 456:/opt/gcc/4.9.2/include/c++/4.9.2/bits/stl_vector.h **** 
 457:/opt/gcc/4.9.2/include/c++/4.9.2/bits/stl_vector.h ****       /**
 458:/opt/gcc/4.9.2/include/c++/4.9.2/bits/stl_vector.h ****        *  @brief  %Vector list assignment operator.
 459:/opt/gcc/4.9.2/include/c++/4.9.2/bits/stl_vector.h ****        *  @param  __l  An initializer_list.
 460:/opt/gcc/4.9.2/include/c++/4.9.2/bits/stl_vector.h ****        *
 461:/opt/gcc/4.9.2/include/c++/4.9.2/bits/stl_vector.h ****        *  This function fills a %vector with copies of the elements in the
 462:/opt/gcc/4.9.2/include/c++/4.9.2/bits/stl_vector.h ****        *  initializer list @a __l.
 463:/opt/gcc/4.9.2/include/c++/4.9.2/bits/stl_vector.h ****        *
 464:/opt/gcc/4.9.2/include/c++/4.9.2/bits/stl_vector.h ****        *  Note that the assignment completely changes the %vector and
 465:/opt/gcc/4.9.2/include/c++/4.9.2/bits/stl_vector.h ****        *  that the resulting %vector's size is the same as the number
 466:/opt/gcc/4.9.2/include/c++/4.9.2/bits/stl_vector.h ****        *  of elements assigned.  Old data may be lost.
 467:/opt/gcc/4.9.2/include/c++/4.9.2/bits/stl_vector.h ****        */
 468:/opt/gcc/4.9.2/include/c++/4.9.2/bits/stl_vector.h ****       vector&
 469:/opt/gcc/4.9.2/include/c++/4.9.2/bits/stl_vector.h ****       operator=(initializer_list<value_type> __l)
 470:/opt/gcc/4.9.2/include/c++/4.9.2/bits/stl_vector.h ****       {
 471:/opt/gcc/4.9.2/include/c++/4.9.2/bits/stl_vector.h **** 	this->assign(__l.begin(), __l.end());
 472:/opt/gcc/4.9.2/include/c++/4.9.2/bits/stl_vector.h **** 	return *this;
 473:/opt/gcc/4.9.2/include/c++/4.9.2/bits/stl_vector.h ****       }
 474:/opt/gcc/4.9.2/include/c++/4.9.2/bits/stl_vector.h **** #endif
 475:/opt/gcc/4.9.2/include/c++/4.9.2/bits/stl_vector.h **** 
 476:/opt/gcc/4.9.2/include/c++/4.9.2/bits/stl_vector.h ****       /**
 477:/opt/gcc/4.9.2/include/c++/4.9.2/bits/stl_vector.h ****        *  @brief  Assigns a given value to a %vector.
 478:/opt/gcc/4.9.2/include/c++/4.9.2/bits/stl_vector.h ****        *  @param  __n  Number of elements to be assigned.
 479:/opt/gcc/4.9.2/include/c++/4.9.2/bits/stl_vector.h ****        *  @param  __val  Value to be assigned.
 480:/opt/gcc/4.9.2/include/c++/4.9.2/bits/stl_vector.h ****        *
 481:/opt/gcc/4.9.2/include/c++/4.9.2/bits/stl_vector.h ****        *  This function fills a %vector with @a __n copies of the given
 482:/opt/gcc/4.9.2/include/c++/4.9.2/bits/stl_vector.h ****        *  value.  Note that the assignment completely changes the
 483:/opt/gcc/4.9.2/include/c++/4.9.2/bits/stl_vector.h ****        *  %vector and that the resulting %vector's size is the same as
 484:/opt/gcc/4.9.2/include/c++/4.9.2/bits/stl_vector.h ****        *  the number of elements assigned.  Old data may be lost.
 485:/opt/gcc/4.9.2/include/c++/4.9.2/bits/stl_vector.h ****        */
 486:/opt/gcc/4.9.2/include/c++/4.9.2/bits/stl_vector.h ****       void
 487:/opt/gcc/4.9.2/include/c++/4.9.2/bits/stl_vector.h ****       assign(size_type __n, const value_type& __val)
 488:/opt/gcc/4.9.2/include/c++/4.9.2/bits/stl_vector.h ****       { _M_fill_assign(__n, __val); }
 489:/opt/gcc/4.9.2/include/c++/4.9.2/bits/stl_vector.h **** 
 490:/opt/gcc/4.9.2/include/c++/4.9.2/bits/stl_vector.h ****       /**
 491:/opt/gcc/4.9.2/include/c++/4.9.2/bits/stl_vector.h ****        *  @brief  Assigns a range to a %vector.
 492:/opt/gcc/4.9.2/include/c++/4.9.2/bits/stl_vector.h ****        *  @param  __first  An input iterator.
 493:/opt/gcc/4.9.2/include/c++/4.9.2/bits/stl_vector.h ****        *  @param  __last   An input iterator.
 494:/opt/gcc/4.9.2/include/c++/4.9.2/bits/stl_vector.h ****        *
 495:/opt/gcc/4.9.2/include/c++/4.9.2/bits/stl_vector.h ****        *  This function fills a %vector with copies of the elements in the
 496:/opt/gcc/4.9.2/include/c++/4.9.2/bits/stl_vector.h ****        *  range [__first,__last).
 497:/opt/gcc/4.9.2/include/c++/4.9.2/bits/stl_vector.h ****        *
 498:/opt/gcc/4.9.2/include/c++/4.9.2/bits/stl_vector.h ****        *  Note that the assignment completely changes the %vector and
 499:/opt/gcc/4.9.2/include/c++/4.9.2/bits/stl_vector.h ****        *  that the resulting %vector's size is the same as the number
 500:/opt/gcc/4.9.2/include/c++/4.9.2/bits/stl_vector.h ****        *  of elements assigned.  Old data may be lost.
 501:/opt/gcc/4.9.2/include/c++/4.9.2/bits/stl_vector.h ****        */
 502:/opt/gcc/4.9.2/include/c++/4.9.2/bits/stl_vector.h **** #if __cplusplus >= 201103L
 503:/opt/gcc/4.9.2/include/c++/4.9.2/bits/stl_vector.h ****       template<typename _InputIterator,
 504:/opt/gcc/4.9.2/include/c++/4.9.2/bits/stl_vector.h **** 	       typename = std::_RequireInputIter<_InputIterator>>
 505:/opt/gcc/4.9.2/include/c++/4.9.2/bits/stl_vector.h ****         void
 506:/opt/gcc/4.9.2/include/c++/4.9.2/bits/stl_vector.h ****         assign(_InputIterator __first, _InputIterator __last)
 507:/opt/gcc/4.9.2/include/c++/4.9.2/bits/stl_vector.h ****         { _M_assign_dispatch(__first, __last, __false_type()); }
 508:/opt/gcc/4.9.2/include/c++/4.9.2/bits/stl_vector.h **** #else
 509:/opt/gcc/4.9.2/include/c++/4.9.2/bits/stl_vector.h ****       template<typename _InputIterator>
GAS LISTING /tmp/ccKUqHDa.s 			page 38


 510:/opt/gcc/4.9.2/include/c++/4.9.2/bits/stl_vector.h ****         void
 511:/opt/gcc/4.9.2/include/c++/4.9.2/bits/stl_vector.h ****         assign(_InputIterator __first, _InputIterator __last)
 512:/opt/gcc/4.9.2/include/c++/4.9.2/bits/stl_vector.h ****         {
 513:/opt/gcc/4.9.2/include/c++/4.9.2/bits/stl_vector.h **** 	  // Check whether it's an integral type.  If so, it's not an iterator.
 514:/opt/gcc/4.9.2/include/c++/4.9.2/bits/stl_vector.h **** 	  typedef typename std::__is_integer<_InputIterator>::__type _Integral;
 515:/opt/gcc/4.9.2/include/c++/4.9.2/bits/stl_vector.h **** 	  _M_assign_dispatch(__first, __last, _Integral());
 516:/opt/gcc/4.9.2/include/c++/4.9.2/bits/stl_vector.h **** 	}
 517:/opt/gcc/4.9.2/include/c++/4.9.2/bits/stl_vector.h **** #endif
 518:/opt/gcc/4.9.2/include/c++/4.9.2/bits/stl_vector.h **** 
 519:/opt/gcc/4.9.2/include/c++/4.9.2/bits/stl_vector.h **** #if __cplusplus >= 201103L
 520:/opt/gcc/4.9.2/include/c++/4.9.2/bits/stl_vector.h ****       /**
 521:/opt/gcc/4.9.2/include/c++/4.9.2/bits/stl_vector.h ****        *  @brief  Assigns an initializer list to a %vector.
 522:/opt/gcc/4.9.2/include/c++/4.9.2/bits/stl_vector.h ****        *  @param  __l  An initializer_list.
 523:/opt/gcc/4.9.2/include/c++/4.9.2/bits/stl_vector.h ****        *
 524:/opt/gcc/4.9.2/include/c++/4.9.2/bits/stl_vector.h ****        *  This function fills a %vector with copies of the elements in the
 525:/opt/gcc/4.9.2/include/c++/4.9.2/bits/stl_vector.h ****        *  initializer list @a __l.
 526:/opt/gcc/4.9.2/include/c++/4.9.2/bits/stl_vector.h ****        *
 527:/opt/gcc/4.9.2/include/c++/4.9.2/bits/stl_vector.h ****        *  Note that the assignment completely changes the %vector and
 528:/opt/gcc/4.9.2/include/c++/4.9.2/bits/stl_vector.h ****        *  that the resulting %vector's size is the same as the number
 529:/opt/gcc/4.9.2/include/c++/4.9.2/bits/stl_vector.h ****        *  of elements assigned.  Old data may be lost.
 530:/opt/gcc/4.9.2/include/c++/4.9.2/bits/stl_vector.h ****        */
 531:/opt/gcc/4.9.2/include/c++/4.9.2/bits/stl_vector.h ****       void
 532:/opt/gcc/4.9.2/include/c++/4.9.2/bits/stl_vector.h ****       assign(initializer_list<value_type> __l)
 533:/opt/gcc/4.9.2/include/c++/4.9.2/bits/stl_vector.h ****       { this->assign(__l.begin(), __l.end()); }
 534:/opt/gcc/4.9.2/include/c++/4.9.2/bits/stl_vector.h **** #endif
 535:/opt/gcc/4.9.2/include/c++/4.9.2/bits/stl_vector.h **** 
 536:/opt/gcc/4.9.2/include/c++/4.9.2/bits/stl_vector.h ****       /// Get a copy of the memory allocation object.
 537:/opt/gcc/4.9.2/include/c++/4.9.2/bits/stl_vector.h ****       using _Base::get_allocator;
 538:/opt/gcc/4.9.2/include/c++/4.9.2/bits/stl_vector.h **** 
 539:/opt/gcc/4.9.2/include/c++/4.9.2/bits/stl_vector.h ****       // iterators
 540:/opt/gcc/4.9.2/include/c++/4.9.2/bits/stl_vector.h ****       /**
 541:/opt/gcc/4.9.2/include/c++/4.9.2/bits/stl_vector.h ****        *  Returns a read/write iterator that points to the first
 542:/opt/gcc/4.9.2/include/c++/4.9.2/bits/stl_vector.h ****        *  element in the %vector.  Iteration is done in ordinary
 543:/opt/gcc/4.9.2/include/c++/4.9.2/bits/stl_vector.h ****        *  element order.
 544:/opt/gcc/4.9.2/include/c++/4.9.2/bits/stl_vector.h ****        */
 545:/opt/gcc/4.9.2/include/c++/4.9.2/bits/stl_vector.h ****       iterator
 546:/opt/gcc/4.9.2/include/c++/4.9.2/bits/stl_vector.h ****       begin() _GLIBCXX_NOEXCEPT
 547:/opt/gcc/4.9.2/include/c++/4.9.2/bits/stl_vector.h ****       { return iterator(this->_M_impl._M_start); }
 548:/opt/gcc/4.9.2/include/c++/4.9.2/bits/stl_vector.h **** 
 549:/opt/gcc/4.9.2/include/c++/4.9.2/bits/stl_vector.h ****       /**
 550:/opt/gcc/4.9.2/include/c++/4.9.2/bits/stl_vector.h ****        *  Returns a read-only (constant) iterator that points to the
 551:/opt/gcc/4.9.2/include/c++/4.9.2/bits/stl_vector.h ****        *  first element in the %vector.  Iteration is done in ordinary
 552:/opt/gcc/4.9.2/include/c++/4.9.2/bits/stl_vector.h ****        *  element order.
 553:/opt/gcc/4.9.2/include/c++/4.9.2/bits/stl_vector.h ****        */
 554:/opt/gcc/4.9.2/include/c++/4.9.2/bits/stl_vector.h ****       const_iterator
 555:/opt/gcc/4.9.2/include/c++/4.9.2/bits/stl_vector.h ****       begin() const _GLIBCXX_NOEXCEPT
 556:/opt/gcc/4.9.2/include/c++/4.9.2/bits/stl_vector.h ****       { return const_iterator(this->_M_impl._M_start); }
 557:/opt/gcc/4.9.2/include/c++/4.9.2/bits/stl_vector.h **** 
 558:/opt/gcc/4.9.2/include/c++/4.9.2/bits/stl_vector.h ****       /**
 559:/opt/gcc/4.9.2/include/c++/4.9.2/bits/stl_vector.h ****        *  Returns a read/write iterator that points one past the last
 560:/opt/gcc/4.9.2/include/c++/4.9.2/bits/stl_vector.h ****        *  element in the %vector.  Iteration is done in ordinary
 561:/opt/gcc/4.9.2/include/c++/4.9.2/bits/stl_vector.h ****        *  element order.
 562:/opt/gcc/4.9.2/include/c++/4.9.2/bits/stl_vector.h ****        */
 563:/opt/gcc/4.9.2/include/c++/4.9.2/bits/stl_vector.h ****       iterator
 564:/opt/gcc/4.9.2/include/c++/4.9.2/bits/stl_vector.h ****       end() _GLIBCXX_NOEXCEPT
 565:/opt/gcc/4.9.2/include/c++/4.9.2/bits/stl_vector.h ****       { return iterator(this->_M_impl._M_finish); }
 566:/opt/gcc/4.9.2/include/c++/4.9.2/bits/stl_vector.h **** 
GAS LISTING /tmp/ccKUqHDa.s 			page 39


 567:/opt/gcc/4.9.2/include/c++/4.9.2/bits/stl_vector.h ****       /**
 568:/opt/gcc/4.9.2/include/c++/4.9.2/bits/stl_vector.h ****        *  Returns a read-only (constant) iterator that points one past
 569:/opt/gcc/4.9.2/include/c++/4.9.2/bits/stl_vector.h ****        *  the last element in the %vector.  Iteration is done in
 570:/opt/gcc/4.9.2/include/c++/4.9.2/bits/stl_vector.h ****        *  ordinary element order.
 571:/opt/gcc/4.9.2/include/c++/4.9.2/bits/stl_vector.h ****        */
 572:/opt/gcc/4.9.2/include/c++/4.9.2/bits/stl_vector.h ****       const_iterator
 573:/opt/gcc/4.9.2/include/c++/4.9.2/bits/stl_vector.h ****       end() const _GLIBCXX_NOEXCEPT
 574:/opt/gcc/4.9.2/include/c++/4.9.2/bits/stl_vector.h ****       { return const_iterator(this->_M_impl._M_finish); }
 575:/opt/gcc/4.9.2/include/c++/4.9.2/bits/stl_vector.h **** 
 576:/opt/gcc/4.9.2/include/c++/4.9.2/bits/stl_vector.h ****       /**
 577:/opt/gcc/4.9.2/include/c++/4.9.2/bits/stl_vector.h ****        *  Returns a read/write reverse iterator that points to the
 578:/opt/gcc/4.9.2/include/c++/4.9.2/bits/stl_vector.h ****        *  last element in the %vector.  Iteration is done in reverse
 579:/opt/gcc/4.9.2/include/c++/4.9.2/bits/stl_vector.h ****        *  element order.
 580:/opt/gcc/4.9.2/include/c++/4.9.2/bits/stl_vector.h ****        */
 581:/opt/gcc/4.9.2/include/c++/4.9.2/bits/stl_vector.h ****       reverse_iterator
 582:/opt/gcc/4.9.2/include/c++/4.9.2/bits/stl_vector.h ****       rbegin() _GLIBCXX_NOEXCEPT
 583:/opt/gcc/4.9.2/include/c++/4.9.2/bits/stl_vector.h ****       { return reverse_iterator(end()); }
 584:/opt/gcc/4.9.2/include/c++/4.9.2/bits/stl_vector.h **** 
 585:/opt/gcc/4.9.2/include/c++/4.9.2/bits/stl_vector.h ****       /**
 586:/opt/gcc/4.9.2/include/c++/4.9.2/bits/stl_vector.h ****        *  Returns a read-only (constant) reverse iterator that points
 587:/opt/gcc/4.9.2/include/c++/4.9.2/bits/stl_vector.h ****        *  to the last element in the %vector.  Iteration is done in
 588:/opt/gcc/4.9.2/include/c++/4.9.2/bits/stl_vector.h ****        *  reverse element order.
 589:/opt/gcc/4.9.2/include/c++/4.9.2/bits/stl_vector.h ****        */
 590:/opt/gcc/4.9.2/include/c++/4.9.2/bits/stl_vector.h ****       const_reverse_iterator
 591:/opt/gcc/4.9.2/include/c++/4.9.2/bits/stl_vector.h ****       rbegin() const _GLIBCXX_NOEXCEPT
 592:/opt/gcc/4.9.2/include/c++/4.9.2/bits/stl_vector.h ****       { return const_reverse_iterator(end()); }
 593:/opt/gcc/4.9.2/include/c++/4.9.2/bits/stl_vector.h **** 
 594:/opt/gcc/4.9.2/include/c++/4.9.2/bits/stl_vector.h ****       /**
 595:/opt/gcc/4.9.2/include/c++/4.9.2/bits/stl_vector.h ****        *  Returns a read/write reverse iterator that points to one
 596:/opt/gcc/4.9.2/include/c++/4.9.2/bits/stl_vector.h ****        *  before the first element in the %vector.  Iteration is done
 597:/opt/gcc/4.9.2/include/c++/4.9.2/bits/stl_vector.h ****        *  in reverse element order.
 598:/opt/gcc/4.9.2/include/c++/4.9.2/bits/stl_vector.h ****        */
 599:/opt/gcc/4.9.2/include/c++/4.9.2/bits/stl_vector.h ****       reverse_iterator
 600:/opt/gcc/4.9.2/include/c++/4.9.2/bits/stl_vector.h ****       rend() _GLIBCXX_NOEXCEPT
 601:/opt/gcc/4.9.2/include/c++/4.9.2/bits/stl_vector.h ****       { return reverse_iterator(begin()); }
 602:/opt/gcc/4.9.2/include/c++/4.9.2/bits/stl_vector.h **** 
 603:/opt/gcc/4.9.2/include/c++/4.9.2/bits/stl_vector.h ****       /**
 604:/opt/gcc/4.9.2/include/c++/4.9.2/bits/stl_vector.h ****        *  Returns a read-only (constant) reverse iterator that points
 605:/opt/gcc/4.9.2/include/c++/4.9.2/bits/stl_vector.h ****        *  to one before the first element in the %vector.  Iteration
 606:/opt/gcc/4.9.2/include/c++/4.9.2/bits/stl_vector.h ****        *  is done in reverse element order.
 607:/opt/gcc/4.9.2/include/c++/4.9.2/bits/stl_vector.h ****        */
 608:/opt/gcc/4.9.2/include/c++/4.9.2/bits/stl_vector.h ****       const_reverse_iterator
 609:/opt/gcc/4.9.2/include/c++/4.9.2/bits/stl_vector.h ****       rend() const _GLIBCXX_NOEXCEPT
 610:/opt/gcc/4.9.2/include/c++/4.9.2/bits/stl_vector.h ****       { return const_reverse_iterator(begin()); }
 611:/opt/gcc/4.9.2/include/c++/4.9.2/bits/stl_vector.h **** 
 612:/opt/gcc/4.9.2/include/c++/4.9.2/bits/stl_vector.h **** #if __cplusplus >= 201103L
 613:/opt/gcc/4.9.2/include/c++/4.9.2/bits/stl_vector.h ****       /**
 614:/opt/gcc/4.9.2/include/c++/4.9.2/bits/stl_vector.h ****        *  Returns a read-only (constant) iterator that points to the
 615:/opt/gcc/4.9.2/include/c++/4.9.2/bits/stl_vector.h ****        *  first element in the %vector.  Iteration is done in ordinary
 616:/opt/gcc/4.9.2/include/c++/4.9.2/bits/stl_vector.h ****        *  element order.
 617:/opt/gcc/4.9.2/include/c++/4.9.2/bits/stl_vector.h ****        */
 618:/opt/gcc/4.9.2/include/c++/4.9.2/bits/stl_vector.h ****       const_iterator
 619:/opt/gcc/4.9.2/include/c++/4.9.2/bits/stl_vector.h ****       cbegin() const noexcept
 620:/opt/gcc/4.9.2/include/c++/4.9.2/bits/stl_vector.h ****       { return const_iterator(this->_M_impl._M_start); }
 621:/opt/gcc/4.9.2/include/c++/4.9.2/bits/stl_vector.h **** 
 622:/opt/gcc/4.9.2/include/c++/4.9.2/bits/stl_vector.h ****       /**
 623:/opt/gcc/4.9.2/include/c++/4.9.2/bits/stl_vector.h ****        *  Returns a read-only (constant) iterator that points one past
GAS LISTING /tmp/ccKUqHDa.s 			page 40


 624:/opt/gcc/4.9.2/include/c++/4.9.2/bits/stl_vector.h ****        *  the last element in the %vector.  Iteration is done in
 625:/opt/gcc/4.9.2/include/c++/4.9.2/bits/stl_vector.h ****        *  ordinary element order.
 626:/opt/gcc/4.9.2/include/c++/4.9.2/bits/stl_vector.h ****        */
 627:/opt/gcc/4.9.2/include/c++/4.9.2/bits/stl_vector.h ****       const_iterator
 628:/opt/gcc/4.9.2/include/c++/4.9.2/bits/stl_vector.h ****       cend() const noexcept
 629:/opt/gcc/4.9.2/include/c++/4.9.2/bits/stl_vector.h ****       { return const_iterator(this->_M_impl._M_finish); }
 630:/opt/gcc/4.9.2/include/c++/4.9.2/bits/stl_vector.h **** 
 631:/opt/gcc/4.9.2/include/c++/4.9.2/bits/stl_vector.h ****       /**
 632:/opt/gcc/4.9.2/include/c++/4.9.2/bits/stl_vector.h ****        *  Returns a read-only (constant) reverse iterator that points
 633:/opt/gcc/4.9.2/include/c++/4.9.2/bits/stl_vector.h ****        *  to the last element in the %vector.  Iteration is done in
 634:/opt/gcc/4.9.2/include/c++/4.9.2/bits/stl_vector.h ****        *  reverse element order.
 635:/opt/gcc/4.9.2/include/c++/4.9.2/bits/stl_vector.h ****        */
 636:/opt/gcc/4.9.2/include/c++/4.9.2/bits/stl_vector.h ****       const_reverse_iterator
 637:/opt/gcc/4.9.2/include/c++/4.9.2/bits/stl_vector.h ****       crbegin() const noexcept
 638:/opt/gcc/4.9.2/include/c++/4.9.2/bits/stl_vector.h ****       { return const_reverse_iterator(end()); }
 639:/opt/gcc/4.9.2/include/c++/4.9.2/bits/stl_vector.h **** 
 640:/opt/gcc/4.9.2/include/c++/4.9.2/bits/stl_vector.h ****       /**
 641:/opt/gcc/4.9.2/include/c++/4.9.2/bits/stl_vector.h ****        *  Returns a read-only (constant) reverse iterator that points
 642:/opt/gcc/4.9.2/include/c++/4.9.2/bits/stl_vector.h ****        *  to one before the first element in the %vector.  Iteration
 643:/opt/gcc/4.9.2/include/c++/4.9.2/bits/stl_vector.h ****        *  is done in reverse element order.
 644:/opt/gcc/4.9.2/include/c++/4.9.2/bits/stl_vector.h ****        */
 645:/opt/gcc/4.9.2/include/c++/4.9.2/bits/stl_vector.h ****       const_reverse_iterator
 646:/opt/gcc/4.9.2/include/c++/4.9.2/bits/stl_vector.h ****       crend() const noexcept
 647:/opt/gcc/4.9.2/include/c++/4.9.2/bits/stl_vector.h ****       { return const_reverse_iterator(begin()); }
 648:/opt/gcc/4.9.2/include/c++/4.9.2/bits/stl_vector.h **** #endif
 649:/opt/gcc/4.9.2/include/c++/4.9.2/bits/stl_vector.h **** 
 650:/opt/gcc/4.9.2/include/c++/4.9.2/bits/stl_vector.h ****       // [23.2.4.2] capacity
 651:/opt/gcc/4.9.2/include/c++/4.9.2/bits/stl_vector.h ****       /**  Returns the number of elements in the %vector.  */
 652:/opt/gcc/4.9.2/include/c++/4.9.2/bits/stl_vector.h ****       size_type
 653:/opt/gcc/4.9.2/include/c++/4.9.2/bits/stl_vector.h ****       size() const _GLIBCXX_NOEXCEPT
 654:/opt/gcc/4.9.2/include/c++/4.9.2/bits/stl_vector.h ****       { return size_type(this->_M_impl._M_finish - this->_M_impl._M_start); }
 655:/opt/gcc/4.9.2/include/c++/4.9.2/bits/stl_vector.h **** 
 656:/opt/gcc/4.9.2/include/c++/4.9.2/bits/stl_vector.h ****       /**  Returns the size() of the largest possible %vector.  */
 657:/opt/gcc/4.9.2/include/c++/4.9.2/bits/stl_vector.h ****       size_type
 658:/opt/gcc/4.9.2/include/c++/4.9.2/bits/stl_vector.h ****       max_size() const _GLIBCXX_NOEXCEPT
 659:/opt/gcc/4.9.2/include/c++/4.9.2/bits/stl_vector.h ****       { return _Alloc_traits::max_size(_M_get_Tp_allocator()); }
 660:/opt/gcc/4.9.2/include/c++/4.9.2/bits/stl_vector.h **** 
 661:/opt/gcc/4.9.2/include/c++/4.9.2/bits/stl_vector.h **** #if __cplusplus >= 201103L
 662:/opt/gcc/4.9.2/include/c++/4.9.2/bits/stl_vector.h ****       /**
 663:/opt/gcc/4.9.2/include/c++/4.9.2/bits/stl_vector.h ****        *  @brief  Resizes the %vector to the specified number of elements.
 664:/opt/gcc/4.9.2/include/c++/4.9.2/bits/stl_vector.h ****        *  @param  __new_size  Number of elements the %vector should contain.
 665:/opt/gcc/4.9.2/include/c++/4.9.2/bits/stl_vector.h ****        *
 666:/opt/gcc/4.9.2/include/c++/4.9.2/bits/stl_vector.h ****        *  This function will %resize the %vector to the specified
 667:/opt/gcc/4.9.2/include/c++/4.9.2/bits/stl_vector.h ****        *  number of elements.  If the number is smaller than the
 668:/opt/gcc/4.9.2/include/c++/4.9.2/bits/stl_vector.h ****        *  %vector's current size the %vector is truncated, otherwise
 669:/opt/gcc/4.9.2/include/c++/4.9.2/bits/stl_vector.h ****        *  default constructed elements are appended.
 670:/opt/gcc/4.9.2/include/c++/4.9.2/bits/stl_vector.h ****        */
 671:/opt/gcc/4.9.2/include/c++/4.9.2/bits/stl_vector.h ****       void
 672:/opt/gcc/4.9.2/include/c++/4.9.2/bits/stl_vector.h ****       resize(size_type __new_size)
 673:/opt/gcc/4.9.2/include/c++/4.9.2/bits/stl_vector.h ****       {
 674:/opt/gcc/4.9.2/include/c++/4.9.2/bits/stl_vector.h **** 	if (__new_size > size())
 675:/opt/gcc/4.9.2/include/c++/4.9.2/bits/stl_vector.h **** 	  _M_default_append(__new_size - size());
 676:/opt/gcc/4.9.2/include/c++/4.9.2/bits/stl_vector.h **** 	else if (__new_size < size())
 677:/opt/gcc/4.9.2/include/c++/4.9.2/bits/stl_vector.h **** 	  _M_erase_at_end(this->_M_impl._M_start + __new_size);
 678:/opt/gcc/4.9.2/include/c++/4.9.2/bits/stl_vector.h ****       }
 679:/opt/gcc/4.9.2/include/c++/4.9.2/bits/stl_vector.h **** 
 680:/opt/gcc/4.9.2/include/c++/4.9.2/bits/stl_vector.h ****       /**
GAS LISTING /tmp/ccKUqHDa.s 			page 41


 681:/opt/gcc/4.9.2/include/c++/4.9.2/bits/stl_vector.h ****        *  @brief  Resizes the %vector to the specified number of elements.
 682:/opt/gcc/4.9.2/include/c++/4.9.2/bits/stl_vector.h ****        *  @param  __new_size  Number of elements the %vector should contain.
 683:/opt/gcc/4.9.2/include/c++/4.9.2/bits/stl_vector.h ****        *  @param  __x  Data with which new elements should be populated.
 684:/opt/gcc/4.9.2/include/c++/4.9.2/bits/stl_vector.h ****        *
 685:/opt/gcc/4.9.2/include/c++/4.9.2/bits/stl_vector.h ****        *  This function will %resize the %vector to the specified
 686:/opt/gcc/4.9.2/include/c++/4.9.2/bits/stl_vector.h ****        *  number of elements.  If the number is smaller than the
 687:/opt/gcc/4.9.2/include/c++/4.9.2/bits/stl_vector.h ****        *  %vector's current size the %vector is truncated, otherwise
 688:/opt/gcc/4.9.2/include/c++/4.9.2/bits/stl_vector.h ****        *  the %vector is extended and new elements are populated with
 689:/opt/gcc/4.9.2/include/c++/4.9.2/bits/stl_vector.h ****        *  given data.
 690:/opt/gcc/4.9.2/include/c++/4.9.2/bits/stl_vector.h ****        */
 691:/opt/gcc/4.9.2/include/c++/4.9.2/bits/stl_vector.h ****       void
 692:/opt/gcc/4.9.2/include/c++/4.9.2/bits/stl_vector.h ****       resize(size_type __new_size, const value_type& __x)
 693:/opt/gcc/4.9.2/include/c++/4.9.2/bits/stl_vector.h ****       {
 694:/opt/gcc/4.9.2/include/c++/4.9.2/bits/stl_vector.h **** 	if (__new_size > size())
 695:/opt/gcc/4.9.2/include/c++/4.9.2/bits/stl_vector.h **** 	  insert(end(), __new_size - size(), __x);
 696:/opt/gcc/4.9.2/include/c++/4.9.2/bits/stl_vector.h **** 	else if (__new_size < size())
 697:/opt/gcc/4.9.2/include/c++/4.9.2/bits/stl_vector.h **** 	  _M_erase_at_end(this->_M_impl._M_start + __new_size);
 698:/opt/gcc/4.9.2/include/c++/4.9.2/bits/stl_vector.h ****       }
 699:/opt/gcc/4.9.2/include/c++/4.9.2/bits/stl_vector.h **** #else
 700:/opt/gcc/4.9.2/include/c++/4.9.2/bits/stl_vector.h ****       /**
 701:/opt/gcc/4.9.2/include/c++/4.9.2/bits/stl_vector.h ****        *  @brief  Resizes the %vector to the specified number of elements.
 702:/opt/gcc/4.9.2/include/c++/4.9.2/bits/stl_vector.h ****        *  @param  __new_size  Number of elements the %vector should contain.
 703:/opt/gcc/4.9.2/include/c++/4.9.2/bits/stl_vector.h ****        *  @param  __x  Data with which new elements should be populated.
 704:/opt/gcc/4.9.2/include/c++/4.9.2/bits/stl_vector.h ****        *
 705:/opt/gcc/4.9.2/include/c++/4.9.2/bits/stl_vector.h ****        *  This function will %resize the %vector to the specified
 706:/opt/gcc/4.9.2/include/c++/4.9.2/bits/stl_vector.h ****        *  number of elements.  If the number is smaller than the
 707:/opt/gcc/4.9.2/include/c++/4.9.2/bits/stl_vector.h ****        *  %vector's current size the %vector is truncated, otherwise
 708:/opt/gcc/4.9.2/include/c++/4.9.2/bits/stl_vector.h ****        *  the %vector is extended and new elements are populated with
 709:/opt/gcc/4.9.2/include/c++/4.9.2/bits/stl_vector.h ****        *  given data.
 710:/opt/gcc/4.9.2/include/c++/4.9.2/bits/stl_vector.h ****        */
 711:/opt/gcc/4.9.2/include/c++/4.9.2/bits/stl_vector.h ****       void
 712:/opt/gcc/4.9.2/include/c++/4.9.2/bits/stl_vector.h ****       resize(size_type __new_size, value_type __x = value_type())
 713:/opt/gcc/4.9.2/include/c++/4.9.2/bits/stl_vector.h ****       {
 714:/opt/gcc/4.9.2/include/c++/4.9.2/bits/stl_vector.h **** 	if (__new_size > size())
 715:/opt/gcc/4.9.2/include/c++/4.9.2/bits/stl_vector.h **** 	  insert(end(), __new_size - size(), __x);
 716:/opt/gcc/4.9.2/include/c++/4.9.2/bits/stl_vector.h **** 	else if (__new_size < size())
 717:/opt/gcc/4.9.2/include/c++/4.9.2/bits/stl_vector.h **** 	  _M_erase_at_end(this->_M_impl._M_start + __new_size);
 718:/opt/gcc/4.9.2/include/c++/4.9.2/bits/stl_vector.h ****       }
 719:/opt/gcc/4.9.2/include/c++/4.9.2/bits/stl_vector.h **** #endif
 720:/opt/gcc/4.9.2/include/c++/4.9.2/bits/stl_vector.h **** 
 721:/opt/gcc/4.9.2/include/c++/4.9.2/bits/stl_vector.h **** #if __cplusplus >= 201103L
 722:/opt/gcc/4.9.2/include/c++/4.9.2/bits/stl_vector.h ****       /**  A non-binding request to reduce capacity() to size().  */
 723:/opt/gcc/4.9.2/include/c++/4.9.2/bits/stl_vector.h ****       void
 724:/opt/gcc/4.9.2/include/c++/4.9.2/bits/stl_vector.h ****       shrink_to_fit()
 725:/opt/gcc/4.9.2/include/c++/4.9.2/bits/stl_vector.h ****       { _M_shrink_to_fit(); }
 726:/opt/gcc/4.9.2/include/c++/4.9.2/bits/stl_vector.h **** #endif
 727:/opt/gcc/4.9.2/include/c++/4.9.2/bits/stl_vector.h **** 
 728:/opt/gcc/4.9.2/include/c++/4.9.2/bits/stl_vector.h ****       /**
 729:/opt/gcc/4.9.2/include/c++/4.9.2/bits/stl_vector.h ****        *  Returns the total number of elements that the %vector can
 730:/opt/gcc/4.9.2/include/c++/4.9.2/bits/stl_vector.h ****        *  hold before needing to allocate more memory.
 731:/opt/gcc/4.9.2/include/c++/4.9.2/bits/stl_vector.h ****        */
 732:/opt/gcc/4.9.2/include/c++/4.9.2/bits/stl_vector.h ****       size_type
 733:/opt/gcc/4.9.2/include/c++/4.9.2/bits/stl_vector.h ****       capacity() const _GLIBCXX_NOEXCEPT
 734:/opt/gcc/4.9.2/include/c++/4.9.2/bits/stl_vector.h ****       { return size_type(this->_M_impl._M_end_of_storage
 735:/opt/gcc/4.9.2/include/c++/4.9.2/bits/stl_vector.h **** 			 - this->_M_impl._M_start); }
 736:/opt/gcc/4.9.2/include/c++/4.9.2/bits/stl_vector.h **** 
 737:/opt/gcc/4.9.2/include/c++/4.9.2/bits/stl_vector.h ****       /**
GAS LISTING /tmp/ccKUqHDa.s 			page 42


 738:/opt/gcc/4.9.2/include/c++/4.9.2/bits/stl_vector.h ****        *  Returns true if the %vector is empty.  (Thus begin() would
 739:/opt/gcc/4.9.2/include/c++/4.9.2/bits/stl_vector.h ****        *  equal end().)
 740:/opt/gcc/4.9.2/include/c++/4.9.2/bits/stl_vector.h ****        */
 741:/opt/gcc/4.9.2/include/c++/4.9.2/bits/stl_vector.h ****       bool
 742:/opt/gcc/4.9.2/include/c++/4.9.2/bits/stl_vector.h ****       empty() const _GLIBCXX_NOEXCEPT
 743:/opt/gcc/4.9.2/include/c++/4.9.2/bits/stl_vector.h ****       { return begin() == end(); }
 744:/opt/gcc/4.9.2/include/c++/4.9.2/bits/stl_vector.h **** 
 745:/opt/gcc/4.9.2/include/c++/4.9.2/bits/stl_vector.h ****       /**
 746:/opt/gcc/4.9.2/include/c++/4.9.2/bits/stl_vector.h ****        *  @brief  Attempt to preallocate enough memory for specified number of
 747:/opt/gcc/4.9.2/include/c++/4.9.2/bits/stl_vector.h ****        *          elements.
 748:/opt/gcc/4.9.2/include/c++/4.9.2/bits/stl_vector.h ****        *  @param  __n  Number of elements required.
 749:/opt/gcc/4.9.2/include/c++/4.9.2/bits/stl_vector.h ****        *  @throw  std::length_error  If @a n exceeds @c max_size().
 750:/opt/gcc/4.9.2/include/c++/4.9.2/bits/stl_vector.h ****        *
 751:/opt/gcc/4.9.2/include/c++/4.9.2/bits/stl_vector.h ****        *  This function attempts to reserve enough memory for the
 752:/opt/gcc/4.9.2/include/c++/4.9.2/bits/stl_vector.h ****        *  %vector to hold the specified number of elements.  If the
 753:/opt/gcc/4.9.2/include/c++/4.9.2/bits/stl_vector.h ****        *  number requested is more than max_size(), length_error is
 754:/opt/gcc/4.9.2/include/c++/4.9.2/bits/stl_vector.h ****        *  thrown.
 755:/opt/gcc/4.9.2/include/c++/4.9.2/bits/stl_vector.h ****        *
 756:/opt/gcc/4.9.2/include/c++/4.9.2/bits/stl_vector.h ****        *  The advantage of this function is that if optimal code is a
 757:/opt/gcc/4.9.2/include/c++/4.9.2/bits/stl_vector.h ****        *  necessity and the user can determine the number of elements
 758:/opt/gcc/4.9.2/include/c++/4.9.2/bits/stl_vector.h ****        *  that will be required, the user can reserve the memory in
 759:/opt/gcc/4.9.2/include/c++/4.9.2/bits/stl_vector.h ****        *  %advance, and thus prevent a possible reallocation of memory
 760:/opt/gcc/4.9.2/include/c++/4.9.2/bits/stl_vector.h ****        *  and copying of %vector data.
 761:/opt/gcc/4.9.2/include/c++/4.9.2/bits/stl_vector.h ****        */
 762:/opt/gcc/4.9.2/include/c++/4.9.2/bits/stl_vector.h ****       void
 763:/opt/gcc/4.9.2/include/c++/4.9.2/bits/stl_vector.h ****       reserve(size_type __n);
 764:/opt/gcc/4.9.2/include/c++/4.9.2/bits/stl_vector.h **** 
 765:/opt/gcc/4.9.2/include/c++/4.9.2/bits/stl_vector.h ****       // element access
 766:/opt/gcc/4.9.2/include/c++/4.9.2/bits/stl_vector.h ****       /**
 767:/opt/gcc/4.9.2/include/c++/4.9.2/bits/stl_vector.h ****        *  @brief  Subscript access to the data contained in the %vector.
 768:/opt/gcc/4.9.2/include/c++/4.9.2/bits/stl_vector.h ****        *  @param __n The index of the element for which data should be
 769:/opt/gcc/4.9.2/include/c++/4.9.2/bits/stl_vector.h ****        *  accessed.
 770:/opt/gcc/4.9.2/include/c++/4.9.2/bits/stl_vector.h ****        *  @return  Read/write reference to data.
 771:/opt/gcc/4.9.2/include/c++/4.9.2/bits/stl_vector.h ****        *
 772:/opt/gcc/4.9.2/include/c++/4.9.2/bits/stl_vector.h ****        *  This operator allows for easy, array-style, data access.
 773:/opt/gcc/4.9.2/include/c++/4.9.2/bits/stl_vector.h ****        *  Note that data access with this operator is unchecked and
 774:/opt/gcc/4.9.2/include/c++/4.9.2/bits/stl_vector.h ****        *  out_of_range lookups are not defined. (For checked lookups
 775:/opt/gcc/4.9.2/include/c++/4.9.2/bits/stl_vector.h ****        *  see at().)
 776:/opt/gcc/4.9.2/include/c++/4.9.2/bits/stl_vector.h ****        */
 777:/opt/gcc/4.9.2/include/c++/4.9.2/bits/stl_vector.h ****       reference
 778:/opt/gcc/4.9.2/include/c++/4.9.2/bits/stl_vector.h ****       operator[](size_type __n) _GLIBCXX_NOEXCEPT
 779:/opt/gcc/4.9.2/include/c++/4.9.2/bits/stl_vector.h ****       { return *(this->_M_impl._M_start + __n); }
 780:/opt/gcc/4.9.2/include/c++/4.9.2/bits/stl_vector.h **** 
 781:/opt/gcc/4.9.2/include/c++/4.9.2/bits/stl_vector.h ****       /**
 782:/opt/gcc/4.9.2/include/c++/4.9.2/bits/stl_vector.h ****        *  @brief  Subscript access to the data contained in the %vector.
 783:/opt/gcc/4.9.2/include/c++/4.9.2/bits/stl_vector.h ****        *  @param __n The index of the element for which data should be
 784:/opt/gcc/4.9.2/include/c++/4.9.2/bits/stl_vector.h ****        *  accessed.
 785:/opt/gcc/4.9.2/include/c++/4.9.2/bits/stl_vector.h ****        *  @return  Read-only (constant) reference to data.
 786:/opt/gcc/4.9.2/include/c++/4.9.2/bits/stl_vector.h ****        *
 787:/opt/gcc/4.9.2/include/c++/4.9.2/bits/stl_vector.h ****        *  This operator allows for easy, array-style, data access.
 788:/opt/gcc/4.9.2/include/c++/4.9.2/bits/stl_vector.h ****        *  Note that data access with this operator is unchecked and
 789:/opt/gcc/4.9.2/include/c++/4.9.2/bits/stl_vector.h ****        *  out_of_range lookups are not defined. (For checked lookups
 790:/opt/gcc/4.9.2/include/c++/4.9.2/bits/stl_vector.h ****        *  see at().)
 791:/opt/gcc/4.9.2/include/c++/4.9.2/bits/stl_vector.h ****        */
 792:/opt/gcc/4.9.2/include/c++/4.9.2/bits/stl_vector.h ****       const_reference
 793:/opt/gcc/4.9.2/include/c++/4.9.2/bits/stl_vector.h ****       operator[](size_type __n) const _GLIBCXX_NOEXCEPT
 794:/opt/gcc/4.9.2/include/c++/4.9.2/bits/stl_vector.h ****       { return *(this->_M_impl._M_start + __n); }
GAS LISTING /tmp/ccKUqHDa.s 			page 43


 795:/opt/gcc/4.9.2/include/c++/4.9.2/bits/stl_vector.h **** 
 796:/opt/gcc/4.9.2/include/c++/4.9.2/bits/stl_vector.h ****     protected:
 797:/opt/gcc/4.9.2/include/c++/4.9.2/bits/stl_vector.h ****       /// Safety check used only from at().
 798:/opt/gcc/4.9.2/include/c++/4.9.2/bits/stl_vector.h ****       void
 799:/opt/gcc/4.9.2/include/c++/4.9.2/bits/stl_vector.h ****       _M_range_check(size_type __n) const
 800:/opt/gcc/4.9.2/include/c++/4.9.2/bits/stl_vector.h ****       {
 801:/opt/gcc/4.9.2/include/c++/4.9.2/bits/stl_vector.h **** 	if (__n >= this->size())
 802:/opt/gcc/4.9.2/include/c++/4.9.2/bits/stl_vector.h **** 	  __throw_out_of_range_fmt(__N("vector::_M_range_check: __n "
 803:/opt/gcc/4.9.2/include/c++/4.9.2/bits/stl_vector.h **** 				       "(which is %zu) >= this->size() "
 804:/opt/gcc/4.9.2/include/c++/4.9.2/bits/stl_vector.h **** 				       "(which is %zu)"),
 805:/opt/gcc/4.9.2/include/c++/4.9.2/bits/stl_vector.h **** 				   __n, this->size());
 806:/opt/gcc/4.9.2/include/c++/4.9.2/bits/stl_vector.h ****       }
 807:/opt/gcc/4.9.2/include/c++/4.9.2/bits/stl_vector.h **** 
 808:/opt/gcc/4.9.2/include/c++/4.9.2/bits/stl_vector.h ****     public:
 809:/opt/gcc/4.9.2/include/c++/4.9.2/bits/stl_vector.h ****       /**
 810:/opt/gcc/4.9.2/include/c++/4.9.2/bits/stl_vector.h ****        *  @brief  Provides access to the data contained in the %vector.
 811:/opt/gcc/4.9.2/include/c++/4.9.2/bits/stl_vector.h ****        *  @param __n The index of the element for which data should be
 812:/opt/gcc/4.9.2/include/c++/4.9.2/bits/stl_vector.h ****        *  accessed.
 813:/opt/gcc/4.9.2/include/c++/4.9.2/bits/stl_vector.h ****        *  @return  Read/write reference to data.
 814:/opt/gcc/4.9.2/include/c++/4.9.2/bits/stl_vector.h ****        *  @throw  std::out_of_range  If @a __n is an invalid index.
 815:/opt/gcc/4.9.2/include/c++/4.9.2/bits/stl_vector.h ****        *
 816:/opt/gcc/4.9.2/include/c++/4.9.2/bits/stl_vector.h ****        *  This function provides for safer data access.  The parameter
 817:/opt/gcc/4.9.2/include/c++/4.9.2/bits/stl_vector.h ****        *  is first checked that it is in the range of the vector.  The
 818:/opt/gcc/4.9.2/include/c++/4.9.2/bits/stl_vector.h ****        *  function throws out_of_range if the check fails.
 819:/opt/gcc/4.9.2/include/c++/4.9.2/bits/stl_vector.h ****        */
 820:/opt/gcc/4.9.2/include/c++/4.9.2/bits/stl_vector.h ****       reference
 821:/opt/gcc/4.9.2/include/c++/4.9.2/bits/stl_vector.h ****       at(size_type __n)
 822:/opt/gcc/4.9.2/include/c++/4.9.2/bits/stl_vector.h ****       {
 823:/opt/gcc/4.9.2/include/c++/4.9.2/bits/stl_vector.h **** 	_M_range_check(__n);
 824:/opt/gcc/4.9.2/include/c++/4.9.2/bits/stl_vector.h **** 	return (*this)[__n]; 
 825:/opt/gcc/4.9.2/include/c++/4.9.2/bits/stl_vector.h ****       }
 826:/opt/gcc/4.9.2/include/c++/4.9.2/bits/stl_vector.h **** 
 827:/opt/gcc/4.9.2/include/c++/4.9.2/bits/stl_vector.h ****       /**
 828:/opt/gcc/4.9.2/include/c++/4.9.2/bits/stl_vector.h ****        *  @brief  Provides access to the data contained in the %vector.
 829:/opt/gcc/4.9.2/include/c++/4.9.2/bits/stl_vector.h ****        *  @param __n The index of the element for which data should be
 830:/opt/gcc/4.9.2/include/c++/4.9.2/bits/stl_vector.h ****        *  accessed.
 831:/opt/gcc/4.9.2/include/c++/4.9.2/bits/stl_vector.h ****        *  @return  Read-only (constant) reference to data.
 832:/opt/gcc/4.9.2/include/c++/4.9.2/bits/stl_vector.h ****        *  @throw  std::out_of_range  If @a __n is an invalid index.
 833:/opt/gcc/4.9.2/include/c++/4.9.2/bits/stl_vector.h ****        *
 834:/opt/gcc/4.9.2/include/c++/4.9.2/bits/stl_vector.h ****        *  This function provides for safer data access.  The parameter
 835:/opt/gcc/4.9.2/include/c++/4.9.2/bits/stl_vector.h ****        *  is first checked that it is in the range of the vector.  The
 836:/opt/gcc/4.9.2/include/c++/4.9.2/bits/stl_vector.h ****        *  function throws out_of_range if the check fails.
 837:/opt/gcc/4.9.2/include/c++/4.9.2/bits/stl_vector.h ****        */
 838:/opt/gcc/4.9.2/include/c++/4.9.2/bits/stl_vector.h ****       const_reference
 839:/opt/gcc/4.9.2/include/c++/4.9.2/bits/stl_vector.h ****       at(size_type __n) const
 840:/opt/gcc/4.9.2/include/c++/4.9.2/bits/stl_vector.h ****       {
 841:/opt/gcc/4.9.2/include/c++/4.9.2/bits/stl_vector.h **** 	_M_range_check(__n);
 842:/opt/gcc/4.9.2/include/c++/4.9.2/bits/stl_vector.h **** 	return (*this)[__n];
 843:/opt/gcc/4.9.2/include/c++/4.9.2/bits/stl_vector.h ****       }
 844:/opt/gcc/4.9.2/include/c++/4.9.2/bits/stl_vector.h **** 
 845:/opt/gcc/4.9.2/include/c++/4.9.2/bits/stl_vector.h ****       /**
 846:/opt/gcc/4.9.2/include/c++/4.9.2/bits/stl_vector.h ****        *  Returns a read/write reference to the data at the first
 847:/opt/gcc/4.9.2/include/c++/4.9.2/bits/stl_vector.h ****        *  element of the %vector.
 848:/opt/gcc/4.9.2/include/c++/4.9.2/bits/stl_vector.h ****        */
 849:/opt/gcc/4.9.2/include/c++/4.9.2/bits/stl_vector.h ****       reference
 850:/opt/gcc/4.9.2/include/c++/4.9.2/bits/stl_vector.h ****       front() _GLIBCXX_NOEXCEPT
 851:/opt/gcc/4.9.2/include/c++/4.9.2/bits/stl_vector.h ****       { return *begin(); }
GAS LISTING /tmp/ccKUqHDa.s 			page 44


 852:/opt/gcc/4.9.2/include/c++/4.9.2/bits/stl_vector.h **** 
 853:/opt/gcc/4.9.2/include/c++/4.9.2/bits/stl_vector.h ****       /**
 854:/opt/gcc/4.9.2/include/c++/4.9.2/bits/stl_vector.h ****        *  Returns a read-only (constant) reference to the data at the first
 855:/opt/gcc/4.9.2/include/c++/4.9.2/bits/stl_vector.h ****        *  element of the %vector.
 856:/opt/gcc/4.9.2/include/c++/4.9.2/bits/stl_vector.h ****        */
 857:/opt/gcc/4.9.2/include/c++/4.9.2/bits/stl_vector.h ****       const_reference
 858:/opt/gcc/4.9.2/include/c++/4.9.2/bits/stl_vector.h ****       front() const _GLIBCXX_NOEXCEPT
 859:/opt/gcc/4.9.2/include/c++/4.9.2/bits/stl_vector.h ****       { return *begin(); }
 860:/opt/gcc/4.9.2/include/c++/4.9.2/bits/stl_vector.h **** 
 861:/opt/gcc/4.9.2/include/c++/4.9.2/bits/stl_vector.h ****       /**
 862:/opt/gcc/4.9.2/include/c++/4.9.2/bits/stl_vector.h ****        *  Returns a read/write reference to the data at the last
 863:/opt/gcc/4.9.2/include/c++/4.9.2/bits/stl_vector.h ****        *  element of the %vector.
 864:/opt/gcc/4.9.2/include/c++/4.9.2/bits/stl_vector.h ****        */
 865:/opt/gcc/4.9.2/include/c++/4.9.2/bits/stl_vector.h ****       reference
 866:/opt/gcc/4.9.2/include/c++/4.9.2/bits/stl_vector.h ****       back() _GLIBCXX_NOEXCEPT
 867:/opt/gcc/4.9.2/include/c++/4.9.2/bits/stl_vector.h ****       { return *(end() - 1); }
 868:/opt/gcc/4.9.2/include/c++/4.9.2/bits/stl_vector.h ****       
 869:/opt/gcc/4.9.2/include/c++/4.9.2/bits/stl_vector.h ****       /**
 870:/opt/gcc/4.9.2/include/c++/4.9.2/bits/stl_vector.h ****        *  Returns a read-only (constant) reference to the data at the
 871:/opt/gcc/4.9.2/include/c++/4.9.2/bits/stl_vector.h ****        *  last element of the %vector.
 872:/opt/gcc/4.9.2/include/c++/4.9.2/bits/stl_vector.h ****        */
 873:/opt/gcc/4.9.2/include/c++/4.9.2/bits/stl_vector.h ****       const_reference
 874:/opt/gcc/4.9.2/include/c++/4.9.2/bits/stl_vector.h ****       back() const _GLIBCXX_NOEXCEPT
 875:/opt/gcc/4.9.2/include/c++/4.9.2/bits/stl_vector.h ****       { return *(end() - 1); }
 876:/opt/gcc/4.9.2/include/c++/4.9.2/bits/stl_vector.h **** 
 877:/opt/gcc/4.9.2/include/c++/4.9.2/bits/stl_vector.h ****       // _GLIBCXX_RESOLVE_LIB_DEFECTS
 878:/opt/gcc/4.9.2/include/c++/4.9.2/bits/stl_vector.h ****       // DR 464. Suggestion for new member functions in standard containers.
 879:/opt/gcc/4.9.2/include/c++/4.9.2/bits/stl_vector.h ****       // data access
 880:/opt/gcc/4.9.2/include/c++/4.9.2/bits/stl_vector.h ****       /**
 881:/opt/gcc/4.9.2/include/c++/4.9.2/bits/stl_vector.h ****        *   Returns a pointer such that [data(), data() + size()) is a valid
 882:/opt/gcc/4.9.2/include/c++/4.9.2/bits/stl_vector.h ****        *   range.  For a non-empty %vector, data() == &front().
 883:/opt/gcc/4.9.2/include/c++/4.9.2/bits/stl_vector.h ****        */
 884:/opt/gcc/4.9.2/include/c++/4.9.2/bits/stl_vector.h **** #if __cplusplus >= 201103L
 885:/opt/gcc/4.9.2/include/c++/4.9.2/bits/stl_vector.h ****       _Tp*
 886:/opt/gcc/4.9.2/include/c++/4.9.2/bits/stl_vector.h **** #else
 887:/opt/gcc/4.9.2/include/c++/4.9.2/bits/stl_vector.h ****       pointer
 888:/opt/gcc/4.9.2/include/c++/4.9.2/bits/stl_vector.h **** #endif
 889:/opt/gcc/4.9.2/include/c++/4.9.2/bits/stl_vector.h ****       data() _GLIBCXX_NOEXCEPT
 890:/opt/gcc/4.9.2/include/c++/4.9.2/bits/stl_vector.h ****       { return _M_data_ptr(this->_M_impl._M_start); }
 891:/opt/gcc/4.9.2/include/c++/4.9.2/bits/stl_vector.h **** 
 892:/opt/gcc/4.9.2/include/c++/4.9.2/bits/stl_vector.h **** #if __cplusplus >= 201103L
 893:/opt/gcc/4.9.2/include/c++/4.9.2/bits/stl_vector.h ****       const _Tp*
 894:/opt/gcc/4.9.2/include/c++/4.9.2/bits/stl_vector.h **** #else
 895:/opt/gcc/4.9.2/include/c++/4.9.2/bits/stl_vector.h ****       const_pointer
 896:/opt/gcc/4.9.2/include/c++/4.9.2/bits/stl_vector.h **** #endif
 897:/opt/gcc/4.9.2/include/c++/4.9.2/bits/stl_vector.h ****       data() const _GLIBCXX_NOEXCEPT
 898:/opt/gcc/4.9.2/include/c++/4.9.2/bits/stl_vector.h ****       { return _M_data_ptr(this->_M_impl._M_start); }
 899:/opt/gcc/4.9.2/include/c++/4.9.2/bits/stl_vector.h **** 
 900:/opt/gcc/4.9.2/include/c++/4.9.2/bits/stl_vector.h ****       // [23.2.4.3] modifiers
 901:/opt/gcc/4.9.2/include/c++/4.9.2/bits/stl_vector.h ****       /**
 902:/opt/gcc/4.9.2/include/c++/4.9.2/bits/stl_vector.h ****        *  @brief  Add data to the end of the %vector.
 903:/opt/gcc/4.9.2/include/c++/4.9.2/bits/stl_vector.h ****        *  @param  __x  Data to be added.
 904:/opt/gcc/4.9.2/include/c++/4.9.2/bits/stl_vector.h ****        *
 905:/opt/gcc/4.9.2/include/c++/4.9.2/bits/stl_vector.h ****        *  This is a typical stack operation.  The function creates an
 906:/opt/gcc/4.9.2/include/c++/4.9.2/bits/stl_vector.h ****        *  element at the end of the %vector and assigns the given data
 907:/opt/gcc/4.9.2/include/c++/4.9.2/bits/stl_vector.h ****        *  to it.  Due to the nature of a %vector this operation can be
 908:/opt/gcc/4.9.2/include/c++/4.9.2/bits/stl_vector.h ****        *  done in constant time if the %vector has preallocated space
GAS LISTING /tmp/ccKUqHDa.s 			page 45


 909:/opt/gcc/4.9.2/include/c++/4.9.2/bits/stl_vector.h ****        *  available.
 910:/opt/gcc/4.9.2/include/c++/4.9.2/bits/stl_vector.h ****        */
 911:/opt/gcc/4.9.2/include/c++/4.9.2/bits/stl_vector.h ****       void
 912:/opt/gcc/4.9.2/include/c++/4.9.2/bits/stl_vector.h ****       push_back(const value_type& __x)
 913:/opt/gcc/4.9.2/include/c++/4.9.2/bits/stl_vector.h ****       {
 914:/opt/gcc/4.9.2/include/c++/4.9.2/bits/stl_vector.h **** 	if (this->_M_impl._M_finish != this->_M_impl._M_end_of_storage)
 915:/opt/gcc/4.9.2/include/c++/4.9.2/bits/stl_vector.h **** 	  {
 916:/opt/gcc/4.9.2/include/c++/4.9.2/bits/stl_vector.h **** 	    _Alloc_traits::construct(this->_M_impl, this->_M_impl._M_finish,
 917:/opt/gcc/4.9.2/include/c++/4.9.2/bits/stl_vector.h **** 	                             __x);
 918:/opt/gcc/4.9.2/include/c++/4.9.2/bits/stl_vector.h **** 	    ++this->_M_impl._M_finish;
 919:/opt/gcc/4.9.2/include/c++/4.9.2/bits/stl_vector.h **** 	  }
 920:/opt/gcc/4.9.2/include/c++/4.9.2/bits/stl_vector.h **** 	else
 921:/opt/gcc/4.9.2/include/c++/4.9.2/bits/stl_vector.h **** #if __cplusplus >= 201103L
 922:/opt/gcc/4.9.2/include/c++/4.9.2/bits/stl_vector.h **** 	  _M_emplace_back_aux(__x);
 923:/opt/gcc/4.9.2/include/c++/4.9.2/bits/stl_vector.h **** #else
 924:/opt/gcc/4.9.2/include/c++/4.9.2/bits/stl_vector.h **** 	  _M_insert_aux(end(), __x);
 925:/opt/gcc/4.9.2/include/c++/4.9.2/bits/stl_vector.h **** #endif
 926:/opt/gcc/4.9.2/include/c++/4.9.2/bits/stl_vector.h ****       }
 927:/opt/gcc/4.9.2/include/c++/4.9.2/bits/stl_vector.h **** 
 928:/opt/gcc/4.9.2/include/c++/4.9.2/bits/stl_vector.h **** #if __cplusplus >= 201103L
 929:/opt/gcc/4.9.2/include/c++/4.9.2/bits/stl_vector.h ****       void
 930:/opt/gcc/4.9.2/include/c++/4.9.2/bits/stl_vector.h ****       push_back(value_type&& __x)
 931:/opt/gcc/4.9.2/include/c++/4.9.2/bits/stl_vector.h ****       { emplace_back(std::move(__x)); }
 932:/opt/gcc/4.9.2/include/c++/4.9.2/bits/stl_vector.h **** 
 933:/opt/gcc/4.9.2/include/c++/4.9.2/bits/stl_vector.h ****       template<typename... _Args>
 934:/opt/gcc/4.9.2/include/c++/4.9.2/bits/stl_vector.h ****         void
 935:/opt/gcc/4.9.2/include/c++/4.9.2/bits/stl_vector.h ****         emplace_back(_Args&&... __args);
 936:/opt/gcc/4.9.2/include/c++/4.9.2/bits/stl_vector.h **** #endif
 937:/opt/gcc/4.9.2/include/c++/4.9.2/bits/stl_vector.h **** 
 938:/opt/gcc/4.9.2/include/c++/4.9.2/bits/stl_vector.h ****       /**
 939:/opt/gcc/4.9.2/include/c++/4.9.2/bits/stl_vector.h ****        *  @brief  Removes last element.
 940:/opt/gcc/4.9.2/include/c++/4.9.2/bits/stl_vector.h ****        *
 941:/opt/gcc/4.9.2/include/c++/4.9.2/bits/stl_vector.h ****        *  This is a typical stack operation. It shrinks the %vector by one.
 942:/opt/gcc/4.9.2/include/c++/4.9.2/bits/stl_vector.h ****        *
 943:/opt/gcc/4.9.2/include/c++/4.9.2/bits/stl_vector.h ****        *  Note that no data is returned, and if the last element's
 944:/opt/gcc/4.9.2/include/c++/4.9.2/bits/stl_vector.h ****        *  data is needed, it should be retrieved before pop_back() is
 945:/opt/gcc/4.9.2/include/c++/4.9.2/bits/stl_vector.h ****        *  called.
 946:/opt/gcc/4.9.2/include/c++/4.9.2/bits/stl_vector.h ****        */
 947:/opt/gcc/4.9.2/include/c++/4.9.2/bits/stl_vector.h ****       void
 948:/opt/gcc/4.9.2/include/c++/4.9.2/bits/stl_vector.h ****       pop_back() _GLIBCXX_NOEXCEPT
 949:/opt/gcc/4.9.2/include/c++/4.9.2/bits/stl_vector.h ****       {
 950:/opt/gcc/4.9.2/include/c++/4.9.2/bits/stl_vector.h **** 	--this->_M_impl._M_finish;
 951:/opt/gcc/4.9.2/include/c++/4.9.2/bits/stl_vector.h **** 	_Alloc_traits::destroy(this->_M_impl, this->_M_impl._M_finish);
 952:/opt/gcc/4.9.2/include/c++/4.9.2/bits/stl_vector.h ****       }
 953:/opt/gcc/4.9.2/include/c++/4.9.2/bits/stl_vector.h **** 
 954:/opt/gcc/4.9.2/include/c++/4.9.2/bits/stl_vector.h **** #if __cplusplus >= 201103L
 955:/opt/gcc/4.9.2/include/c++/4.9.2/bits/stl_vector.h ****       /**
 956:/opt/gcc/4.9.2/include/c++/4.9.2/bits/stl_vector.h ****        *  @brief  Inserts an object in %vector before specified iterator.
 957:/opt/gcc/4.9.2/include/c++/4.9.2/bits/stl_vector.h ****        *  @param  __position  A const_iterator into the %vector.
 958:/opt/gcc/4.9.2/include/c++/4.9.2/bits/stl_vector.h ****        *  @param  __args  Arguments.
 959:/opt/gcc/4.9.2/include/c++/4.9.2/bits/stl_vector.h ****        *  @return  An iterator that points to the inserted data.
 960:/opt/gcc/4.9.2/include/c++/4.9.2/bits/stl_vector.h ****        *
 961:/opt/gcc/4.9.2/include/c++/4.9.2/bits/stl_vector.h ****        *  This function will insert an object of type T constructed
 962:/opt/gcc/4.9.2/include/c++/4.9.2/bits/stl_vector.h ****        *  with T(std::forward<Args>(args)...) before the specified location.
 963:/opt/gcc/4.9.2/include/c++/4.9.2/bits/stl_vector.h ****        *  Note that this kind of operation could be expensive for a %vector
 964:/opt/gcc/4.9.2/include/c++/4.9.2/bits/stl_vector.h ****        *  and if it is frequently used the user should consider using
 965:/opt/gcc/4.9.2/include/c++/4.9.2/bits/stl_vector.h ****        *  std::list.
GAS LISTING /tmp/ccKUqHDa.s 			page 46


 966:/opt/gcc/4.9.2/include/c++/4.9.2/bits/stl_vector.h ****        */
 967:/opt/gcc/4.9.2/include/c++/4.9.2/bits/stl_vector.h ****       template<typename... _Args>
 968:/opt/gcc/4.9.2/include/c++/4.9.2/bits/stl_vector.h ****         iterator
 969:/opt/gcc/4.9.2/include/c++/4.9.2/bits/stl_vector.h ****         emplace(const_iterator __position, _Args&&... __args);
 970:/opt/gcc/4.9.2/include/c++/4.9.2/bits/stl_vector.h **** 
 971:/opt/gcc/4.9.2/include/c++/4.9.2/bits/stl_vector.h ****       /**
 972:/opt/gcc/4.9.2/include/c++/4.9.2/bits/stl_vector.h ****        *  @brief  Inserts given value into %vector before specified iterator.
 973:/opt/gcc/4.9.2/include/c++/4.9.2/bits/stl_vector.h ****        *  @param  __position  A const_iterator into the %vector.
 974:/opt/gcc/4.9.2/include/c++/4.9.2/bits/stl_vector.h ****        *  @param  __x  Data to be inserted.
 975:/opt/gcc/4.9.2/include/c++/4.9.2/bits/stl_vector.h ****        *  @return  An iterator that points to the inserted data.
 976:/opt/gcc/4.9.2/include/c++/4.9.2/bits/stl_vector.h ****        *
 977:/opt/gcc/4.9.2/include/c++/4.9.2/bits/stl_vector.h ****        *  This function will insert a copy of the given value before
 978:/opt/gcc/4.9.2/include/c++/4.9.2/bits/stl_vector.h ****        *  the specified location.  Note that this kind of operation
 979:/opt/gcc/4.9.2/include/c++/4.9.2/bits/stl_vector.h ****        *  could be expensive for a %vector and if it is frequently
 980:/opt/gcc/4.9.2/include/c++/4.9.2/bits/stl_vector.h ****        *  used the user should consider using std::list.
 981:/opt/gcc/4.9.2/include/c++/4.9.2/bits/stl_vector.h ****        */
 982:/opt/gcc/4.9.2/include/c++/4.9.2/bits/stl_vector.h ****       iterator
 983:/opt/gcc/4.9.2/include/c++/4.9.2/bits/stl_vector.h ****       insert(const_iterator __position, const value_type& __x);
 984:/opt/gcc/4.9.2/include/c++/4.9.2/bits/stl_vector.h **** #else
 985:/opt/gcc/4.9.2/include/c++/4.9.2/bits/stl_vector.h ****       /**
 986:/opt/gcc/4.9.2/include/c++/4.9.2/bits/stl_vector.h ****        *  @brief  Inserts given value into %vector before specified iterator.
 987:/opt/gcc/4.9.2/include/c++/4.9.2/bits/stl_vector.h ****        *  @param  __position  An iterator into the %vector.
 988:/opt/gcc/4.9.2/include/c++/4.9.2/bits/stl_vector.h ****        *  @param  __x  Data to be inserted.
 989:/opt/gcc/4.9.2/include/c++/4.9.2/bits/stl_vector.h ****        *  @return  An iterator that points to the inserted data.
 990:/opt/gcc/4.9.2/include/c++/4.9.2/bits/stl_vector.h ****        *
 991:/opt/gcc/4.9.2/include/c++/4.9.2/bits/stl_vector.h ****        *  This function will insert a copy of the given value before
 992:/opt/gcc/4.9.2/include/c++/4.9.2/bits/stl_vector.h ****        *  the specified location.  Note that this kind of operation
 993:/opt/gcc/4.9.2/include/c++/4.9.2/bits/stl_vector.h ****        *  could be expensive for a %vector and if it is frequently
 994:/opt/gcc/4.9.2/include/c++/4.9.2/bits/stl_vector.h ****        *  used the user should consider using std::list.
 995:/opt/gcc/4.9.2/include/c++/4.9.2/bits/stl_vector.h ****        */
 996:/opt/gcc/4.9.2/include/c++/4.9.2/bits/stl_vector.h ****       iterator
 997:/opt/gcc/4.9.2/include/c++/4.9.2/bits/stl_vector.h ****       insert(iterator __position, const value_type& __x);
 998:/opt/gcc/4.9.2/include/c++/4.9.2/bits/stl_vector.h **** #endif
 999:/opt/gcc/4.9.2/include/c++/4.9.2/bits/stl_vector.h **** 
1000:/opt/gcc/4.9.2/include/c++/4.9.2/bits/stl_vector.h **** #if __cplusplus >= 201103L
1001:/opt/gcc/4.9.2/include/c++/4.9.2/bits/stl_vector.h ****       /**
1002:/opt/gcc/4.9.2/include/c++/4.9.2/bits/stl_vector.h ****        *  @brief  Inserts given rvalue into %vector before specified iterator.
1003:/opt/gcc/4.9.2/include/c++/4.9.2/bits/stl_vector.h ****        *  @param  __position  A const_iterator into the %vector.
1004:/opt/gcc/4.9.2/include/c++/4.9.2/bits/stl_vector.h ****        *  @param  __x  Data to be inserted.
1005:/opt/gcc/4.9.2/include/c++/4.9.2/bits/stl_vector.h ****        *  @return  An iterator that points to the inserted data.
1006:/opt/gcc/4.9.2/include/c++/4.9.2/bits/stl_vector.h ****        *
1007:/opt/gcc/4.9.2/include/c++/4.9.2/bits/stl_vector.h ****        *  This function will insert a copy of the given rvalue before
1008:/opt/gcc/4.9.2/include/c++/4.9.2/bits/stl_vector.h ****        *  the specified location.  Note that this kind of operation
1009:/opt/gcc/4.9.2/include/c++/4.9.2/bits/stl_vector.h ****        *  could be expensive for a %vector and if it is frequently
1010:/opt/gcc/4.9.2/include/c++/4.9.2/bits/stl_vector.h ****        *  used the user should consider using std::list.
1011:/opt/gcc/4.9.2/include/c++/4.9.2/bits/stl_vector.h ****        */
1012:/opt/gcc/4.9.2/include/c++/4.9.2/bits/stl_vector.h ****       iterator
1013:/opt/gcc/4.9.2/include/c++/4.9.2/bits/stl_vector.h ****       insert(const_iterator __position, value_type&& __x)
1014:/opt/gcc/4.9.2/include/c++/4.9.2/bits/stl_vector.h ****       { return emplace(__position, std::move(__x)); }
1015:/opt/gcc/4.9.2/include/c++/4.9.2/bits/stl_vector.h **** 
1016:/opt/gcc/4.9.2/include/c++/4.9.2/bits/stl_vector.h ****       /**
1017:/opt/gcc/4.9.2/include/c++/4.9.2/bits/stl_vector.h ****        *  @brief  Inserts an initializer_list into the %vector.
1018:/opt/gcc/4.9.2/include/c++/4.9.2/bits/stl_vector.h ****        *  @param  __position  An iterator into the %vector.
1019:/opt/gcc/4.9.2/include/c++/4.9.2/bits/stl_vector.h ****        *  @param  __l  An initializer_list.
1020:/opt/gcc/4.9.2/include/c++/4.9.2/bits/stl_vector.h ****        *
1021:/opt/gcc/4.9.2/include/c++/4.9.2/bits/stl_vector.h ****        *  This function will insert copies of the data in the 
1022:/opt/gcc/4.9.2/include/c++/4.9.2/bits/stl_vector.h ****        *  initializer_list @a l into the %vector before the location
GAS LISTING /tmp/ccKUqHDa.s 			page 47


1023:/opt/gcc/4.9.2/include/c++/4.9.2/bits/stl_vector.h ****        *  specified by @a position.
1024:/opt/gcc/4.9.2/include/c++/4.9.2/bits/stl_vector.h ****        *
1025:/opt/gcc/4.9.2/include/c++/4.9.2/bits/stl_vector.h ****        *  Note that this kind of operation could be expensive for a
1026:/opt/gcc/4.9.2/include/c++/4.9.2/bits/stl_vector.h ****        *  %vector and if it is frequently used the user should
1027:/opt/gcc/4.9.2/include/c++/4.9.2/bits/stl_vector.h ****        *  consider using std::list.
1028:/opt/gcc/4.9.2/include/c++/4.9.2/bits/stl_vector.h ****        */
1029:/opt/gcc/4.9.2/include/c++/4.9.2/bits/stl_vector.h ****       iterator
1030:/opt/gcc/4.9.2/include/c++/4.9.2/bits/stl_vector.h ****       insert(const_iterator __position, initializer_list<value_type> __l)
1031:/opt/gcc/4.9.2/include/c++/4.9.2/bits/stl_vector.h ****       { return this->insert(__position, __l.begin(), __l.end()); }
1032:/opt/gcc/4.9.2/include/c++/4.9.2/bits/stl_vector.h **** #endif
1033:/opt/gcc/4.9.2/include/c++/4.9.2/bits/stl_vector.h **** 
1034:/opt/gcc/4.9.2/include/c++/4.9.2/bits/stl_vector.h **** #if __cplusplus >= 201103L
1035:/opt/gcc/4.9.2/include/c++/4.9.2/bits/stl_vector.h ****       /**
1036:/opt/gcc/4.9.2/include/c++/4.9.2/bits/stl_vector.h ****        *  @brief  Inserts a number of copies of given data into the %vector.
1037:/opt/gcc/4.9.2/include/c++/4.9.2/bits/stl_vector.h ****        *  @param  __position  A const_iterator into the %vector.
1038:/opt/gcc/4.9.2/include/c++/4.9.2/bits/stl_vector.h ****        *  @param  __n  Number of elements to be inserted.
1039:/opt/gcc/4.9.2/include/c++/4.9.2/bits/stl_vector.h ****        *  @param  __x  Data to be inserted.
1040:/opt/gcc/4.9.2/include/c++/4.9.2/bits/stl_vector.h ****        *  @return  An iterator that points to the inserted data.
1041:/opt/gcc/4.9.2/include/c++/4.9.2/bits/stl_vector.h ****        *
1042:/opt/gcc/4.9.2/include/c++/4.9.2/bits/stl_vector.h ****        *  This function will insert a specified number of copies of
1043:/opt/gcc/4.9.2/include/c++/4.9.2/bits/stl_vector.h ****        *  the given data before the location specified by @a position.
1044:/opt/gcc/4.9.2/include/c++/4.9.2/bits/stl_vector.h ****        *
1045:/opt/gcc/4.9.2/include/c++/4.9.2/bits/stl_vector.h ****        *  Note that this kind of operation could be expensive for a
1046:/opt/gcc/4.9.2/include/c++/4.9.2/bits/stl_vector.h ****        *  %vector and if it is frequently used the user should
1047:/opt/gcc/4.9.2/include/c++/4.9.2/bits/stl_vector.h ****        *  consider using std::list.
1048:/opt/gcc/4.9.2/include/c++/4.9.2/bits/stl_vector.h ****        */
1049:/opt/gcc/4.9.2/include/c++/4.9.2/bits/stl_vector.h ****       iterator
1050:/opt/gcc/4.9.2/include/c++/4.9.2/bits/stl_vector.h ****       insert(const_iterator __position, size_type __n, const value_type& __x)
1051:/opt/gcc/4.9.2/include/c++/4.9.2/bits/stl_vector.h ****       {
1052:/opt/gcc/4.9.2/include/c++/4.9.2/bits/stl_vector.h **** 	difference_type __offset = __position - cbegin();
1053:/opt/gcc/4.9.2/include/c++/4.9.2/bits/stl_vector.h **** 	_M_fill_insert(begin() + __offset, __n, __x);
1054:/opt/gcc/4.9.2/include/c++/4.9.2/bits/stl_vector.h **** 	return begin() + __offset;
1055:/opt/gcc/4.9.2/include/c++/4.9.2/bits/stl_vector.h ****       }
1056:/opt/gcc/4.9.2/include/c++/4.9.2/bits/stl_vector.h **** #else
1057:/opt/gcc/4.9.2/include/c++/4.9.2/bits/stl_vector.h ****       /**
1058:/opt/gcc/4.9.2/include/c++/4.9.2/bits/stl_vector.h ****        *  @brief  Inserts a number of copies of given data into the %vector.
1059:/opt/gcc/4.9.2/include/c++/4.9.2/bits/stl_vector.h ****        *  @param  __position  An iterator into the %vector.
1060:/opt/gcc/4.9.2/include/c++/4.9.2/bits/stl_vector.h ****        *  @param  __n  Number of elements to be inserted.
1061:/opt/gcc/4.9.2/include/c++/4.9.2/bits/stl_vector.h ****        *  @param  __x  Data to be inserted.
1062:/opt/gcc/4.9.2/include/c++/4.9.2/bits/stl_vector.h ****        *
1063:/opt/gcc/4.9.2/include/c++/4.9.2/bits/stl_vector.h ****        *  This function will insert a specified number of copies of
1064:/opt/gcc/4.9.2/include/c++/4.9.2/bits/stl_vector.h ****        *  the given data before the location specified by @a position.
1065:/opt/gcc/4.9.2/include/c++/4.9.2/bits/stl_vector.h ****        *
1066:/opt/gcc/4.9.2/include/c++/4.9.2/bits/stl_vector.h ****        *  Note that this kind of operation could be expensive for a
1067:/opt/gcc/4.9.2/include/c++/4.9.2/bits/stl_vector.h ****        *  %vector and if it is frequently used the user should
1068:/opt/gcc/4.9.2/include/c++/4.9.2/bits/stl_vector.h ****        *  consider using std::list.
1069:/opt/gcc/4.9.2/include/c++/4.9.2/bits/stl_vector.h ****        */
1070:/opt/gcc/4.9.2/include/c++/4.9.2/bits/stl_vector.h ****       void
1071:/opt/gcc/4.9.2/include/c++/4.9.2/bits/stl_vector.h ****       insert(iterator __position, size_type __n, const value_type& __x)
1072:/opt/gcc/4.9.2/include/c++/4.9.2/bits/stl_vector.h ****       { _M_fill_insert(__position, __n, __x); }
1073:/opt/gcc/4.9.2/include/c++/4.9.2/bits/stl_vector.h **** #endif
1074:/opt/gcc/4.9.2/include/c++/4.9.2/bits/stl_vector.h **** 
1075:/opt/gcc/4.9.2/include/c++/4.9.2/bits/stl_vector.h **** #if __cplusplus >= 201103L
1076:/opt/gcc/4.9.2/include/c++/4.9.2/bits/stl_vector.h ****       /**
1077:/opt/gcc/4.9.2/include/c++/4.9.2/bits/stl_vector.h ****        *  @brief  Inserts a range into the %vector.
1078:/opt/gcc/4.9.2/include/c++/4.9.2/bits/stl_vector.h ****        *  @param  __position  A const_iterator into the %vector.
1079:/opt/gcc/4.9.2/include/c++/4.9.2/bits/stl_vector.h ****        *  @param  __first  An input iterator.
GAS LISTING /tmp/ccKUqHDa.s 			page 48


1080:/opt/gcc/4.9.2/include/c++/4.9.2/bits/stl_vector.h ****        *  @param  __last   An input iterator.
1081:/opt/gcc/4.9.2/include/c++/4.9.2/bits/stl_vector.h ****        *  @return  An iterator that points to the inserted data.
1082:/opt/gcc/4.9.2/include/c++/4.9.2/bits/stl_vector.h ****        *
1083:/opt/gcc/4.9.2/include/c++/4.9.2/bits/stl_vector.h ****        *  This function will insert copies of the data in the range
1084:/opt/gcc/4.9.2/include/c++/4.9.2/bits/stl_vector.h ****        *  [__first,__last) into the %vector before the location specified
1085:/opt/gcc/4.9.2/include/c++/4.9.2/bits/stl_vector.h ****        *  by @a pos.
1086:/opt/gcc/4.9.2/include/c++/4.9.2/bits/stl_vector.h ****        *
1087:/opt/gcc/4.9.2/include/c++/4.9.2/bits/stl_vector.h ****        *  Note that this kind of operation could be expensive for a
1088:/opt/gcc/4.9.2/include/c++/4.9.2/bits/stl_vector.h ****        *  %vector and if it is frequently used the user should
1089:/opt/gcc/4.9.2/include/c++/4.9.2/bits/stl_vector.h ****        *  consider using std::list.
1090:/opt/gcc/4.9.2/include/c++/4.9.2/bits/stl_vector.h ****        */
1091:/opt/gcc/4.9.2/include/c++/4.9.2/bits/stl_vector.h ****       template<typename _InputIterator,
1092:/opt/gcc/4.9.2/include/c++/4.9.2/bits/stl_vector.h **** 	       typename = std::_RequireInputIter<_InputIterator>>
1093:/opt/gcc/4.9.2/include/c++/4.9.2/bits/stl_vector.h ****         iterator
1094:/opt/gcc/4.9.2/include/c++/4.9.2/bits/stl_vector.h ****         insert(const_iterator __position, _InputIterator __first,
1095:/opt/gcc/4.9.2/include/c++/4.9.2/bits/stl_vector.h **** 	       _InputIterator __last)
1096:/opt/gcc/4.9.2/include/c++/4.9.2/bits/stl_vector.h ****         {
1097:/opt/gcc/4.9.2/include/c++/4.9.2/bits/stl_vector.h **** 	  difference_type __offset = __position - cbegin();
1098:/opt/gcc/4.9.2/include/c++/4.9.2/bits/stl_vector.h **** 	  _M_insert_dispatch(begin() + __offset,
1099:/opt/gcc/4.9.2/include/c++/4.9.2/bits/stl_vector.h **** 			     __first, __last, __false_type());
1100:/opt/gcc/4.9.2/include/c++/4.9.2/bits/stl_vector.h **** 	  return begin() + __offset;
1101:/opt/gcc/4.9.2/include/c++/4.9.2/bits/stl_vector.h **** 	}
1102:/opt/gcc/4.9.2/include/c++/4.9.2/bits/stl_vector.h **** #else
1103:/opt/gcc/4.9.2/include/c++/4.9.2/bits/stl_vector.h ****       /**
1104:/opt/gcc/4.9.2/include/c++/4.9.2/bits/stl_vector.h ****        *  @brief  Inserts a range into the %vector.
1105:/opt/gcc/4.9.2/include/c++/4.9.2/bits/stl_vector.h ****        *  @param  __position  An iterator into the %vector.
1106:/opt/gcc/4.9.2/include/c++/4.9.2/bits/stl_vector.h ****        *  @param  __first  An input iterator.
1107:/opt/gcc/4.9.2/include/c++/4.9.2/bits/stl_vector.h ****        *  @param  __last   An input iterator.
1108:/opt/gcc/4.9.2/include/c++/4.9.2/bits/stl_vector.h ****        *
1109:/opt/gcc/4.9.2/include/c++/4.9.2/bits/stl_vector.h ****        *  This function will insert copies of the data in the range
1110:/opt/gcc/4.9.2/include/c++/4.9.2/bits/stl_vector.h ****        *  [__first,__last) into the %vector before the location specified
1111:/opt/gcc/4.9.2/include/c++/4.9.2/bits/stl_vector.h ****        *  by @a pos.
1112:/opt/gcc/4.9.2/include/c++/4.9.2/bits/stl_vector.h ****        *
1113:/opt/gcc/4.9.2/include/c++/4.9.2/bits/stl_vector.h ****        *  Note that this kind of operation could be expensive for a
1114:/opt/gcc/4.9.2/include/c++/4.9.2/bits/stl_vector.h ****        *  %vector and if it is frequently used the user should
1115:/opt/gcc/4.9.2/include/c++/4.9.2/bits/stl_vector.h ****        *  consider using std::list.
1116:/opt/gcc/4.9.2/include/c++/4.9.2/bits/stl_vector.h ****        */
1117:/opt/gcc/4.9.2/include/c++/4.9.2/bits/stl_vector.h ****       template<typename _InputIterator>
1118:/opt/gcc/4.9.2/include/c++/4.9.2/bits/stl_vector.h ****         void
1119:/opt/gcc/4.9.2/include/c++/4.9.2/bits/stl_vector.h ****         insert(iterator __position, _InputIterator __first,
1120:/opt/gcc/4.9.2/include/c++/4.9.2/bits/stl_vector.h **** 	       _InputIterator __last)
1121:/opt/gcc/4.9.2/include/c++/4.9.2/bits/stl_vector.h ****         {
1122:/opt/gcc/4.9.2/include/c++/4.9.2/bits/stl_vector.h **** 	  // Check whether it's an integral type.  If so, it's not an iterator.
1123:/opt/gcc/4.9.2/include/c++/4.9.2/bits/stl_vector.h **** 	  typedef typename std::__is_integer<_InputIterator>::__type _Integral;
1124:/opt/gcc/4.9.2/include/c++/4.9.2/bits/stl_vector.h **** 	  _M_insert_dispatch(__position, __first, __last, _Integral());
1125:/opt/gcc/4.9.2/include/c++/4.9.2/bits/stl_vector.h **** 	}
1126:/opt/gcc/4.9.2/include/c++/4.9.2/bits/stl_vector.h **** #endif
1127:/opt/gcc/4.9.2/include/c++/4.9.2/bits/stl_vector.h **** 
1128:/opt/gcc/4.9.2/include/c++/4.9.2/bits/stl_vector.h ****       /**
1129:/opt/gcc/4.9.2/include/c++/4.9.2/bits/stl_vector.h ****        *  @brief  Remove element at given position.
1130:/opt/gcc/4.9.2/include/c++/4.9.2/bits/stl_vector.h ****        *  @param  __position  Iterator pointing to element to be erased.
1131:/opt/gcc/4.9.2/include/c++/4.9.2/bits/stl_vector.h ****        *  @return  An iterator pointing to the next element (or end()).
1132:/opt/gcc/4.9.2/include/c++/4.9.2/bits/stl_vector.h ****        *
1133:/opt/gcc/4.9.2/include/c++/4.9.2/bits/stl_vector.h ****        *  This function will erase the element at the given position and thus
1134:/opt/gcc/4.9.2/include/c++/4.9.2/bits/stl_vector.h ****        *  shorten the %vector by one.
1135:/opt/gcc/4.9.2/include/c++/4.9.2/bits/stl_vector.h ****        *
1136:/opt/gcc/4.9.2/include/c++/4.9.2/bits/stl_vector.h ****        *  Note This operation could be expensive and if it is
GAS LISTING /tmp/ccKUqHDa.s 			page 49


1137:/opt/gcc/4.9.2/include/c++/4.9.2/bits/stl_vector.h ****        *  frequently used the user should consider using std::list.
1138:/opt/gcc/4.9.2/include/c++/4.9.2/bits/stl_vector.h ****        *  The user is also cautioned that this function only erases
1139:/opt/gcc/4.9.2/include/c++/4.9.2/bits/stl_vector.h ****        *  the element, and that if the element is itself a pointer,
1140:/opt/gcc/4.9.2/include/c++/4.9.2/bits/stl_vector.h ****        *  the pointed-to memory is not touched in any way.  Managing
1141:/opt/gcc/4.9.2/include/c++/4.9.2/bits/stl_vector.h ****        *  the pointer is the user's responsibility.
1142:/opt/gcc/4.9.2/include/c++/4.9.2/bits/stl_vector.h ****        */
1143:/opt/gcc/4.9.2/include/c++/4.9.2/bits/stl_vector.h ****       iterator
1144:/opt/gcc/4.9.2/include/c++/4.9.2/bits/stl_vector.h **** #if __cplusplus >= 201103L
1145:/opt/gcc/4.9.2/include/c++/4.9.2/bits/stl_vector.h ****       erase(const_iterator __position)
1146:/opt/gcc/4.9.2/include/c++/4.9.2/bits/stl_vector.h ****       { return _M_erase(begin() + (__position - cbegin())); }
1147:/opt/gcc/4.9.2/include/c++/4.9.2/bits/stl_vector.h **** #else
1148:/opt/gcc/4.9.2/include/c++/4.9.2/bits/stl_vector.h ****       erase(iterator __position)
1149:/opt/gcc/4.9.2/include/c++/4.9.2/bits/stl_vector.h ****       { return _M_erase(__position); }
1150:/opt/gcc/4.9.2/include/c++/4.9.2/bits/stl_vector.h **** #endif
1151:/opt/gcc/4.9.2/include/c++/4.9.2/bits/stl_vector.h **** 
1152:/opt/gcc/4.9.2/include/c++/4.9.2/bits/stl_vector.h ****       /**
1153:/opt/gcc/4.9.2/include/c++/4.9.2/bits/stl_vector.h ****        *  @brief  Remove a range of elements.
1154:/opt/gcc/4.9.2/include/c++/4.9.2/bits/stl_vector.h ****        *  @param  __first  Iterator pointing to the first element to be erased.
1155:/opt/gcc/4.9.2/include/c++/4.9.2/bits/stl_vector.h ****        *  @param  __last  Iterator pointing to one past the last element to be
1156:/opt/gcc/4.9.2/include/c++/4.9.2/bits/stl_vector.h ****        *                  erased.
1157:/opt/gcc/4.9.2/include/c++/4.9.2/bits/stl_vector.h ****        *  @return  An iterator pointing to the element pointed to by @a __last
1158:/opt/gcc/4.9.2/include/c++/4.9.2/bits/stl_vector.h ****        *           prior to erasing (or end()).
1159:/opt/gcc/4.9.2/include/c++/4.9.2/bits/stl_vector.h ****        *
1160:/opt/gcc/4.9.2/include/c++/4.9.2/bits/stl_vector.h ****        *  This function will erase the elements in the range
1161:/opt/gcc/4.9.2/include/c++/4.9.2/bits/stl_vector.h ****        *  [__first,__last) and shorten the %vector accordingly.
1162:/opt/gcc/4.9.2/include/c++/4.9.2/bits/stl_vector.h ****        *
1163:/opt/gcc/4.9.2/include/c++/4.9.2/bits/stl_vector.h ****        *  Note This operation could be expensive and if it is
1164:/opt/gcc/4.9.2/include/c++/4.9.2/bits/stl_vector.h ****        *  frequently used the user should consider using std::list.
1165:/opt/gcc/4.9.2/include/c++/4.9.2/bits/stl_vector.h ****        *  The user is also cautioned that this function only erases
1166:/opt/gcc/4.9.2/include/c++/4.9.2/bits/stl_vector.h ****        *  the elements, and that if the elements themselves are
1167:/opt/gcc/4.9.2/include/c++/4.9.2/bits/stl_vector.h ****        *  pointers, the pointed-to memory is not touched in any way.
1168:/opt/gcc/4.9.2/include/c++/4.9.2/bits/stl_vector.h ****        *  Managing the pointer is the user's responsibility.
1169:/opt/gcc/4.9.2/include/c++/4.9.2/bits/stl_vector.h ****        */
1170:/opt/gcc/4.9.2/include/c++/4.9.2/bits/stl_vector.h ****       iterator
1171:/opt/gcc/4.9.2/include/c++/4.9.2/bits/stl_vector.h **** #if __cplusplus >= 201103L
1172:/opt/gcc/4.9.2/include/c++/4.9.2/bits/stl_vector.h ****       erase(const_iterator __first, const_iterator __last)
1173:/opt/gcc/4.9.2/include/c++/4.9.2/bits/stl_vector.h ****       {
1174:/opt/gcc/4.9.2/include/c++/4.9.2/bits/stl_vector.h **** 	const auto __beg = begin();
1175:/opt/gcc/4.9.2/include/c++/4.9.2/bits/stl_vector.h **** 	const auto __cbeg = cbegin();
1176:/opt/gcc/4.9.2/include/c++/4.9.2/bits/stl_vector.h **** 	return _M_erase(__beg + (__first - __cbeg), __beg + (__last - __cbeg));
1177:/opt/gcc/4.9.2/include/c++/4.9.2/bits/stl_vector.h ****       }
1178:/opt/gcc/4.9.2/include/c++/4.9.2/bits/stl_vector.h **** #else
1179:/opt/gcc/4.9.2/include/c++/4.9.2/bits/stl_vector.h ****       erase(iterator __first, iterator __last)
1180:/opt/gcc/4.9.2/include/c++/4.9.2/bits/stl_vector.h ****       { return _M_erase(__first, __last); }
1181:/opt/gcc/4.9.2/include/c++/4.9.2/bits/stl_vector.h **** #endif
1182:/opt/gcc/4.9.2/include/c++/4.9.2/bits/stl_vector.h **** 
1183:/opt/gcc/4.9.2/include/c++/4.9.2/bits/stl_vector.h ****       /**
1184:/opt/gcc/4.9.2/include/c++/4.9.2/bits/stl_vector.h ****        *  @brief  Swaps data with another %vector.
1185:/opt/gcc/4.9.2/include/c++/4.9.2/bits/stl_vector.h ****        *  @param  __x  A %vector of the same element and allocator types.
1186:/opt/gcc/4.9.2/include/c++/4.9.2/bits/stl_vector.h ****        *
1187:/opt/gcc/4.9.2/include/c++/4.9.2/bits/stl_vector.h ****        *  This exchanges the elements between two vectors in constant time.
1188:/opt/gcc/4.9.2/include/c++/4.9.2/bits/stl_vector.h ****        *  (Three pointers, so it should be quite fast.)
1189:/opt/gcc/4.9.2/include/c++/4.9.2/bits/stl_vector.h ****        *  Note that the global std::swap() function is specialized such that
1190:/opt/gcc/4.9.2/include/c++/4.9.2/bits/stl_vector.h ****        *  std::swap(v1,v2) will feed to this function.
1191:/opt/gcc/4.9.2/include/c++/4.9.2/bits/stl_vector.h ****        */
1192:/opt/gcc/4.9.2/include/c++/4.9.2/bits/stl_vector.h ****       void
1193:/opt/gcc/4.9.2/include/c++/4.9.2/bits/stl_vector.h ****       swap(vector& __x)
GAS LISTING /tmp/ccKUqHDa.s 			page 50


1194:/opt/gcc/4.9.2/include/c++/4.9.2/bits/stl_vector.h **** #if __cplusplus >= 201103L
1195:/opt/gcc/4.9.2/include/c++/4.9.2/bits/stl_vector.h ****       noexcept(_Alloc_traits::_S_nothrow_swap())
1196:/opt/gcc/4.9.2/include/c++/4.9.2/bits/stl_vector.h **** #endif
1197:/opt/gcc/4.9.2/include/c++/4.9.2/bits/stl_vector.h ****       {
1198:/opt/gcc/4.9.2/include/c++/4.9.2/bits/stl_vector.h **** 	this->_M_impl._M_swap_data(__x._M_impl);
1199:/opt/gcc/4.9.2/include/c++/4.9.2/bits/stl_vector.h **** 	_Alloc_traits::_S_on_swap(_M_get_Tp_allocator(),
1200:/opt/gcc/4.9.2/include/c++/4.9.2/bits/stl_vector.h **** 	                          __x._M_get_Tp_allocator());
1201:/opt/gcc/4.9.2/include/c++/4.9.2/bits/stl_vector.h ****       }
1202:/opt/gcc/4.9.2/include/c++/4.9.2/bits/stl_vector.h **** 
1203:/opt/gcc/4.9.2/include/c++/4.9.2/bits/stl_vector.h ****       /**
1204:/opt/gcc/4.9.2/include/c++/4.9.2/bits/stl_vector.h ****        *  Erases all the elements.  Note that this function only erases the
1205:/opt/gcc/4.9.2/include/c++/4.9.2/bits/stl_vector.h ****        *  elements, and that if the elements themselves are pointers, the
1206:/opt/gcc/4.9.2/include/c++/4.9.2/bits/stl_vector.h ****        *  pointed-to memory is not touched in any way.  Managing the pointer is
1207:/opt/gcc/4.9.2/include/c++/4.9.2/bits/stl_vector.h ****        *  the user's responsibility.
1208:/opt/gcc/4.9.2/include/c++/4.9.2/bits/stl_vector.h ****        */
1209:/opt/gcc/4.9.2/include/c++/4.9.2/bits/stl_vector.h ****       void
1210:/opt/gcc/4.9.2/include/c++/4.9.2/bits/stl_vector.h ****       clear() _GLIBCXX_NOEXCEPT
1211:/opt/gcc/4.9.2/include/c++/4.9.2/bits/stl_vector.h ****       { _M_erase_at_end(this->_M_impl._M_start); }
1212:/opt/gcc/4.9.2/include/c++/4.9.2/bits/stl_vector.h **** 
1213:/opt/gcc/4.9.2/include/c++/4.9.2/bits/stl_vector.h ****     protected:
1214:/opt/gcc/4.9.2/include/c++/4.9.2/bits/stl_vector.h ****       /**
1215:/opt/gcc/4.9.2/include/c++/4.9.2/bits/stl_vector.h ****        *  Memory expansion handler.  Uses the member allocation function to
1216:/opt/gcc/4.9.2/include/c++/4.9.2/bits/stl_vector.h ****        *  obtain @a n bytes of memory, and then copies [first,last) into it.
1217:/opt/gcc/4.9.2/include/c++/4.9.2/bits/stl_vector.h ****        */
