GAS LISTING /tmp/ccnhEzDm.s 			page 1


   1              		.file	"simplest.c"
   8 0000 1D010000 		.text
   8      0200B400 
   8      00000101 
   8      FB0E0D00 
   8      01010101 
   9              	.Ltext0:
  10              		.section	.rodata.str1.1,"aMS",@progbits,1
  11              	.LC4:
  12 0000 546F7461 		.string	"Total time: %f seconds\n"
  12      6C207469 
  12      6D653A20 
  12      25662073 
  12      65636F6E 
  13              	.LC5:
  14 0018 68656174 		.string	"heatmap.png"
  14      6D61702E 
  14      706E6700 
  15              		.section	.rodata.str1.8,"aMS",@progbits,1
  16              		.align 8
  17              	.LC6:
  18 0000 4572726F 		.string	"Error (%u) creating PNG file: %s\n"
  18      72202825 
  18      75292063 
  18      72656174 
  18      696E6720 
  19              		.text
  20              		.p2align 4,,15
  21              	.globl main
  22              		.type	main, @function
  23              	main:
  24              	.LFB30:
  25              		.file 1 "examples/simplest.c"
   0:examples/simplest.c **** /* heatmap - High performance heatmap creation in C.
   1:examples/simplest.c ****  *
   2:examples/simplest.c ****  * The MIT License (MIT)
   3:examples/simplest.c ****  *
   4:examples/simplest.c ****  * Copyright (c) 2013 Lucas Beyer
   5:examples/simplest.c ****  *
   6:examples/simplest.c ****  * Permission is hereby granted, free of charge, to any person obtaining a copy of
   7:examples/simplest.c ****  * this software and associated documentation files (the "Software"), to deal in
   8:examples/simplest.c ****  * the Software without restriction, including without limitation the rights to
   9:examples/simplest.c ****  * use, copy, modify, merge, publish, distribute, sublicense, and/or sell copies of
  10:examples/simplest.c ****  * the Software, and to permit persons to whom the Software is furnished to do so,
  11:examples/simplest.c ****  * subject to the following conditions:
  12:examples/simplest.c ****  *
  13:examples/simplest.c ****  * The above copyright notice and this permission notice shall be included in all
  14:examples/simplest.c ****  * copies or substantial portions of the Software.
  15:examples/simplest.c ****  *
  16:examples/simplest.c ****  * THE SOFTWARE IS PROVIDED "AS IS", WITHOUT WARRANTY OF ANY KIND, EXPRESS OR
  17:examples/simplest.c ****  * IMPLIED, INCLUDING BUT NOT LIMITED TO THE WARRANTIES OF MERCHANTABILITY, FITNESS
GAS LISTING /tmp/ccnhEzDm.s 			page 2


  18:examples/simplest.c ****  * FOR A PARTICULAR PURPOSE AND NONINFRINGEMENT. IN NO EVENT SHALL THE AUTHORS OR
  19:examples/simplest.c ****  * COPYRIGHT HOLDERS BE LIABLE FOR ANY CLAIM, DAMAGES OR OTHER LIABILITY, WHETHER
  20:examples/simplest.c ****  * IN AN ACTION OF CONTRACT, TORT OR OTHERWISE, ARISING FROM, OUT OF OR IN
  21:examples/simplest.c ****  * CONNECTION WITH THE SOFTWARE OR THE USE OR OTHER DEALINGS IN THE SOFTWARE.
  22:examples/simplest.c ****  */
  23:examples/simplest.c **** 
  24:examples/simplest.c **** #include <stdlib.h>
  25:examples/simplest.c **** #include <stdio.h>
  26:examples/simplest.c **** #include <time.h>
  27:examples/simplest.c **** #include <omp.h>
  28:examples/simplest.c **** 
  29:examples/simplest.c **** #include "lodepng.h"
  30:examples/simplest.c **** #include "heatmap.h"
  31:examples/simplest.c **** 
  32:examples/simplest.c **** int main()
  33:examples/simplest.c **** {
  26              		.loc 1 34 0
  27              		.cfi_startproc
  28 0000 4157     		pushq	%r15
  29              		.cfi_def_cfa_offset 16
  30              		.cfi_offset 15, -16
  34:examples/simplest.c ****     static const size_t w = 4096, h = 4096, npoints = 10000000;
  35:examples/simplest.c ****     unsigned char image[4096 * 4096 * 4];
  36:examples/simplest.c ****     unsigned i;
  37:examples/simplest.c **** 
  38:examples/simplest.c ****     srand(time(NULL));
  31              		.loc 1 39 0
  32 0002 31FF     		xorl	%edi, %edi
  34:examples/simplest.c ****     static const size_t w = 4096, h = 4096, npoints = 10000000;
  33              		.loc 1 34 0
  34 0004 4156     		pushq	%r14
  35              		.cfi_def_cfa_offset 24
  36              		.cfi_offset 14, -24
  39:examples/simplest.c **** 
  40:examples/simplest.c ****     float *xs = (float *) malloc(sizeof(float) * npoints);
  41:examples/simplest.c ****     float *ys = (float *) malloc(sizeof(float) * npoints);
  42:examples/simplest.c ****     float *ws = (float *) malloc(sizeof(float) * npoints);
  37              		.loc 1 43 0
  38 0006 4531F6   		xorl	%r14d, %r14d
  34:examples/simplest.c ****     static const size_t w = 4096, h = 4096, npoints = 10000000;
  39              		.loc 1 34 0
  40 0009 4155     		pushq	%r13
  41              		.cfi_def_cfa_offset 32
  42              		.cfi_offset 13, -32
  43 000b 4154     		pushq	%r12
  44              		.cfi_def_cfa_offset 40
  45              		.cfi_offset 12, -40
  46              	.LBB2:
  43:examples/simplest.c ****     /* Add a bunch of random points to the heatmap now. */
  44:examples/simplest.c ****     for(i = 0 ; i < npoints ; ++i) {
  45:examples/simplest.c ****         /* Fake a normal distribution. */
  46:examples/simplest.c ****         unsigned x = rand() % w/3 + rand() % w/3 + rand() % w/3;
  47:examples/simplest.c ****         unsigned y = rand() % h/3 + rand() % h/3 + rand() % h/3;
  48:examples/simplest.c ****         xs[i] = (float)x;
  47              		.loc 1 49 0
  48 000d 49BCABAA 		movabsq	$-6148914691236517205, %r12
  48      AAAAAAAA 
GAS LISTING /tmp/ccnhEzDm.s 			page 3


  48      AAAA
  49              	.LBE2:
  34:examples/simplest.c **** {
  50              		.loc 1 34 0
  51 0017 55       		pushq	%rbp
  52              		.cfi_def_cfa_offset 48
  53              		.cfi_offset 6, -48
  54 0018 53       		pushq	%rbx
  55              		.cfi_def_cfa_offset 56
  56              		.cfi_offset 3, -56
  57 0019 4881EC48 		subq	$67108936, %rsp
  57      000004
  58              		.cfi_def_cfa_offset 67108992
  39:examples/simplest.c **** 
  59              		.loc 1 39 0
  60 0020 E8000000 		call	time@PLT
  60      00
  61 0025 89C7     		movl	%eax, %edi
  62 0027 E8000000 		call	srand@PLT
  62      00
  41:examples/simplest.c ****     float *xs = (float *) malloc(sizeof(float) * npoints);
  63              		.loc 1 41 0
  64 002c BF005A62 		movl	$40000000, %edi
  64      02
  65 0031 E8000000 		call	malloc@PLT
  65      00
  42:examples/simplest.c ****     float *ys = (float *) malloc(sizeof(float) * npoints);
  66              		.loc 1 42 0
  67 0036 BF005A62 		movl	$40000000, %edi
  67      02
  41:examples/simplest.c ****     float *xs = (float *) malloc(sizeof(float) * npoints);
  68              		.loc 1 41 0
  69 003b 4889C3   		movq	%rax, %rbx
  70              	.LVL0:
  42:examples/simplest.c ****     float *ys = (float *) malloc(sizeof(float) * npoints);
  71              		.loc 1 42 0
  72 003e E8000000 		call	malloc@PLT
  72      00
  73              	.LVL1:
  43:examples/simplest.c ****     float *ws = (float *) malloc(sizeof(float) * npoints);
  74              		.loc 1 43 0
  75 0043 BF005A62 		movl	$40000000, %edi
  75      02
  42:examples/simplest.c ****     float *ys = (float *) malloc(sizeof(float) * npoints);
  76              		.loc 1 42 0
  77 0048 4889C5   		movq	%rax, %rbp
  78              	.LVL2:
  43:examples/simplest.c ****     float *ws = (float *) malloc(sizeof(float) * npoints);
  79              		.loc 1 43 0
  80 004b E8000000 		call	malloc@PLT
  80      00
  81              	.LVL3:
  82 0050 4989C5   		movq	%rax, %r13
  83              	.LVL4:
  84              		.p2align 4,,10
  85 0053 0F1F4400 		.p2align 3
  85      00
GAS LISTING /tmp/ccnhEzDm.s 			page 4


  86              	.L6:
  87              	.LBB3:
  47:examples/simplest.c ****         unsigned x = rand() % w/3 + rand() % w/3 + rand() % w/3;
  88              		.loc 1 47 0
  89 0058 E8000000 		call	rand@PLT
  89      00
  90 005d 89442430 		movl	%eax, 48(%rsp)
  91 0061 E8000000 		call	rand@PLT
  91      00
  92 0066 89442420 		movl	%eax, 32(%rsp)
  93 006a E8000000 		call	rand@PLT
  93      00
  94 006f 89442410 		movl	%eax, 16(%rsp)
  48:examples/simplest.c ****         unsigned y = rand() % h/3 + rand() % h/3 + rand() % h/3;
  95              		.loc 1 48 0
  96 0073 E8000000 		call	rand@PLT
  96      00
  97 0078 4189C7   		movl	%eax, %r15d
  98 007b E8000000 		call	rand@PLT
  98      00
  99 0080 89442408 		movl	%eax, 8(%rsp)
  49:examples/simplest.c ****         ys[i] = (float)y;
 100              		.loc 1 50 0
 101 0084 4181E7FF 		andl	$4095, %r15d
 101      0F0000
  48:examples/simplest.c ****         unsigned y = rand() % h/3 + rand() % h/3 + rand() % h/3;
 102              		.loc 1 48 0
 103 008b E8000000 		call	rand@PLT
 103      00
  49:examples/simplest.c ****         ys[i] = (float)y;
 104              		.loc 1 49 0
 105 0090 8B742420 		movl	32(%rsp), %esi
  48:examples/simplest.c ****         unsigned y = rand() % h/3 + rand() % h/3 + rand() % h/3;
 106              		.loc 1 48 0
 107 0094 89C7     		movl	%eax, %edi
 108              		.loc 1 50 0
 109 0096 8B4C2408 		movl	8(%rsp), %ecx
 110 009a 81E7FF0F 		andl	$4095, %edi
 110      0000
  49:examples/simplest.c ****         ys[i] = (float)y;
 111              		.loc 1 49 0
 112 00a0 81E6FF0F 		andl	$4095, %esi
 112      0000
 113              		.loc 1 50 0
 114 00a6 81E1FF0F 		andl	$4095, %ecx
 114      0000
  49:examples/simplest.c ****         ys[i] = (float)y;
 115              		.loc 1 49 0
 116 00ac 4889F0   		movq	%rsi, %rax
 117 00af 49F7E4   		mulq	%r12
 118 00b2 4889D6   		movq	%rdx, %rsi
 119 00b5 8B542430 		movl	48(%rsp), %edx
 120 00b9 48D1EE   		shrq	%rsi
 121 00bc 81E2FF0F 		andl	$4095, %edx
 121      0000
 122 00c2 4889D0   		movq	%rdx, %rax
 123 00c5 49F7E4   		mulq	%r12
GAS LISTING /tmp/ccnhEzDm.s 			page 5


 124 00c8 48D1EA   		shrq	%rdx
 125 00cb 01D6     		addl	%edx, %esi
 126 00cd 8B542410 		movl	16(%rsp), %edx
 127 00d1 81E2FF0F 		andl	$4095, %edx
 127      0000
 128 00d7 4889D0   		movq	%rdx, %rax
 129 00da 49F7E4   		mulq	%r12
 130              		.loc 1 50 0
 131 00dd 4889C8   		movq	%rcx, %rax
  49:examples/simplest.c ****         ys[i] = (float)y;
 132              		.loc 1 49 0
 133 00e0 48D1EA   		shrq	%rdx
 134 00e3 01D6     		addl	%edx, %esi
 135              		.loc 1 50 0
 136 00e5 49F7E4   		mulq	%r12
 137 00e8 4C89F8   		movq	%r15, %rax
  49:examples/simplest.c ****         ys[i] = (float)y;
 138              		.loc 1 49 0
 139 00eb F3480F2A 		cvtsi2ssq	%rsi, %xmm0
 139      C6
 140              		.loc 1 50 0
 141 00f0 4889D1   		movq	%rdx, %rcx
 142 00f3 49F7E4   		mulq	%r12
 143 00f6 48D1E9   		shrq	%rcx
 144 00f9 4889F8   		movq	%rdi, %rax
 145 00fc 48D1EA   		shrq	%rdx
 146 00ff 01D1     		addl	%edx, %ecx
 147 0101 49F7E4   		mulq	%r12
  49:examples/simplest.c ****         ys[i] = (float)y;
 148              		.loc 1 49 0
 149 0104 F3420F11 		movss	%xmm0, (%rbx,%r14)
 149      0433
  50:examples/simplest.c ****         ws[i] = 1.0;
 150              		.loc 1 51 0
 151 010a 43C74435 		movl	$0x3f800000, 0(%r13,%r14)
 151      00000080 
 151      3F
  50:examples/simplest.c ****         ws[i] = 1.0;
 152              		.loc 1 50 0
 153 0113 48D1EA   		shrq	%rdx
 154 0116 01D1     		addl	%edx, %ecx
 155 0118 F3480F2A 		cvtsi2ssq	%rcx, %xmm0
 155      C1
 156 011d F3420F11 		movss	%xmm0, 0(%rbp,%r14)
 156      443500
 157              		.loc 1 51 0
 158 0124 4983C604 		addq	$4, %r14
 159              	.LBE3:
  45:examples/simplest.c ****     for(i = 0 ; i < npoints ; ++i) {
 160              		.loc 1 45 0
 161 0128 4981FE00 		cmpq	$40000000, %r14
 161      5A6202
 162 012f 0F8523FF 		jne	.L6
 162      FFFF
  51:examples/simplest.c ****     }
  52:examples/simplest.c ****     double begin = omp_get_wtime();
 163              		.loc 1 53 0
GAS LISTING /tmp/ccnhEzDm.s 			page 6


 164 0135 E8000000 		call	omp_get_wtime@PLT
 164      00
  53:examples/simplest.c **** 
  54:examples/simplest.c ****     /* Create the heatmap object with the given dimensions (in pixel). */
  55:examples/simplest.c ****     heatmap_t* hm = heatmap_new(w, h);
 165              		.loc 1 56 0
 166 013a BE001000 		movl	$4096, %esi
 166      00
 167 013f BF001000 		movl	$4096, %edi
 167      00
  53:examples/simplest.c **** 
 168              		.loc 1 53 0
 169 0144 F20F1144 		movsd	%xmm0, 8(%rsp)
 169      2408
 170              	.LVL5:
 171              		.loc 1 56 0
 172 014a E8000000 		call	heatmap_new@PLT
 172      00
 173              	.LVL6:
  56:examples/simplest.c **** 
  57:examples/simplest.c ****     // heatmap_add_points_omp(hm, xs, ys, npoints);
  58:examples/simplest.c **** 
  59:examples/simplest.c ****     cudaKDE_renderer(hm, xs, ys, ws, npoints,
 174              		.loc 1 60 0
 175 014f 0F57D2   		xorps	%xmm2, %xmm2
 176 0152 4889DE   		movq	%rbx, %rsi
 177 0155 F30F101D 		movss	.LC2(%rip), %xmm3
 177      00000000 
  60:examples/simplest.c ****                      0, 8192, 0, 8192, 3);
  61:examples/simplest.c ****     /*for (i = 0; i < npoints; i++)*/
  62:examples/simplest.c ****     /*{*/
  63:examples/simplest.c ****         /*heatmap_add_point(hm, xs[i], ys[i]);*/
  64:examples/simplest.c ****     /*}*/
  65:examples/simplest.c **** 
  66:examples/simplest.c ****     /* This creates an image out of the heatmap.
  67:examples/simplest.c ****      * `image` now contains the image data in 32-bit RGBA.
  68:examples/simplest.c ****      */
  69:examples/simplest.c ****     heatmap_render_default_to(hm, image);
 178              		.loc 1 70 0
 179 015d 488D5C24 		leaq	64(%rsp), %rbx
 179      40
 180              	.LVL7:
  60:examples/simplest.c ****                      0, 8192, 0, 8192, 3);
 181              		.loc 1 60 0
 182 0162 0F28CB   		movaps	%xmm3, %xmm1
 183 0165 41B88096 		movl	$10000000, %r8d
 183      9800
 184 016b 0F28C2   		movaps	%xmm2, %xmm0
 185 016e 4C89E9   		movq	%r13, %rcx
 186 0171 F30F1025 		movss	.LC1(%rip), %xmm4
 186      00000000 
 187 0179 4889EA   		movq	%rbp, %rdx
  56:examples/simplest.c **** 
 188              		.loc 1 56 0
 189 017c 4989C4   		movq	%rax, %r12
 190              	.LVL8:
  60:examples/simplest.c ****                      0, 8192, 0, 8192, 3);
GAS LISTING /tmp/ccnhEzDm.s 			page 7


 191              		.loc 1 60 0
 192 017f 4889C7   		movq	%rax, %rdi
 193 0182 E8000000 		call	cudaKDE_renderer@PLT
 193      00
 194              	.LVL9:
 195              		.loc 1 70 0
 196 0187 4889DE   		movq	%rbx, %rsi
 197 018a 4C89E7   		movq	%r12, %rdi
 198 018d E8000000 		call	heatmap_render_default_to@PLT
 198      00
  70:examples/simplest.c **** 
  71:examples/simplest.c ****     /* Now that we've got a finished heatmap picture,
  72:examples/simplest.c ****      * we don't need the map anymore.
  73:examples/simplest.c ****      */
  74:examples/simplest.c ****     heatmap_free(hm);
 199              		.loc 1 75 0
 200 0192 4C89E7   		movq	%r12, %rdi
 201 0195 E8000000 		call	heatmap_free@PLT
 201      00
  75:examples/simplest.c **** 
  76:examples/simplest.c ****     double end = omp_get_wtime();
 202              		.loc 1 77 0
 203 019a E8000000 		call	omp_get_wtime@PLT
 203      00
 204              	.LVL10:
  77:examples/simplest.c ****     printf("Total time: %f seconds\n", end - begin);
 205              		.loc 1 78 0
 206 019f F20F5C44 		subsd	8(%rsp), %xmm0
 206      2408
 207              	.LVL11:
 208 01a5 488D3D00 		leaq	.LC4(%rip), %rdi
 208      000000
 209 01ac B8010000 		movl	$1, %eax
 209      00
 210 01b1 E8000000 		call	printf@PLT
 210      00
 211              	.LBB4:
  78:examples/simplest.c **** 
  79:examples/simplest.c ****     /* Finally, we use the fantastic lodepng library to save it as an image. */
  80:examples/simplest.c ****     {
  81:examples/simplest.c ****         unsigned error = lodepng_encode32_file("heatmap.png", image, w, h);
 212              		.loc 1 82 0
 213 01b6 488D3D00 		leaq	.LC5(%rip), %rdi
 213      000000
 214 01bd 4889DE   		movq	%rbx, %rsi
 215 01c0 B9001000 		movl	$4096, %ecx
 215      00
 216 01c5 BA001000 		movl	$4096, %edx
 216      00
 217 01ca E8000000 		call	lodepng_encode32_file@PLT
 217      00
  82:examples/simplest.c ****         if(error)
 218              		.loc 1 83 0
 219 01cf 85C0     		testl	%eax, %eax
  82:examples/simplest.c ****         if(error)
 220              		.loc 1 82 0
 221 01d1 89C3     		movl	%eax, %ebx
GAS LISTING /tmp/ccnhEzDm.s 			page 8


 222              	.LVL12:
 223              		.loc 1 83 0
 224 01d3 7424     		je	.L7
  83:examples/simplest.c ****             fprintf(stderr, "Error (%u) creating PNG file: %s\n",
 225              		.loc 1 84 0
 226 01d5 89C7     		movl	%eax, %edi
 227 01d7 E8000000 		call	lodepng_error_text@PLT
 227      00
 228              	.LVL13:
 229 01dc 4889C1   		movq	%rax, %rcx
 230 01df 488B0500 		movq	stderr@GOTPCREL(%rip), %rax
 230      000000
 231 01e6 488D3500 		leaq	.LC6(%rip), %rsi
 231      000000
 232 01ed 89DA     		movl	%ebx, %edx
 233 01ef 488B38   		movq	(%rax), %rdi
 234 01f2 31C0     		xorl	%eax, %eax
 235 01f4 E8000000 		call	fprintf@PLT
 235      00
 236              	.L7:
 237              	.LBE4:
  84:examples/simplest.c ****                     error, lodepng_error_text(error));
  85:examples/simplest.c ****     }
  86:examples/simplest.c **** 
  87:examples/simplest.c ****     return 0;
  88:examples/simplest.c **** }
 238              		.loc 1 89 0
 239 01f9 4881C448 		addq	$67108936, %rsp
 239      000004
 240              		.cfi_def_cfa_offset 56
 241 0200 31C0     		xorl	%eax, %eax
 242 0202 5B       		popq	%rbx
 243              		.cfi_def_cfa_offset 48
 244              	.LVL14:
 245 0203 5D       		popq	%rbp
 246              		.cfi_def_cfa_offset 40
 247              	.LVL15:
 248 0204 415C     		popq	%r12
 249              		.cfi_def_cfa_offset 32
 250              	.LVL16:
 251 0206 415D     		popq	%r13
 252              		.cfi_def_cfa_offset 24
 253              	.LVL17:
 254 0208 415E     		popq	%r14
 255              		.cfi_def_cfa_offset 16
 256 020a 415F     		popq	%r15
 257              		.cfi_def_cfa_offset 8
 258 020c C3       		ret
 259              		.cfi_endproc
 260              	.LFE30:
 261              		.size	main, .-main
 262              		.section	.rodata.cst4,"aM",@progbits,4
 263              		.align 4
 264              	.LC1:
 265 0000 00004040 		.long	1077936128
 266              		.align 4
 267              	.LC2:
GAS LISTING /tmp/ccnhEzDm.s 			page 9


 268 0004 00000046 		.long	1174405120
 269              		.text
 270              	.Letext0:
 1391              		.section	.note.GNU-stack,"",@progbits
